///////////////////////////////////////////////////////////////////////////////
//                                                                            /
// IAR C/C++ Compiler V7.51A/W32 for 8051               01/Aug/2018  15:45:46 /
// Copyright 2004-2009 IAR Systems AB.                                        /
//                                                                            /
//    Core               =  plain                                             /
//    Code model         =  banked                                            /
//    Data model         =  large                                             /
//    Calling convention =  xdata reentrant                                   /
//    Constant location  =  data_rom                                          /
//    Dptr setup         =  1,16                                              /
//    Source file        =  C:\Scratch\s3530312\ZStack-CC2530-2.3.1\Component /
//                          s\stack\zdo\ZDApp.c                               /
//    Command line       =  -f C:\Scratch\s3530312\ZStack-CC2530-2.3.1\Projec /
//                          ts\zstack\Samples\SampleApp\CC2530DB\..\..\..\Too /
//                          ls\CC2530DB\f8wEndev.cfg (-DCPU32MHZ              /
//                          -DROOT=__near_func -DMAC_CFG_TX_DATA_MAX=3        /
//                          -DMAC_CFG_TX_MAX=6 -DMAC_CFG_RX_MAX=3) -f         /
//                          C:\Scratch\s3530312\ZStack-CC2530-2.3.1\Projects\ /
//                          zstack\Samples\SampleApp\CC2530DB\..\..\..\Tools\ /
//                          CC2530DB\f8wConfig.cfg (-DSECURE=0                /
//                          -DZG_SECURE_DYNAMIC=0 -DREFLECTOR                 /
//                          -DDEFAULT_CHANLIST=0x00000800                     /
//                          -DZDAPP_CONFIG_PAN_ID=0xFFFF                      /
//                          -DNWK_START_DELAY=100 -DEXTENDED_JOINING_RANDOM_M /
//                          ASK=0x007F -DBEACON_REQUEST_DELAY=100             /
//                          -DBEACON_REQ_DELAY_MASK=0x00FF                    /
//                          -DLINK_STATUS_JITTER_MASK=0x007F                  /
//                          -DROUTE_EXPIRY_TIME=30 -DAPSC_ACK_WAIT_DURATION_P /
//                          OLLED=3000 -DNWK_INDIRECT_MSG_TIMEOUT=7           /
//                          -DMAX_RREQ_ENTRIES=8 -DAPSC_MAX_FRAME_RETRIES=3   /
//                          -DNWK_MAX_DATA_RETRIES=2                          /
//                          -DMAX_POLL_FAILURE_RETRIES=2 -DMAX_BCAST=9        /
//                          -DAPS_MAX_GROUPS=16 -DMAX_RTG_ENTRIES=40          /
//                          -DNWK_MAX_BINDING_ENTRIES=4                       /
//                          -DMAX_BINDING_CLUSTER_IDS=4                       /
//                          "-DDEFAULT_KEY={0x01, 0x03, 0x05, 0x07, 0x09,     /
//                          0x0B, 0x0D, 0x0F, 0x00, 0x02, 0x04, 0x06, 0x08,   /
//                          0x0A, 0x0C, 0x0D}" -DMAC_MAX_FRAME_SIZE=116       /
//                          -DZDNWKMGR_MIN_TRANSMISSIONS=20 "-DCONST=const    /
//                          __code" -DGENERIC=__generic                       /
//                          -DRFD_RCVC_ALWAYS_ON=FALSE -DPOLL_RATE=1000       /
//                          -DQUEUED_POLL_RATE=100 -DRESPONSE_POLL_RATE=100)  /
//                          -DREJOIN_POLL_RATE=440 C:\Scratch\s3530312\ZStack /
//                          -CC2530-2.3.1\Components\stack\zdo\ZDApp.c -D     /
//                          NWK_AUTO_POLL -D ZTOOL_P1 -D MT_TASK -D           /
//                          MT_SYS_FUNC -D MT_ZDO_FUNC -D                     /
//                          LCD_SUPPORTED=DEBUG -lC                           /
//                          C:\Scratch\s3530312\ZStack-CC2530-2.3.1\Projects\ /
//                          zstack\Samples\SampleApp\CC2530DB\EndDeviceEB\Lis /
//                          t\ -lA C:\Scratch\s3530312\ZStack-CC2530-2.3.1\Pr /
//                          ojects\zstack\Samples\SampleApp\CC2530DB\EndDevic /
//                          eEB\List\ --diag_suppress Pe001,Pa010 -o          /
//                          C:\Scratch\s3530312\ZStack-CC2530-2.3.1\Projects\ /
//                          zstack\Samples\SampleApp\CC2530DB\EndDeviceEB\Obj /
//                          \ -e --require_prototypes --debug --core=plain    /
//                          --dptr=16,1 --data_model=large                    /
//                          --code_model=banked --calling_convention=xdata_re /
//                          entrant --place_constants=data_rom                /
//                          --nr_virtual_regs 16 -I                           /
//                          C:\Scratch\s3530312\ZStack-CC2530-2.3.1\Projects\ /
//                          zstack\Samples\SampleApp\CC2530DB\ -I             /
//                          C:\Scratch\s3530312\ZStack-CC2530-2.3.1\Projects\ /
//                          zstack\Samples\SampleApp\CC2530DB\..\SOURCE\ -I   /
//                          C:\Scratch\s3530312\ZStack-CC2530-2.3.1\Projects\ /
//                          zstack\Samples\SampleApp\CC2530DB\..\..\..\ZMAIN\ /
//                          TI2530DB\ -I C:\Scratch\s3530312\ZStack-CC2530-2. /
//                          3.1\Projects\zstack\Samples\SampleApp\CC2530DB\.. /
//                          \..\..\..\..\COMPONENTS\MT\ -I                    /
//                          C:\Scratch\s3530312\ZStack-CC2530-2.3.1\Projects\ /
//                          zstack\Samples\SampleApp\CC2530DB\..\..\..\..\..\ /
//                          COMPONENTS\HAL\INCLUDE\ -I                        /
//                          C:\Scratch\s3530312\ZStack-CC2530-2.3.1\Projects\ /
//                          zstack\Samples\SampleApp\CC2530DB\..\..\..\..\..\ /
//                          COMPONENTS\HAL\TARGET\CC2530EB\ -I                /
//                          C:\Scratch\s3530312\ZStack-CC2530-2.3.1\Projects\ /
//                          zstack\Samples\SampleApp\CC2530DB\..\..\..\..\..\ /
//                          COMPONENTS\OSAL\MCU\CCSOC\ -I                     /
//                          C:\Scratch\s3530312\ZStack-CC2530-2.3.1\Projects\ /
//                          zstack\Samples\SampleApp\CC2530DB\..\..\..\..\..\ /
//                          COMPONENTS\OSAL\INCLUDE\ -I                       /
//                          C:\Scratch\s3530312\ZStack-CC2530-2.3.1\Projects\ /
//                          zstack\Samples\SampleApp\CC2530DB\..\..\..\..\..\ /
//                          COMPONENTS\STACK\AF\ -I                           /
//                          C:\Scratch\s3530312\ZStack-CC2530-2.3.1\Projects\ /
//                          zstack\Samples\SampleApp\CC2530DB\..\..\..\..\..\ /
//                          COMPONENTS\STACK\NWK\ -I                          /
//                          C:\Scratch\s3530312\ZStack-CC2530-2.3.1\Projects\ /
//                          zstack\Samples\SampleApp\CC2530DB\..\..\..\..\..\ /
//                          COMPONENTS\STACK\SEC\ -I                          /
//                          C:\Scratch\s3530312\ZStack-CC2530-2.3.1\Projects\ /
//                          zstack\Samples\SampleApp\CC2530DB\..\..\..\..\..\ /
//                          COMPONENTS\STACK\SAPI\ -I                         /
//                          C:\Scratch\s3530312\ZStack-CC2530-2.3.1\Projects\ /
//                          zstack\Samples\SampleApp\CC2530DB\..\..\..\..\..\ /
//                          COMPONENTS\STACK\SYS\ -I                          /
//                          C:\Scratch\s3530312\ZStack-CC2530-2.3.1\Projects\ /
//                          zstack\Samples\SampleApp\CC2530DB\..\..\..\..\..\ /
//                          COMPONENTS\STACK\ZDO\ -I                          /
//                          C:\Scratch\s3530312\ZStack-CC2530-2.3.1\Projects\ /
//                          zstack\Samples\SampleApp\CC2530DB\..\..\..\..\..\ /
//                          COMPONENTS\ZMAC\F8W\ -I                           /
//                          C:\Scratch\s3530312\ZStack-CC2530-2.3.1\Projects\ /
//                          zstack\Samples\SampleApp\CC2530DB\..\..\..\..\..\ /
//                          COMPONENTS\ZMAC\ -I C:\Scratch\s3530312\ZStack-CC /
//                          2530-2.3.1\Projects\zstack\Samples\SampleApp\CC25 /
//                          30DB\..\..\..\..\..\COMPONENTS\SERVICES\SADDR\    /
//                          -I C:\Scratch\s3530312\ZStack-CC2530-2.3.1\Projec /
//                          ts\zstack\Samples\SampleApp\CC2530DB\..\..\..\..\ /
//                          ..\COMPONENTS\SERVICES\SDATA\ -I                  /
//                          C:\Scratch\s3530312\ZStack-CC2530-2.3.1\Projects\ /
//                          zstack\Samples\SampleApp\CC2530DB\..\..\..\..\..\ /
//                          COMPONENTS\MAC\INCLUDE\ -I                        /
//                          C:\Scratch\s3530312\ZStack-CC2530-2.3.1\Projects\ /
//                          zstack\Samples\SampleApp\CC2530DB\..\..\..\..\..\ /
//                          COMPONENTS\MAC\HIGH_LEVEL\ -I                     /
//                          C:\Scratch\s3530312\ZStack-CC2530-2.3.1\Projects\ /
//                          zstack\Samples\SampleApp\CC2530DB\..\..\..\..\..\ /
//                          COMPONENTS\MAC\LOW_LEVEL\srf04\ -I                /
//                          C:\Scratch\s3530312\ZStack-CC2530-2.3.1\Projects\ /
//                          zstack\Samples\SampleApp\CC2530DB\..\..\..\..\..\ /
//                          COMPONENTS\MAC\LOW_LEVEL\srf04\SINGLE_CHIP\ -I    /
//                          "C:\Program Files (x86)\IAR Systems\Embedded      /
//                          Workbench 5.3\8051\INC\" -I "C:\Program Files     /
//                          (x86)\IAR Systems\Embedded Workbench              /
//                          5.3\8051\INC\CLIB\" -Ohz                          /
//    List file          =  C:\Scratch\s3530312\ZStack-CC2530-2.3.1\Projects\ /
//                          zstack\Samples\SampleApp\CC2530DB\EndDeviceEB\Lis /
//                          t\ZDApp.s51                                       /
//                                                                            /
//                                                                            /
///////////////////////////////////////////////////////////////////////////////

        NAME ZDApp

        RTMODEL "__calling_convention", "xdata_reentrant"
        RTMODEL "__code_model", "banked"
        RTMODEL "__core", "plain"
        RTMODEL "__data_model", "large"
        RTMODEL "__dptr_size", "16"
        RTMODEL "__extended_stack", "disabled"
        RTMODEL "__location_for_constants", "data"
        RTMODEL "__number_of_dptrs", "1"
        RTMODEL "__rt_version", "1"

        RSEG DOVERLAY:DATA:NOROOT(0)
        RSEG IOVERLAY:IDATA:NOROOT(0)
        RSEG ISTACK:IDATA:NOROOT(0)
        RSEG PSTACK:XDATA:NOROOT(0)
        RSEG XSTACK:XDATA:NOROOT(0)

        EXTERN ??ZDAppCheckForHoldKey?relay
        EXTERN ??ZDAppDetermineDeviceType?relay
        EXTERN ??ZDApp_AnnounceNewAddress?relay
        EXTERN ??ZDApp_DeviceAuthEvt?relay
        EXTERN ??ZDApp_InitUserDesc?relay
        EXTERN ??ZDApp_LeaveCtrlInit?relay
        EXTERN ??ZDApp_LeaveCtrlSet?relay
        EXTERN ??ZDApp_LeaveCtrlStartup?relay
        EXTERN ??ZDApp_LeaveReset?relay
        EXTERN ??ZDApp_NetworkInit?relay
        EXTERN ??ZDApp_NodeProfileSync?relay
        EXTERN ??ZDApp_ProcessMsgCBs?relay
        EXTERN ??ZDApp_ProcessNetworkJoin?relay
        EXTERN ??ZDApp_ProcessOSALMsg?relay
        EXTERN ??ZDApp_RegisterCBs?relay
        EXTERN ??ZDApp_ResetTimerCancel?relay
        EXTERN ??ZDApp_ResetTimerStart?relay
        EXTERN ??ZDApp_SaveNwkKey?relay
        EXTERN ??ZDApp_SendMsg?relay
        EXTERN ??ZDOInitDevice?relay
        EXTERN ?ALLOC_XSTACK8
        EXTERN ?BANKED_ENTER_XDATA
        EXTERN ?BANKED_LEAVE_XDATA
        EXTERN ?BDISPATCH
        EXTERN ?BRET
        EXTERN ?CALL_IND
        EXTERN ?DEALLOC_XSTACK8
        EXTERN ?L_ADD_TO_X
        EXTERN ?L_EQ_X
        EXTERN ?L_MOV_TO_X
        EXTERN ?L_MOV_X
        EXTERN ?PUSH_XSTACK_I_ONE
        EXTERN ?PUSH_XSTACK_I_THREE
        EXTERN ?PUSH_XSTACK_I_TWO
        EXTERN ?UC_SWITCH_SPARSE
        EXTERN ?US_SWITCH_SPARSE
        EXTERN ?V0
        EXTERN ?XSP
        EXTERN ?XSTACK_DISP0_8
        EXTERN __INIT_XDATA_I
        EXTERN __INIT_XDATA_Z

        PUBLIC ??AddrMgrWriteNVRequest?relay
        FUNCTION ??AddrMgrWriteNVRequest?relay,0203H
        PUBLIC ??ZDAppCheckForHoldKey?relay
        FUNCTION ??ZDAppCheckForHoldKey?relay,0203H
        PUBLIC ??ZDAppDetermineDeviceType?relay
        FUNCTION ??ZDAppDetermineDeviceType?relay,0203H
        PUBLIC ??ZDApp_AnnounceNewAddress?relay
        FUNCTION ??ZDApp_AnnounceNewAddress?relay,0203H
        PUBLIC ??ZDApp_ChangeMatchDescRespPermission?relay
        FUNCTION ??ZDApp_ChangeMatchDescRespPermission?relay,0203H
        PUBLIC ??ZDApp_CoordStartPANIDConflictCB?relay
        FUNCTION ??ZDApp_CoordStartPANIDConflictCB?relay,0203H
        PUBLIC ??ZDApp_DeviceAuthEvt?relay
        FUNCTION ??ZDApp_DeviceAuthEvt?relay,0203H
        PUBLIC ??ZDApp_InMsgCB?relay
        FUNCTION ??ZDApp_InMsgCB?relay,0203H
        PUBLIC ??ZDApp_Init?relay
        FUNCTION ??ZDApp_Init?relay,0203H
        PUBLIC ??ZDApp_InitUserDesc?relay
        FUNCTION ??ZDApp_InitUserDesc?relay,0203H
        PUBLIC ??ZDApp_LeaveCtrlBypass?relay
        FUNCTION ??ZDApp_LeaveCtrlBypass?relay,0203H
        PUBLIC ??ZDApp_LeaveCtrlInit?relay
        FUNCTION ??ZDApp_LeaveCtrlInit?relay,0203H
        PUBLIC ??ZDApp_LeaveCtrlSet?relay
        FUNCTION ??ZDApp_LeaveCtrlSet?relay,0203H
        PUBLIC ??ZDApp_LeaveCtrlStartup?relay
        FUNCTION ??ZDApp_LeaveCtrlStartup?relay,0203H
        PUBLIC ??ZDApp_LeaveReset?relay
        FUNCTION ??ZDApp_LeaveReset?relay,0203H
        PUBLIC ??ZDApp_LeaveUpdate?relay
        FUNCTION ??ZDApp_LeaveUpdate?relay,0203H
        PUBLIC ??ZDApp_NVUpdate?relay
        FUNCTION ??ZDApp_NVUpdate?relay,0203H
        PUBLIC ??ZDApp_NetworkInit?relay
        FUNCTION ??ZDApp_NetworkInit?relay,0203H
        PUBLIC ??ZDApp_NetworkStartEvt?relay
        FUNCTION ??ZDApp_NetworkStartEvt?relay,0203H
        PUBLIC ??ZDApp_NodeProfileSync?relay
        FUNCTION ??ZDApp_NodeProfileSync?relay,0203H
        PUBLIC ??ZDApp_NwkStateUpdateCB?relay
        FUNCTION ??ZDApp_NwkStateUpdateCB?relay,0203H
        PUBLIC ??ZDApp_ProcessMsgCBs?relay
        FUNCTION ??ZDApp_ProcessMsgCBs?relay,0203H
        PUBLIC ??ZDApp_ProcessNetworkJoin?relay
        FUNCTION ??ZDApp_ProcessNetworkJoin?relay,0203H
        PUBLIC ??ZDApp_ProcessOSALMsg?relay
        FUNCTION ??ZDApp_ProcessOSALMsg?relay,0203H
        PUBLIC ??ZDApp_ProcessSecEvent?relay
        FUNCTION ??ZDApp_ProcessSecEvent?relay,0203H
        PUBLIC ??ZDApp_ProcessSecMsg?relay
        FUNCTION ??ZDApp_ProcessSecMsg?relay,0203H
        PUBLIC ??ZDApp_ReadNetworkRestoreState?relay
        FUNCTION ??ZDApp_ReadNetworkRestoreState?relay,0203H
        PUBLIC ??ZDApp_RegisterCBs?relay
        FUNCTION ??ZDApp_RegisterCBs?relay,0203H
        PUBLIC ??ZDApp_ResetNwkKey?relay
        FUNCTION ??ZDApp_ResetNwkKey?relay,0203H
        PUBLIC ??ZDApp_ResetTimerCancel?relay
        FUNCTION ??ZDApp_ResetTimerCancel?relay,0203H
        PUBLIC ??ZDApp_ResetTimerStart?relay
        FUNCTION ??ZDApp_ResetTimerStart?relay,0203H
        PUBLIC ??ZDApp_RestoreNetworkState?relay
        FUNCTION ??ZDApp_RestoreNetworkState?relay,0203H
        PUBLIC ??ZDApp_RestoreNwkKey?relay
        FUNCTION ??ZDApp_RestoreNwkKey?relay,0203H
        PUBLIC ??ZDApp_SaveNetworkStateEvt?relay
        FUNCTION ??ZDApp_SaveNetworkStateEvt?relay,0203H
        PUBLIC ??ZDApp_SaveNwkKey?relay
        FUNCTION ??ZDApp_SaveNwkKey?relay,0203H
        PUBLIC ??ZDApp_SecInit?relay
        FUNCTION ??ZDApp_SecInit?relay,0203H
        PUBLIC ??ZDApp_SendEventMsg?relay
        FUNCTION ??ZDApp_SendEventMsg?relay,0203H
        PUBLIC ??ZDApp_SendMsg?relay
        FUNCTION ??ZDApp_SendMsg?relay,0203H
        PUBLIC ??ZDApp_StartJoiningCycle?relay
        FUNCTION ??ZDApp_StartJoiningCycle?relay,0203H
        PUBLIC ??ZDApp_StopJoiningCycle?relay
        FUNCTION ??ZDApp_StopJoiningCycle?relay,0203H
        PUBLIC ??ZDApp_event_loop?relay
        FUNCTION ??ZDApp_event_loop?relay,0203H
        PUBLIC ??ZDOInitDevice?relay
        FUNCTION ??ZDOInitDevice?relay,0203H
        PUBLIC ??ZDO_AddrChangeIndicationCB?relay
        FUNCTION ??ZDO_AddrChangeIndicationCB?relay,0203H
        PUBLIC ??ZDO_ConcentratorIndicationCB?relay
        FUNCTION ??ZDO_ConcentratorIndicationCB?relay,0203H
        PUBLIC ??ZDO_JoinConfirmCB?relay
        FUNCTION ??ZDO_JoinConfirmCB?relay,0203H
        PUBLIC ??ZDO_JoinIndicationCB?relay
        FUNCTION ??ZDO_JoinIndicationCB?relay,0203H
        PUBLIC ??ZDO_LeaveCnf?relay
        FUNCTION ??ZDO_LeaveCnf?relay,0203H
        PUBLIC ??ZDO_LeaveInd?relay
        FUNCTION ??ZDO_LeaveInd?relay,0203H
        PUBLIC ??ZDO_ManytoOneFailureIndicationCB?relay
        FUNCTION ??ZDO_ManytoOneFailureIndicationCB?relay,0203H
        PUBLIC ??ZDO_NetworkDiscoveryConfirmCB?relay
        FUNCTION ??ZDO_NetworkDiscoveryConfirmCB?relay,0203H
        PUBLIC ??ZDO_NetworkFormationConfirmCB?relay
        FUNCTION ??ZDO_NetworkFormationConfirmCB?relay,0203H
        PUBLIC ??ZDO_PollConfirmCB?relay
        FUNCTION ??ZDO_PollConfirmCB?relay,0203H
        PUBLIC ??ZDO_RegisterForZdoCB?relay
        FUNCTION ??ZDO_RegisterForZdoCB?relay,0203H
        PUBLIC ??ZDO_SrcRtgIndCB?relay
        FUNCTION ??ZDO_SrcRtgIndCB?relay,0203H
        PUBLIC ??ZDO_StartRouterConfirmCB?relay
        FUNCTION ??ZDO_StartRouterConfirmCB?relay,0203H
        PUBLIC ??ZDO_SyncIndicationCB?relay
        FUNCTION ??ZDO_SyncIndicationCB?relay,0203H
        PUBLIC ??ZDO_UpdateDeviceIndication?relay
        FUNCTION ??ZDO_UpdateDeviceIndication?relay,0203H
        PUBLIC AddrMgrWriteNVRequest
        FUNCTION AddrMgrWriteNVRequest,0203H
        ARGFRAME XSTACK, 0, STACK
        PUBLIC MatchRsps
        PUBLIC ZDAppCheckForHoldKey
        FUNCTION ZDAppCheckForHoldKey,021203H
        ARGFRAME XSTACK, 0, STACK
        ARGFRAME IOVERLAY, 0, STATIC
        ARGFRAME DOVERLAY, 0, STATIC
        LOCFRAME ISTACK, 2, STACK
        PUBLIC ZDAppDetermineDeviceType
        FUNCTION ZDAppDetermineDeviceType,021203H
        ARGFRAME XSTACK, 12, STACK
        ARGFRAME IOVERLAY, 0, STATIC
        ARGFRAME DOVERLAY, 0, STATIC
        LOCFRAME ISTACK, 2, STACK
        PUBLIC ZDAppNwkAddr
        PUBLIC ZDAppTaskID
        PUBLIC ZDApp_AnnounceNewAddress
        FUNCTION ZDApp_AnnounceNewAddress,021203H
        ARGFRAME XSTACK, 12, STACK
        ARGFRAME IOVERLAY, 0, STATIC
        ARGFRAME DOVERLAY, 0, STATIC
        LOCFRAME XSTACK, 11, STACK
        PUBLIC ZDApp_AutoFindMode_epDesc
        PUBLIC ZDApp_ChangeMatchDescRespPermission
        FUNCTION ZDApp_ChangeMatchDescRespPermission,021203H
        ARGFRAME XSTACK, 0, STACK
        LOCFRAME ISTACK, 2, STACK
        PUBLIC ZDApp_CoordStartPANIDConflictCB
        FUNCTION ZDApp_CoordStartPANIDConflictCB,0203H
        ARGFRAME XSTACK, 0, STACK
        PUBLIC ZDApp_DeviceAuthEvt
        FUNCTION ZDApp_DeviceAuthEvt,021203H
        ARGFRAME XSTACK, 9, STACK
        ARGFRAME IOVERLAY, 0, STATIC
        ARGFRAME DOVERLAY, 0, STATIC
        LOCFRAME ISTACK, 2, STACK
        PUBLIC ZDApp_InMsgCB
        FUNCTION ZDApp_InMsgCB,021203H
        ARGFRAME XSTACK, 0, STACK
        LOCFRAME XSTACK, 14, STACK
        PUBLIC ZDApp_Init
        FUNCTION ZDApp_Init,021203H
        ARGFRAME XSTACK, 0, STACK
        LOCFRAME ISTACK, 2, STACK
        PUBLIC ZDApp_InitUserDesc
        FUNCTION ZDApp_InitUserDesc,021203H
        ARGFRAME XSTACK, 0, STACK
        ARGFRAME IOVERLAY, 0, STATIC
        ARGFRAME DOVERLAY, 0, STATIC
        LOCFRAME XSTACK, 31, STACK
        PUBLIC ZDApp_LeaveCtrl
        PUBLIC ZDApp_LeaveCtrlBypass
        FUNCTION ZDApp_LeaveCtrlBypass,0203H
        ARGFRAME XSTACK, 0, STACK
        LOCFRAME ISTACK, 2, STACK
        PUBLIC ZDApp_LeaveCtrlInit
        FUNCTION ZDApp_LeaveCtrlInit,021203H
        ARGFRAME XSTACK, 12, STACK
        ARGFRAME IOVERLAY, 0, STATIC
        ARGFRAME DOVERLAY, 0, STATIC
        LOCFRAME XSTACK, 14, STACK
        PUBLIC ZDApp_LeaveCtrlSet
        FUNCTION ZDApp_LeaveCtrlSet,021203H
        ARGFRAME XSTACK, 0, STACK
        ARGFRAME IOVERLAY, 0, STATIC
        ARGFRAME DOVERLAY, 0, STATIC
        LOCFRAME XSTACK, 14, STACK
        PUBLIC ZDApp_LeaveCtrlStartup
        FUNCTION ZDApp_LeaveCtrlStartup,021203H
        ARGFRAME XSTACK, 12, STACK
        ARGFRAME IOVERLAY, 0, STATIC
        ARGFRAME DOVERLAY, 0, STATIC
        LOCFRAME ISTACK, 1, STACK
        LOCFRAME XSTACK, 14, STACK
        PUBLIC ZDApp_LeaveReset
        FUNCTION ZDApp_LeaveReset,021203H
        ARGFRAME XSTACK, 10, STACK
        ARGFRAME IOVERLAY, 0, STATIC
        ARGFRAME DOVERLAY, 0, STATIC
        LOCFRAME ISTACK, 2, STACK
        PUBLIC ZDApp_LeaveUpdate
        FUNCTION ZDApp_LeaveUpdate,0203H
        ARGFRAME XSTACK, 0, STACK
        PUBLIC ZDApp_NVUpdate
        FUNCTION ZDApp_NVUpdate,0203H
        ARGFRAME XSTACK, 0, STACK
        PUBLIC ZDApp_NetworkInit
        FUNCTION ZDApp_NetworkInit,021203H
        ARGFRAME XSTACK, 16, STACK
        ARGFRAME IOVERLAY, 0, STATIC
        ARGFRAME DOVERLAY, 0, STATIC
        LOCFRAME ISTACK, 2, STACK
        PUBLIC ZDApp_NetworkStartEvt
        FUNCTION ZDApp_NetworkStartEvt,021203H
        ARGFRAME XSTACK, 0, STACK
        LOCFRAME ISTACK, 2, STACK
        PUBLIC ZDApp_NodeProfileSync
        FUNCTION ZDApp_NodeProfileSync,021203H
        ARGFRAME XSTACK, 16, STACK
        ARGFRAME IOVERLAY, 0, STATIC
        ARGFRAME DOVERLAY, 0, STATIC
        LOCFRAME XSTACK, 10, STACK
        PUBLIC ZDApp_NwkStateUpdateCB
        FUNCTION ZDApp_NwkStateUpdateCB,021203H
        ARGFRAME XSTACK, 0, STACK
        LOCFRAME ISTACK, 2, STACK
        PUBLIC ZDApp_ProcessMsgCBs
        FUNCTION ZDApp_ProcessMsgCBs,0a1203H
        ARGFRAME XSTACK, 16, STACK
        ARGFRAME IOVERLAY, 0, STATIC
        ARGFRAME DOVERLAY, 0, STATIC
        LOCFRAME XSTACK, 31, STACK
        PUBLIC ZDApp_ProcessNetworkJoin
        FUNCTION ZDApp_ProcessNetworkJoin,021203H
        ARGFRAME XSTACK, 16, STACK
        ARGFRAME IOVERLAY, 0, STATIC
        ARGFRAME DOVERLAY, 0, STATIC
        LOCFRAME XSTACK, 12, STACK
        PUBLIC ZDApp_ProcessOSALMsg
        FUNCTION ZDApp_ProcessOSALMsg,0a1203H
        ARGFRAME XSTACK, 10, STACK
        ARGFRAME IOVERLAY, 0, STATIC
        ARGFRAME DOVERLAY, 0, STATIC
        LOCFRAME ISTACK, 1, STACK
        LOCFRAME XSTACK, 17, STACK
        PUBLIC ZDApp_ProcessSecEvent
        FUNCTION ZDApp_ProcessSecEvent,021203H
        ARGFRAME XSTACK, 0, STACK
        LOCFRAME XSTACK, 9, STACK
        PUBLIC ZDApp_ProcessSecMsg
        FUNCTION ZDApp_ProcessSecMsg,0a1203H
        ARGFRAME XSTACK, 0, STACK
        LOCFRAME ISTACK, 2, STACK
        PUBLIC ZDApp_ReadNetworkRestoreState
        FUNCTION ZDApp_ReadNetworkRestoreState,021203H
        ARGFRAME XSTACK, 0, STACK
        LOCFRAME XSTACK, 9, STACK
        PUBLIC ZDApp_RegisterCBs
        FUNCTION ZDApp_RegisterCBs,021203H
        ARGFRAME XSTACK, 0, STACK
        ARGFRAME IOVERLAY, 0, STATIC
        ARGFRAME DOVERLAY, 0, STATIC
        LOCFRAME ISTACK, 2, STACK
        PUBLIC ZDApp_ResetNwkKey
        FUNCTION ZDApp_ResetNwkKey,021203H
        ARGFRAME XSTACK, 0, STACK
        LOCFRAME XSTACK, 35, STACK
        PUBLIC ZDApp_ResetTimerCancel
        FUNCTION ZDApp_ResetTimerCancel,021203H
        ARGFRAME XSTACK, 0, STACK
        ARGFRAME IOVERLAY, 0, STATIC
        ARGFRAME DOVERLAY, 0, STATIC
        LOCFRAME ISTACK, 2, STACK
        PUBLIC ZDApp_ResetTimerStart
        FUNCTION ZDApp_ResetTimerStart,021203H
        ARGFRAME XSTACK, 0, STACK
        ARGFRAME IOVERLAY, 0, STATIC
        ARGFRAME DOVERLAY, 0, STATIC
        LOCFRAME ISTACK, 2, STACK
        PUBLIC ZDApp_RestoreNetworkState
        FUNCTION ZDApp_RestoreNetworkState,021203H
        ARGFRAME XSTACK, 0, STACK
        LOCFRAME XSTACK, 9, STACK
        PUBLIC ZDApp_RestoreNwkKey
        FUNCTION ZDApp_RestoreNwkKey,021203H
        ARGFRAME XSTACK, 0, STACK
        LOCFRAME ISTACK, 2, STACK
        LOCFRAME XSTACK, 37, STACK
        PUBLIC ZDApp_SaveNetworkStateEvt
        FUNCTION ZDApp_SaveNetworkStateEvt,0203H
        ARGFRAME XSTACK, 0, STACK
        PUBLIC ZDApp_SaveNwkKey
        FUNCTION ZDApp_SaveNwkKey,021203H
        ARGFRAME XSTACK, 9, STACK
        ARGFRAME IOVERLAY, 0, STATIC
        ARGFRAME DOVERLAY, 0, STATIC
        LOCFRAME XSTACK, 37, STACK
        PUBLIC ZDApp_SavedPollRate
        PUBLIC ZDApp_SecInit
        FUNCTION ZDApp_SecInit,021203H
        ARGFRAME XSTACK, 0, STACK
        LOCFRAME ISTACK, 2, STACK
        PUBLIC ZDApp_SendEventMsg
        FUNCTION ZDApp_SendEventMsg,021203H
        ARGFRAME XSTACK, 0, STACK
        LOCFRAME ISTACK, 2, STACK
        PUBLIC ZDApp_SendMsg
        FUNCTION ZDApp_SendMsg,021203H
        ARGFRAME XSTACK, 32, STACK
        ARGFRAME IOVERLAY, 0, STATIC
        ARGFRAME DOVERLAY, 0, STATIC
        LOCFRAME ISTACK, 1, STACK
        LOCFRAME XSTACK, 23, STACK
        PUBLIC ZDApp_StartJoiningCycle
        FUNCTION ZDApp_StartJoiningCycle,021203H
        ARGFRAME XSTACK, 0, STACK
        LOCFRAME ISTACK, 2, STACK
        PUBLIC ZDApp_StopJoiningCycle
        FUNCTION ZDApp_StopJoiningCycle,0203H
        ARGFRAME XSTACK, 0, STACK
        LOCFRAME ISTACK, 2, STACK
        PUBLIC ZDApp_epDesc
        PUBLIC ZDApp_event_loop
        FUNCTION ZDApp_event_loop,021203H
        ARGFRAME XSTACK, 0, STACK
        LOCFRAME XSTACK, 10, STACK
        PUBLIC ZDOInitDevice
        FUNCTION ZDOInitDevice,021203H
        ARGFRAME XSTACK, 0, STACK
        ARGFRAME IOVERLAY, 0, STATIC
        ARGFRAME DOVERLAY, 0, STATIC
        LOCFRAME XSTACK, 12, STACK
        PUBLIC ZDO_AddrChangeIndicationCB
        FUNCTION ZDO_AddrChangeIndicationCB,021203H
        ARGFRAME XSTACK, 0, STACK
        LOCFRAME ISTACK, 2, STACK
        PUBLIC ZDO_ConcentratorIndicationCB
        FUNCTION ZDO_ConcentratorIndicationCB,0203H
        ARGFRAME XSTACK, 0, STACK
        LOCFRAME ISTACK, 3, STACK
        LOCFRAME XSTACK, 5, STACK
        PUBLIC ZDO_JoinConfirmCB
        FUNCTION ZDO_JoinConfirmCB,021203H
        ARGFRAME XSTACK, 0, STACK
        LOCFRAME ISTACK, 2, STACK
        PUBLIC ZDO_JoinIndicationCB
        FUNCTION ZDO_JoinIndicationCB,0203H
        ARGFRAME XSTACK, 1, STACK
        PUBLIC ZDO_LeaveCnf
        FUNCTION ZDO_LeaveCnf,021203H
        ARGFRAME XSTACK, 0, STACK
        LOCFRAME XSTACK, 9, STACK
        PUBLIC ZDO_LeaveInd
        FUNCTION ZDO_LeaveInd,021203H
        ARGFRAME XSTACK, 0, STACK
        LOCFRAME XSTACK, 10, STACK
        PUBLIC ZDO_ManytoOneFailureIndicationCB
        FUNCTION ZDO_ManytoOneFailureIndicationCB,021203H
        ARGFRAME XSTACK, 0, STACK
        LOCFRAME ISTACK, 2, STACK
        PUBLIC ZDO_NetworkDiscoveryConfirmCB
        FUNCTION ZDO_NetworkDiscoveryConfirmCB,021203H
        ARGFRAME XSTACK, 0, STACK
        LOCFRAME ISTACK, 1, STACK
        LOCFRAME XSTACK, 32, STACK
        PUBLIC ZDO_NetworkFormationConfirmCB
        FUNCTION ZDO_NetworkFormationConfirmCB,021203H
        ARGFRAME XSTACK, 0, STACK
        LOCFRAME ISTACK, 2, STACK
        PUBLIC ZDO_PollConfirmCB
        FUNCTION ZDO_PollConfirmCB,0203H
        ARGFRAME XSTACK, 0, STACK
        PUBLIC ZDO_RegisterForZdoCB
        FUNCTION ZDO_RegisterForZdoCB,0203H
        ARGFRAME XSTACK, 0, STACK
        LOCFRAME ISTACK, 2, STACK
        PUBLIC ZDO_SrcRtgIndCB
        FUNCTION ZDO_SrcRtgIndCB,0203H
        ARGFRAME XSTACK, 0, STACK
        LOCFRAME ISTACK, 3, STACK
        LOCFRAME XSTACK, 5, STACK
        PUBLIC ZDO_StartRouterConfirmCB
        FUNCTION ZDO_StartRouterConfirmCB,021203H
        ARGFRAME XSTACK, 0, STACK
        LOCFRAME ISTACK, 2, STACK
        PUBLIC ZDO_SyncIndicationCB
        FUNCTION ZDO_SyncIndicationCB,021203H
        ARGFRAME XSTACK, 0, STACK
        LOCFRAME ISTACK, 2, STACK
        PUBLIC ZDO_UpdateDeviceIndication
        FUNCTION ZDO_UpdateDeviceIndication,0203H
        ARGFRAME XSTACK, 0, STACK
        PUBLIC ZDO_UseExtendedPANID
        PUBWEAK __Constant_0
        PUBWEAK __Constant_1
        PUBWEAK __Constant_3e8
        PUBLIC _tmpRejoinState
        PUBLIC continueJoining
        PUBLIC devStartMode
        PUBLIC devState
        PUBLIC nwkFrameCounterChanges
        PUBLIC nwkStatus
        PUBLIC retryCnt
        PUBLIC zdappMgmtNwkDiscReqInProgress
        PUBLIC zdappMgmtNwkDiscRspAddr
        PUBLIC zdappMgmtNwkDiscRspTransSeq
        PUBLIC zdappMgmtNwkDiscStartIndex
        PUBLIC zdappMgmtSavedNwkState
        PUBLIC zdoCBFunc
        PUBLIC zdoDiscCounter
        
        CFI Names cfiNames0
        CFI StackFrame CFA_SP SP IDATA
        CFI StackFrame CFA_PSP16 PSP16 XDATA
        CFI StackFrame CFA_XSP16 XSP16 XDATA
        CFI StaticOverlayFrame CFA_IOVERLAY IOVERLAY
        CFI StaticOverlayFrame CFA_DOVERLAY DOVERLAY
        CFI Resource `PSW.CY`:1, `B.BR0`:1, `B.BR1`:1, `B.BR2`:1, `B.BR3`:1
        CFI Resource `B.BR4`:1, `B.BR5`:1, `B.BR6`:1, `B.BR7`:1, `VB.BR8`:1
        CFI Resource `VB.BR9`:1, `VB.BR10`:1, `VB.BR11`:1, `VB.BR12`:1
        CFI Resource `VB.BR13`:1, `VB.BR14`:1, `VB.BR15`:1, VB:8, B:8, A:8
        CFI Resource PSW:8, DPL0:8, DPH0:8, R0:8, R1:8, R2:8, R3:8, R4:8, R5:8
        CFI Resource R6:8, R7:8, V0:8, V1:8, V2:8, V3:8, V4:8, V5:8, V6:8, V7:8
        CFI Resource V8:8, V9:8, V10:8, V11:8, V12:8, V13:8, V14:8, V15:8, SP:8
        CFI Resource PSPH:8, PSPL:8, PSP16:16, XSPH:8, XSPL:8, XSP16:16
        CFI VirtualResource ?RET:24
        CFI Resource ?BRET_EXT:8
        CFI VirtualResource ?RET_HIGH:8, ?RET_LOW:8
        CFI ResourceParts PSP16 PSPH, PSPL
        CFI ResourceParts XSP16 XSPH, XSPL
        CFI ResourceParts ?RET ?BRET_EXT, ?RET_HIGH, ?RET_LOW
        CFI EndNames cfiNames0
        
        CFI Common cfiCommon0 Using cfiNames0
        CFI CodeAlign 1
        CFI DataAlign -1
        CFI ReturnAddress ?RET CODE
        CFI CFA_DOVERLAY Used
        CFI CFA_IOVERLAY Used
        CFI CFA_SP SP+-3
        CFI CFA_PSP16 PSP16+0
        CFI CFA_XSP16 XSP16+0
        CFI `PSW.CY` SameValue
        CFI `B.BR0` SameValue
        CFI `B.BR1` SameValue
        CFI `B.BR2` SameValue
        CFI `B.BR3` SameValue
        CFI `B.BR4` SameValue
        CFI `B.BR5` SameValue
        CFI `B.BR6` SameValue
        CFI `B.BR7` SameValue
        CFI `VB.BR8` SameValue
        CFI `VB.BR9` SameValue
        CFI `VB.BR10` SameValue
        CFI `VB.BR11` SameValue
        CFI `VB.BR12` SameValue
        CFI `VB.BR13` SameValue
        CFI `VB.BR14` SameValue
        CFI `VB.BR15` SameValue
        CFI VB SameValue
        CFI B Undefined
        CFI A Undefined
        CFI PSW SameValue
        CFI DPL0 SameValue
        CFI DPH0 SameValue
        CFI R0 Undefined
        CFI R1 Undefined
        CFI R2 Undefined
        CFI R3 Undefined
        CFI R4 Undefined
        CFI R5 Undefined
        CFI R6 SameValue
        CFI R7 SameValue
        CFI V0 SameValue
        CFI V1 SameValue
        CFI V2 SameValue
        CFI V3 SameValue
        CFI V4 SameValue
        CFI V5 SameValue
        CFI V6 SameValue
        CFI V7 SameValue
        CFI V8 SameValue
        CFI V9 SameValue
        CFI V10 SameValue
        CFI V11 SameValue
        CFI V12 SameValue
        CFI V13 SameValue
        CFI V14 SameValue
        CFI V15 SameValue
        CFI PSPH Undefined
        CFI PSPL Undefined
        CFI XSPH Undefined
        CFI XSPL Undefined
        CFI ?RET Concat
        CFI ?BRET_EXT Frame(CFA_SP, 3)
        CFI ?RET_HIGH Frame(CFA_SP, 2)
        CFI ?RET_LOW Frame(CFA_SP, 1)
        CFI EndCommon cfiCommon0
        
        
        CFI Common cfiCommon1 Using cfiNames0
        CFI CodeAlign 1
        CFI DataAlign -1
        CFI ReturnAddress ?RET CODE
        CFI CFA_DOVERLAY Used
        CFI CFA_IOVERLAY Used
        CFI CFA_SP SP+-2
        CFI CFA_PSP16 PSP16+0
        CFI CFA_XSP16 XSP16+0
        CFI `PSW.CY` SameValue
        CFI `B.BR0` SameValue
        CFI `B.BR1` SameValue
        CFI `B.BR2` SameValue
        CFI `B.BR3` SameValue
        CFI `B.BR4` SameValue
        CFI `B.BR5` SameValue
        CFI `B.BR6` SameValue
        CFI `B.BR7` SameValue
        CFI `VB.BR8` SameValue
        CFI `VB.BR9` SameValue
        CFI `VB.BR10` SameValue
        CFI `VB.BR11` SameValue
        CFI `VB.BR12` SameValue
        CFI `VB.BR13` SameValue
        CFI `VB.BR14` SameValue
        CFI `VB.BR15` SameValue
        CFI VB SameValue
        CFI B SameValue
        CFI A SameValue
        CFI PSW SameValue
        CFI DPL0 SameValue
        CFI DPH0 SameValue
        CFI R0 SameValue
        CFI R1 SameValue
        CFI R2 SameValue
        CFI R3 SameValue
        CFI R4 SameValue
        CFI R5 SameValue
        CFI R6 SameValue
        CFI R7 SameValue
        CFI V0 SameValue
        CFI V1 SameValue
        CFI V2 SameValue
        CFI V3 SameValue
        CFI V4 SameValue
        CFI V5 SameValue
        CFI V6 SameValue
        CFI V7 SameValue
        CFI V8 SameValue
        CFI V9 SameValue
        CFI V10 SameValue
        CFI V11 SameValue
        CFI V12 SameValue
        CFI V13 SameValue
        CFI V14 SameValue
        CFI V15 SameValue
        CFI PSPH Undefined
        CFI PSPL Undefined
        CFI XSPH Undefined
        CFI XSPL Undefined
        CFI ?RET Concat
        CFI ?BRET_EXT SameValue
        CFI ?RET_HIGH Frame(CFA_SP, 2)
        CFI ?RET_LOW Frame(CFA_SP, 1)
        CFI EndCommon cfiCommon1
        
NLME_GetExtAddr     SYMBOL "NLME_GetExtAddr"
ZDO_Init            SYMBOL "ZDO_Init"
afRegister          SYMBOL "afRegister"
HalLedBlink         SYMBOL "HalLedBlink"
ZDSecMgrInit        SYMBOL "ZDSecMgrInit"
ZDO_StartDevice     SYMBOL "ZDO_StartDevice"
osal_msg_deallocate SYMBOL "osal_msg_deallocate"
osal_msg_receive    SYMBOL "osal_msg_receive"
ZDO_UpdateNwkStatus SYMBOL "ZDO_UpdateNwkStatus"
osal_start_timerEx  SYMBOL "osal_start_timerEx"
ZDSecMgrSaveTCLinkKey SYMBOL "ZDSecMgrSaveTCLinkKey"
zgInitItems         SYMBOL "zgInitItems"
ZDConfig_InitDescriptors SYMBOL "ZDConfig_InitDescriptors"
zgWriteStartupOptions SYMBOL "zgWriteStartupOptions"
osal_set_event      SYMBOL "osal_set_event"
osal_rand           SYMBOL "osal_rand"
NLME_SetBroadcastFilter SYMBOL "NLME_SetBroadcastFilter"
zgReadStartupOptions SYMBOL "zgReadStartupOptions"
nwk_ExtPANIDValid   SYMBOL "nwk_ExtPANIDValid"
osal_pwrmgr_device  SYMBOL "osal_pwrmgr_device"
NLME_GetEnergyThreshold SYMBOL "NLME_GetEnergyThreshold"
NLME_SetEnergyThreshold SYMBOL "NLME_SetEnergyThreshold"
NLME_SetPollRate    SYMBOL "NLME_SetPollRate"
NLME_InitNV         SYMBOL "NLME_InitNV"
NLME_RestoreFromNV  SYMBOL "NLME_RestoreFromNV"
NLME_GetShortAddr   SYMBOL "NLME_GetShortAddr"
sAddrExtCpy         SYMBOL "sAddrExtCpy"
osal_memset         SYMBOL "osal_memset"
osal_nv_item_init   SYMBOL "osal_nv_item_init"
osal_nv_read        SYMBOL "osal_nv_read"
HalKeyRead          SYMBOL "HalKeyRead"
ZDP_IncomingData    SYMBOL "ZDP_IncomingData"
NLME_JoinRequest    SYMBOL "NLME_JoinRequest"
ZMacSetReq          SYMBOL "ZMacSetReq"
NLME_ReJoinRequest  SYMBOL "NLME_ReJoinRequest"
NLME_SetQueuedPollRate SYMBOL "NLME_SetQueuedPollRate"
NLME_SetResponseRate SYMBOL "NLME_SetResponseRate"
ZDO_ParseAddrRsp    SYMBOL "ZDO_ParseAddrRsp"
ZDO_UpdateAddrManager SYMBOL "ZDO_UpdateAddrManager"
osal_mem_free       SYMBOL "osal_mem_free"
ZDO_ParseBindUnbindReq SYMBOL "ZDO_ParseBindUnbindReq"
ZDO_ProcessBindUnbindReq SYMBOL "ZDO_ProcessBindUnbindReq"
ZDO_RegisterForZDOMsg SYMBOL "ZDO_RegisterForZDOMsg"
ZDSecMgrTransportKeyInd SYMBOL "ZDSecMgrTransportKeyInd"
ZDSecMgrSwitchKeyInd SYMBOL "ZDSecMgrSwitchKeyInd"
nwkNeighborInitTable SYMBOL "nwkNeighborInitTable"
NLME_NwkDiscTerm    SYMBOL "NLME_NwkDiscTerm"
SSP_ReadNwkActiveKey SYMBOL "SSP_ReadNwkActiveKey"
osal_nv_write       SYMBOL "osal_nv_write"
osal_stop_timerEx   SYMBOL "osal_stop_timerEx"
osal_msg_allocate   SYMBOL "osal_msg_allocate"
osal_memcpy         SYMBOL "osal_memcpy"
osal_msg_send       SYMBOL "osal_msg_send"
sAddrExtCmp         SYMBOL "sAddrExtCmp"
HalLedSet           SYMBOL "HalLedSet"
NLME_GetCoordShortAddr SYMBOL "NLME_GetCoordShortAddr"
RTG_MTORouteReq     SYMBOL "RTG_MTORouteReq"
ZDP_GenericRsp      SYMBOL "ZDP_GenericRsp"
afSetMatch          SYMBOL "afSetMatch"
osal_get_timeoutEx  SYMBOL "osal_get_timeoutEx"
nwk_getNetworkDesc  SYMBOL "nwk_getNetworkDesc"
ZDP_DeviceAnnce     SYMBOL "ZDP_DeviceAnnce"
??HalKeyRead?relay  SYMBOL "?relay", HalKeyRead
??HalLedBlink?relay SYMBOL "?relay", HalLedBlink
??HalLedSet?relay   SYMBOL "?relay", HalLedSet
??NLME_GetCoordShortAddr?relay SYMBOL "?relay", NLME_GetCoordShortAddr
??NLME_GetEnergyThreshold?relay SYMBOL "?relay", NLME_GetEnergyThreshold
??NLME_GetExtAddr?relay SYMBOL "?relay", NLME_GetExtAddr
??NLME_GetShortAddr?relay SYMBOL "?relay", NLME_GetShortAddr
??NLME_InitNV?relay SYMBOL "?relay", NLME_InitNV
??NLME_JoinRequest?relay SYMBOL "?relay", NLME_JoinRequest
??NLME_NwkDiscTerm?relay SYMBOL "?relay", NLME_NwkDiscTerm
??NLME_ReJoinRequest?relay SYMBOL "?relay", NLME_ReJoinRequest
??NLME_RestoreFromNV?relay SYMBOL "?relay", NLME_RestoreFromNV
??NLME_SetBroadcastFilter?relay SYMBOL "?relay", NLME_SetBroadcastFilter
??NLME_SetEnergyThreshold?relay SYMBOL "?relay", NLME_SetEnergyThreshold
??NLME_SetPollRate?relay SYMBOL "?relay", NLME_SetPollRate
??NLME_SetQueuedPollRate?relay SYMBOL "?relay", NLME_SetQueuedPollRate
??NLME_SetResponseRate?relay SYMBOL "?relay", NLME_SetResponseRate
??RTG_MTORouteReq?relay SYMBOL "?relay", RTG_MTORouteReq
??SSP_ReadNwkActiveKey?relay SYMBOL "?relay", SSP_ReadNwkActiveKey
??ZDConfig_InitDescriptors?relay SYMBOL "?relay", ZDConfig_InitDescriptors
??ZDO_Init?relay    SYMBOL "?relay", ZDO_Init
??ZDO_ParseAddrRsp?relay SYMBOL "?relay", ZDO_ParseAddrRsp
??ZDO_ParseBindUnbindReq?relay SYMBOL "?relay", ZDO_ParseBindUnbindReq
??ZDO_ProcessBindUnbindReq?relay SYMBOL "?relay", ZDO_ProcessBindUnbindReq
??ZDO_RegisterForZDOMsg?relay SYMBOL "?relay", ZDO_RegisterForZDOMsg
??ZDO_StartDevice?relay SYMBOL "?relay", ZDO_StartDevice
??ZDO_UpdateAddrManager?relay SYMBOL "?relay", ZDO_UpdateAddrManager
??ZDO_UpdateNwkStatus?relay SYMBOL "?relay", ZDO_UpdateNwkStatus
??ZDP_DeviceAnnce?relay SYMBOL "?relay", ZDP_DeviceAnnce
??ZDP_GenericRsp?relay SYMBOL "?relay", ZDP_GenericRsp
??ZDP_IncomingData?relay SYMBOL "?relay", ZDP_IncomingData
??ZDSecMgrInit?relay SYMBOL "?relay", ZDSecMgrInit
??ZDSecMgrSaveTCLinkKey?relay SYMBOL "?relay", ZDSecMgrSaveTCLinkKey
??ZDSecMgrSwitchKeyInd?relay SYMBOL "?relay", ZDSecMgrSwitchKeyInd
??ZDSecMgrTransportKeyInd?relay SYMBOL "?relay", ZDSecMgrTransportKeyInd
??ZMacSetReq?relay  SYMBOL "?relay", ZMacSetReq
??afRegister?relay  SYMBOL "?relay", afRegister
??afSetMatch?relay  SYMBOL "?relay", afSetMatch
??nwkNeighborInitTable?relay SYMBOL "?relay", nwkNeighborInitTable
??nwk_ExtPANIDValid?relay SYMBOL "?relay", nwk_ExtPANIDValid
??nwk_getNetworkDesc?relay SYMBOL "?relay", nwk_getNetworkDesc
??osal_get_timeoutEx?relay SYMBOL "?relay", osal_get_timeoutEx
??osal_mem_free?relay SYMBOL "?relay", osal_mem_free
??osal_memcpy?relay SYMBOL "?relay", osal_memcpy
??osal_memset?relay SYMBOL "?relay", osal_memset
??osal_msg_allocate?relay SYMBOL "?relay", osal_msg_allocate
??osal_msg_deallocate?relay SYMBOL "?relay", osal_msg_deallocate
??osal_msg_receive?relay SYMBOL "?relay", osal_msg_receive
??osal_msg_send?relay SYMBOL "?relay", osal_msg_send
??osal_nv_item_init?relay SYMBOL "?relay", osal_nv_item_init
??osal_nv_read?relay SYMBOL "?relay", osal_nv_read
??osal_nv_write?relay SYMBOL "?relay", osal_nv_write
??osal_pwrmgr_device?relay SYMBOL "?relay", osal_pwrmgr_device
??osal_rand?relay   SYMBOL "?relay", osal_rand
??osal_set_event?relay SYMBOL "?relay", osal_set_event
??osal_start_timerEx?relay SYMBOL "?relay", osal_start_timerEx
??osal_stop_timerEx?relay SYMBOL "?relay", osal_stop_timerEx
??sAddrExtCmp?relay SYMBOL "?relay", sAddrExtCmp
??sAddrExtCpy?relay SYMBOL "?relay", sAddrExtCpy
??zgInitItems?relay SYMBOL "?relay", zgInitItems
??zgReadStartupOptions?relay SYMBOL "?relay", zgReadStartupOptions
??zgWriteStartupOptions?relay SYMBOL "?relay", zgWriteStartupOptions
AddrMgrWriteNVRequest SYMBOL "AddrMgrWriteNVRequest"
??AddrMgrWriteNVRequest?relay SYMBOL "?relay", AddrMgrWriteNVRequest
ZDAppCheckForHoldKey SYMBOL "ZDAppCheckForHoldKey"
??ZDAppCheckForHoldKey?relay SYMBOL "?relay", ZDAppCheckForHoldKey
ZDAppDetermineDeviceType SYMBOL "ZDAppDetermineDeviceType"
??ZDAppDetermineDeviceType?relay SYMBOL "?relay", ZDAppDetermineDeviceType
ZDApp_AnnounceNewAddress SYMBOL "ZDApp_AnnounceNewAddress"
??ZDApp_AnnounceNewAddress?relay SYMBOL "?relay", ZDApp_AnnounceNewAddress
ZDApp_ChangeMatchDescRespPermission SYMBOL "ZDApp_ChangeMatchDescRespPermission"
??ZDApp_ChangeMatchDescRespPermission?relay SYMBOL "?relay", ZDApp_ChangeMatchDescRespPermission
ZDApp_CoordStartPANIDConflictCB SYMBOL "ZDApp_CoordStartPANIDConflictCB"
??ZDApp_CoordStartPANIDConflictCB?relay SYMBOL "?relay", ZDApp_CoordStartPANIDConflictCB
ZDApp_DeviceAuthEvt SYMBOL "ZDApp_DeviceAuthEvt"
??ZDApp_DeviceAuthEvt?relay SYMBOL "?relay", ZDApp_DeviceAuthEvt
ZDApp_InMsgCB       SYMBOL "ZDApp_InMsgCB"
??ZDApp_InMsgCB?relay SYMBOL "?relay", ZDApp_InMsgCB
ZDApp_Init          SYMBOL "ZDApp_Init"
??ZDApp_Init?relay  SYMBOL "?relay", ZDApp_Init
ZDApp_InitUserDesc  SYMBOL "ZDApp_InitUserDesc"
??ZDApp_InitUserDesc?relay SYMBOL "?relay", ZDApp_InitUserDesc
ZDApp_LeaveCtrlBypass SYMBOL "ZDApp_LeaveCtrlBypass"
??ZDApp_LeaveCtrlBypass?relay SYMBOL "?relay", ZDApp_LeaveCtrlBypass
ZDApp_LeaveCtrlInit SYMBOL "ZDApp_LeaveCtrlInit"
??ZDApp_LeaveCtrlInit?relay SYMBOL "?relay", ZDApp_LeaveCtrlInit
ZDApp_LeaveCtrlSet  SYMBOL "ZDApp_LeaveCtrlSet"
??ZDApp_LeaveCtrlSet?relay SYMBOL "?relay", ZDApp_LeaveCtrlSet
ZDApp_LeaveCtrlStartup SYMBOL "ZDApp_LeaveCtrlStartup"
??ZDApp_LeaveCtrlStartup?relay SYMBOL "?relay", ZDApp_LeaveCtrlStartup
ZDApp_LeaveReset    SYMBOL "ZDApp_LeaveReset"
??ZDApp_LeaveReset?relay SYMBOL "?relay", ZDApp_LeaveReset
ZDApp_LeaveUpdate   SYMBOL "ZDApp_LeaveUpdate"
??ZDApp_LeaveUpdate?relay SYMBOL "?relay", ZDApp_LeaveUpdate
ZDApp_NVUpdate      SYMBOL "ZDApp_NVUpdate"
??ZDApp_NVUpdate?relay SYMBOL "?relay", ZDApp_NVUpdate
ZDApp_NetworkInit   SYMBOL "ZDApp_NetworkInit"
??ZDApp_NetworkInit?relay SYMBOL "?relay", ZDApp_NetworkInit
ZDApp_NetworkStartEvt SYMBOL "ZDApp_NetworkStartEvt"
??ZDApp_NetworkStartEvt?relay SYMBOL "?relay", ZDApp_NetworkStartEvt
ZDApp_NodeProfileSync SYMBOL "ZDApp_NodeProfileSync"
??ZDApp_NodeProfileSync?relay SYMBOL "?relay", ZDApp_NodeProfileSync
ZDApp_NwkStateUpdateCB SYMBOL "ZDApp_NwkStateUpdateCB"
??ZDApp_NwkStateUpdateCB?relay SYMBOL "?relay", ZDApp_NwkStateUpdateCB
ZDApp_ProcessMsgCBs SYMBOL "ZDApp_ProcessMsgCBs"
??ZDApp_ProcessMsgCBs?relay SYMBOL "?relay", ZDApp_ProcessMsgCBs
ZDApp_ProcessNetworkJoin SYMBOL "ZDApp_ProcessNetworkJoin"
??ZDApp_ProcessNetworkJoin?relay SYMBOL "?relay", ZDApp_ProcessNetworkJoin
ZDApp_ProcessOSALMsg SYMBOL "ZDApp_ProcessOSALMsg"
??ZDApp_ProcessOSALMsg?relay SYMBOL "?relay", ZDApp_ProcessOSALMsg
ZDApp_ProcessSecEvent SYMBOL "ZDApp_ProcessSecEvent"
??ZDApp_ProcessSecEvent?relay SYMBOL "?relay", ZDApp_ProcessSecEvent
ZDApp_ProcessSecMsg SYMBOL "ZDApp_ProcessSecMsg"
??ZDApp_ProcessSecMsg?relay SYMBOL "?relay", ZDApp_ProcessSecMsg
ZDApp_ReadNetworkRestoreState SYMBOL "ZDApp_ReadNetworkRestoreState"
??ZDApp_ReadNetworkRestoreState?relay SYMBOL "?relay", ZDApp_ReadNetworkRestoreState
ZDApp_RegisterCBs   SYMBOL "ZDApp_RegisterCBs"
??ZDApp_RegisterCBs?relay SYMBOL "?relay", ZDApp_RegisterCBs
ZDApp_ResetNwkKey   SYMBOL "ZDApp_ResetNwkKey"
??ZDApp_ResetNwkKey?relay SYMBOL "?relay", ZDApp_ResetNwkKey
ZDApp_ResetTimerCancel SYMBOL "ZDApp_ResetTimerCancel"
??ZDApp_ResetTimerCancel?relay SYMBOL "?relay", ZDApp_ResetTimerCancel
ZDApp_ResetTimerStart SYMBOL "ZDApp_ResetTimerStart"
??ZDApp_ResetTimerStart?relay SYMBOL "?relay", ZDApp_ResetTimerStart
ZDApp_RestoreNetworkState SYMBOL "ZDApp_RestoreNetworkState"
??ZDApp_RestoreNetworkState?relay SYMBOL "?relay", ZDApp_RestoreNetworkState
ZDApp_RestoreNwkKey SYMBOL "ZDApp_RestoreNwkKey"
??ZDApp_RestoreNwkKey?relay SYMBOL "?relay", ZDApp_RestoreNwkKey
ZDApp_SaveNetworkStateEvt SYMBOL "ZDApp_SaveNetworkStateEvt"
??ZDApp_SaveNetworkStateEvt?relay SYMBOL "?relay", ZDApp_SaveNetworkStateEvt
ZDApp_SaveNwkKey    SYMBOL "ZDApp_SaveNwkKey"
??ZDApp_SaveNwkKey?relay SYMBOL "?relay", ZDApp_SaveNwkKey
ZDApp_SecInit       SYMBOL "ZDApp_SecInit"
??ZDApp_SecInit?relay SYMBOL "?relay", ZDApp_SecInit
ZDApp_SendEventMsg  SYMBOL "ZDApp_SendEventMsg"
??ZDApp_SendEventMsg?relay SYMBOL "?relay", ZDApp_SendEventMsg
ZDApp_SendMsg       SYMBOL "ZDApp_SendMsg"
??ZDApp_SendMsg?relay SYMBOL "?relay", ZDApp_SendMsg
ZDApp_StartJoiningCycle SYMBOL "ZDApp_StartJoiningCycle"
??ZDApp_StartJoiningCycle?relay SYMBOL "?relay", ZDApp_StartJoiningCycle
ZDApp_StopJoiningCycle SYMBOL "ZDApp_StopJoiningCycle"
??ZDApp_StopJoiningCycle?relay SYMBOL "?relay", ZDApp_StopJoiningCycle
ZDApp_event_loop    SYMBOL "ZDApp_event_loop"
??ZDApp_event_loop?relay SYMBOL "?relay", ZDApp_event_loop
ZDOInitDevice       SYMBOL "ZDOInitDevice"
??ZDOInitDevice?relay SYMBOL "?relay", ZDOInitDevice
ZDO_AddrChangeIndicationCB SYMBOL "ZDO_AddrChangeIndicationCB"
??ZDO_AddrChangeIndicationCB?relay SYMBOL "?relay", ZDO_AddrChangeIndicationCB
ZDO_ConcentratorIndicationCB SYMBOL "ZDO_ConcentratorIndicationCB"
??ZDO_ConcentratorIndicationCB?relay SYMBOL "?relay", ZDO_ConcentratorIndicationCB
ZDO_JoinConfirmCB   SYMBOL "ZDO_JoinConfirmCB"
??ZDO_JoinConfirmCB?relay SYMBOL "?relay", ZDO_JoinConfirmCB
ZDO_JoinIndicationCB SYMBOL "ZDO_JoinIndicationCB"
??ZDO_JoinIndicationCB?relay SYMBOL "?relay", ZDO_JoinIndicationCB
ZDO_LeaveCnf        SYMBOL "ZDO_LeaveCnf"
??ZDO_LeaveCnf?relay SYMBOL "?relay", ZDO_LeaveCnf
ZDO_LeaveInd        SYMBOL "ZDO_LeaveInd"
??ZDO_LeaveInd?relay SYMBOL "?relay", ZDO_LeaveInd
ZDO_ManytoOneFailureIndicationCB SYMBOL "ZDO_ManytoOneFailureIndicationCB"
??ZDO_ManytoOneFailureIndicationCB?relay SYMBOL "?relay", ZDO_ManytoOneFailureIndicationCB
ZDO_NetworkDiscoveryConfirmCB SYMBOL "ZDO_NetworkDiscoveryConfirmCB"
??ZDO_NetworkDiscoveryConfirmCB?relay SYMBOL "?relay", ZDO_NetworkDiscoveryConfirmCB
ZDO_NetworkFormationConfirmCB SYMBOL "ZDO_NetworkFormationConfirmCB"
??ZDO_NetworkFormationConfirmCB?relay SYMBOL "?relay", ZDO_NetworkFormationConfirmCB
ZDO_PollConfirmCB   SYMBOL "ZDO_PollConfirmCB"
??ZDO_PollConfirmCB?relay SYMBOL "?relay", ZDO_PollConfirmCB
ZDO_RegisterForZdoCB SYMBOL "ZDO_RegisterForZdoCB"
??ZDO_RegisterForZdoCB?relay SYMBOL "?relay", ZDO_RegisterForZdoCB
ZDO_SrcRtgIndCB     SYMBOL "ZDO_SrcRtgIndCB"
??ZDO_SrcRtgIndCB?relay SYMBOL "?relay", ZDO_SrcRtgIndCB
ZDO_StartRouterConfirmCB SYMBOL "ZDO_StartRouterConfirmCB"
??ZDO_StartRouterConfirmCB?relay SYMBOL "?relay", ZDO_StartRouterConfirmCB
ZDO_SyncIndicationCB SYMBOL "ZDO_SyncIndicationCB"
??ZDO_SyncIndicationCB?relay SYMBOL "?relay", ZDO_SyncIndicationCB
ZDO_UpdateDeviceIndication SYMBOL "ZDO_UpdateDeviceIndication"
??ZDO_UpdateDeviceIndication?relay SYMBOL "?relay", ZDO_UpdateDeviceIndication

        EXTERN NLME_GetExtAddr
        FUNCTION NLME_GetExtAddr,0202H
        ARGFRAME ISTACK, 2, STACK
        ARGFRAME PSTACK, 0, STACK
        ARGFRAME XSTACK, 10, STACK
        ARGFRAME IOVERLAY, 0, STATIC
        ARGFRAME DOVERLAY, 0, STATIC
        EXTERN ZDO_Init
        FUNCTION ZDO_Init,0202H
        ARGFRAME ISTACK, 2, STACK
        ARGFRAME PSTACK, 0, STACK
        ARGFRAME XSTACK, 0, STACK
        ARGFRAME IOVERLAY, 0, STATIC
        ARGFRAME DOVERLAY, 0, STATIC
        EXTERN afRegister
        FUNCTION afRegister,0202H
        ARGFRAME ISTACK, 2, STACK
        ARGFRAME PSTACK, 0, STACK
        ARGFRAME XSTACK, 0, STACK
        ARGFRAME IOVERLAY, 0, STATIC
        ARGFRAME DOVERLAY, 0, STATIC
        EXTERN HalLedBlink
        FUNCTION HalLedBlink,0202H
        ARGFRAME ISTACK, 2, STACK
        ARGFRAME PSTACK, 0, STACK
        ARGFRAME XSTACK, 0, STACK
        ARGFRAME IOVERLAY, 0, STATIC
        ARGFRAME DOVERLAY, 0, STATIC
        EXTERN ZDSecMgrInit
        FUNCTION ZDSecMgrInit,0202H
        ARGFRAME ISTACK, 2, STACK
        ARGFRAME PSTACK, 0, STACK
        ARGFRAME XSTACK, 12, STACK
        ARGFRAME IOVERLAY, 0, STATIC
        ARGFRAME DOVERLAY, 0, STATIC
        EXTERN ZDO_StartDevice
        FUNCTION ZDO_StartDevice,0202H
        ARGFRAME ISTACK, 0, STACK
        ARGFRAME PSTACK, 0, STACK
        ARGFRAME XSTACK, 10, STACK
        ARGFRAME IOVERLAY, 0, STATIC
        ARGFRAME DOVERLAY, 0, STATIC
        EXTERN osal_msg_deallocate
        FUNCTION osal_msg_deallocate,0202H
        ARGFRAME ISTACK, 0, STACK
        ARGFRAME PSTACK, 0, STACK
        ARGFRAME XSTACK, 10, STACK
        ARGFRAME IOVERLAY, 0, STATIC
        ARGFRAME DOVERLAY, 0, STATIC
        EXTERN osal_msg_receive
        FUNCTION osal_msg_receive,0202H
        ARGFRAME ISTACK, 0, STACK
        ARGFRAME PSTACK, 0, STACK
        ARGFRAME XSTACK, 10, STACK
        ARGFRAME IOVERLAY, 0, STATIC
        ARGFRAME DOVERLAY, 0, STATIC
        EXTERN ZDO_UpdateNwkStatus
        FUNCTION ZDO_UpdateNwkStatus,0202H
        ARGFRAME ISTACK, 0, STACK
        ARGFRAME PSTACK, 0, STACK
        ARGFRAME XSTACK, 10, STACK
        ARGFRAME IOVERLAY, 0, STATIC
        ARGFRAME DOVERLAY, 0, STATIC
        EXTERN osal_start_timerEx
        FUNCTION osal_start_timerEx,0202H
        ARGFRAME ISTACK, 2, STACK
        ARGFRAME PSTACK, 0, STACK
        ARGFRAME XSTACK, 10, STACK
        ARGFRAME IOVERLAY, 0, STATIC
        ARGFRAME DOVERLAY, 0, STATIC
        EXTERN Onboard_soft_reset
        FUNCTION Onboard_soft_reset,0202H
        ARGFRAME ISTACK, 0, STACK
        ARGFRAME PSTACK, 0, STACK
        ARGFRAME XSTACK, 10, STACK
        ARGFRAME IOVERLAY, 0, STATIC
        ARGFRAME DOVERLAY, 0, STATIC
        EXTERN ZDSecMgrSaveTCLinkKey
        FUNCTION ZDSecMgrSaveTCLinkKey,0202H
        ARGFRAME ISTACK, 0, STACK
        ARGFRAME PSTACK, 0, STACK
        ARGFRAME XSTACK, 9, STACK
        ARGFRAME IOVERLAY, 0, STATIC
        ARGFRAME DOVERLAY, 0, STATIC
        EXTERN zgInitItems
        FUNCTION zgInitItems,0202H
        ARGFRAME ISTACK, 0, STACK
        ARGFRAME PSTACK, 0, STACK
        ARGFRAME XSTACK, 12, STACK
        ARGFRAME IOVERLAY, 0, STATIC
        ARGFRAME DOVERLAY, 0, STATIC
        EXTERN ZDConfig_InitDescriptors
        FUNCTION ZDConfig_InitDescriptors,0202H
        ARGFRAME ISTACK, 0, STACK
        ARGFRAME PSTACK, 0, STACK
        ARGFRAME XSTACK, 12, STACK
        ARGFRAME IOVERLAY, 0, STATIC
        ARGFRAME DOVERLAY, 0, STATIC
        EXTERN zgWriteStartupOptions
        FUNCTION zgWriteStartupOptions,0202H
        ARGFRAME ISTACK, 0, STACK
        ARGFRAME PSTACK, 0, STACK
        ARGFRAME XSTACK, 12, STACK
        ARGFRAME IOVERLAY, 0, STATIC
        ARGFRAME DOVERLAY, 0, STATIC
        EXTERN osal_set_event
        FUNCTION osal_set_event,0202H
        ARGFRAME ISTACK, 2, STACK
        ARGFRAME PSTACK, 0, STACK
        ARGFRAME XSTACK, 12, STACK
        ARGFRAME IOVERLAY, 0, STATIC
        ARGFRAME DOVERLAY, 0, STATIC
        EXTERN osal_rand
        FUNCTION osal_rand,0202H
        ARGFRAME ISTACK, 0, STACK
        ARGFRAME PSTACK, 0, STACK
        ARGFRAME XSTACK, 16, STACK
        ARGFRAME IOVERLAY, 0, STATIC
        ARGFRAME DOVERLAY, 0, STATIC
        EXTERN NLME_SetBroadcastFilter
        FUNCTION NLME_SetBroadcastFilter,0202H
        ARGFRAME ISTACK, 0, STACK
        ARGFRAME PSTACK, 0, STACK
        ARGFRAME XSTACK, 12, STACK
        ARGFRAME IOVERLAY, 0, STATIC
        ARGFRAME DOVERLAY, 0, STATIC
        EXTERN zgReadStartupOptions
        FUNCTION zgReadStartupOptions,0202H
        ARGFRAME ISTACK, 0, STACK
        ARGFRAME PSTACK, 0, STACK
        ARGFRAME XSTACK, 9, STACK
        ARGFRAME IOVERLAY, 0, STATIC
        ARGFRAME DOVERLAY, 0, STATIC
        EXTERN nwk_ExtPANIDValid
        FUNCTION nwk_ExtPANIDValid,0202H
        ARGFRAME ISTACK, 2, STACK
        ARGFRAME PSTACK, 0, STACK
        ARGFRAME XSTACK, 32, STACK
        ARGFRAME IOVERLAY, 0, STATIC
        ARGFRAME DOVERLAY, 0, STATIC
        EXTERN osal_pwrmgr_device
        FUNCTION osal_pwrmgr_device,0202H
        ARGFRAME ISTACK, 2, STACK
        ARGFRAME PSTACK, 0, STACK
        ARGFRAME XSTACK, 0, STACK
        ARGFRAME IOVERLAY, 0, STATIC
        ARGFRAME DOVERLAY, 0, STATIC
        EXTERN NLME_GetEnergyThreshold
        FUNCTION NLME_GetEnergyThreshold,0202H
        ARGFRAME ISTACK, 2, STACK
        ARGFRAME PSTACK, 0, STACK
        ARGFRAME XSTACK, 0, STACK
        ARGFRAME IOVERLAY, 0, STATIC
        ARGFRAME DOVERLAY, 0, STATIC
        EXTERN NLME_SetEnergyThreshold
        FUNCTION NLME_SetEnergyThreshold,0202H
        ARGFRAME ISTACK, 2, STACK
        ARGFRAME PSTACK, 0, STACK
        ARGFRAME XSTACK, 0, STACK
        ARGFRAME IOVERLAY, 0, STATIC
        ARGFRAME DOVERLAY, 0, STATIC
        EXTERN NLME_SetPollRate
        FUNCTION NLME_SetPollRate,0202H
        ARGFRAME ISTACK, 2, STACK
        ARGFRAME PSTACK, 0, STACK
        ARGFRAME XSTACK, 16, STACK
        ARGFRAME IOVERLAY, 0, STATIC
        ARGFRAME DOVERLAY, 0, STATIC
        EXTERN NLME_InitNV
        FUNCTION NLME_InitNV,0202H
        ARGFRAME ISTACK, 0, STACK
        ARGFRAME PSTACK, 0, STACK
        ARGFRAME XSTACK, 9, STACK
        ARGFRAME IOVERLAY, 0, STATIC
        ARGFRAME DOVERLAY, 0, STATIC
        EXTERN NLME_RestoreFromNV
        FUNCTION NLME_RestoreFromNV,0202H
        ARGFRAME ISTACK, 0, STACK
        ARGFRAME PSTACK, 0, STACK
        ARGFRAME XSTACK, 9, STACK
        ARGFRAME IOVERLAY, 0, STATIC
        ARGFRAME DOVERLAY, 0, STATIC
        EXTERN NLME_GetShortAddr
        FUNCTION NLME_GetShortAddr,0202H
        ARGFRAME ISTACK, 0, STACK
        ARGFRAME PSTACK, 0, STACK
        ARGFRAME XSTACK, 12, STACK
        ARGFRAME IOVERLAY, 0, STATIC
        ARGFRAME DOVERLAY, 0, STATIC
        EXTERN sAddrExtCpy
        FUNCTION sAddrExtCpy,0202H
        ARGFRAME ISTACK, 0, STACK
        ARGFRAME PSTACK, 0, STACK
        ARGFRAME XSTACK, 32, STACK
        ARGFRAME IOVERLAY, 0, STATIC
        ARGFRAME DOVERLAY, 0, STATIC
        EXTERN osal_memset
        FUNCTION osal_memset,0202H
        ARGFRAME ISTACK, 0, STACK
        ARGFRAME PSTACK, 0, STACK
        ARGFRAME XSTACK, 33, STACK
        ARGFRAME IOVERLAY, 0, STATIC
        ARGFRAME DOVERLAY, 0, STATIC
        EXTERN osal_nv_item_init
        FUNCTION osal_nv_item_init,0202H
        ARGFRAME ISTACK, 0, STACK
        ARGFRAME PSTACK, 0, STACK
        ARGFRAME XSTACK, 29, STACK
        ARGFRAME IOVERLAY, 0, STATIC
        ARGFRAME DOVERLAY, 0, STATIC
        EXTERN osal_nv_read
        FUNCTION osal_nv_read,0202H
        ARGFRAME ISTACK, 0, STACK
        ARGFRAME PSTACK, 0, STACK
        ARGFRAME XSTACK, 37, STACK
        ARGFRAME IOVERLAY, 0, STATIC
        ARGFRAME DOVERLAY, 0, STATIC
        EXTERN HalKeyRead
        FUNCTION HalKeyRead,0202H
        ARGFRAME ISTACK, 2, STACK
        ARGFRAME PSTACK, 0, STACK
        ARGFRAME XSTACK, 0, STACK
        ARGFRAME IOVERLAY, 0, STATIC
        ARGFRAME DOVERLAY, 0, STATIC
        EXTERN ZDP_IncomingData
        FUNCTION ZDP_IncomingData,0202H
        ARGFRAME ISTACK, 0, STACK
        ARGFRAME PSTACK, 0, STACK
        ARGFRAME XSTACK, 16, STACK
        ARGFRAME IOVERLAY, 0, STATIC
        ARGFRAME DOVERLAY, 0, STATIC
        EXTERN NLME_JoinRequest
        FUNCTION NLME_JoinRequest,0202H
        ARGFRAME ISTACK, 0, STACK
        ARGFRAME PSTACK, 0, STACK
        ARGFRAME XSTACK, 17, STACK
        ARGFRAME IOVERLAY, 0, STATIC
        ARGFRAME DOVERLAY, 0, STATIC
        EXTERN ZMacSetReq
        FUNCTION ZMacSetReq,0202H
        ARGFRAME ISTACK, 0, STACK
        ARGFRAME PSTACK, 0, STACK
        ARGFRAME XSTACK, 16, STACK
        ARGFRAME IOVERLAY, 0, STATIC
        ARGFRAME DOVERLAY, 0, STATIC
        EXTERN NLME_ReJoinRequest
        FUNCTION NLME_ReJoinRequest,0202H
        ARGFRAME ISTACK, 0, STACK
        ARGFRAME PSTACK, 0, STACK
        ARGFRAME XSTACK, 16, STACK
        ARGFRAME IOVERLAY, 0, STATIC
        ARGFRAME DOVERLAY, 0, STATIC
        EXTERN NLME_SetQueuedPollRate
        FUNCTION NLME_SetQueuedPollRate,0202H
        ARGFRAME ISTACK, 0, STACK
        ARGFRAME PSTACK, 0, STACK
        ARGFRAME XSTACK, 16, STACK
        ARGFRAME IOVERLAY, 0, STATIC
        ARGFRAME DOVERLAY, 0, STATIC
        EXTERN NLME_SetResponseRate
        FUNCTION NLME_SetResponseRate,0202H
        ARGFRAME ISTACK, 0, STACK
        ARGFRAME PSTACK, 0, STACK
        ARGFRAME XSTACK, 16, STACK
        ARGFRAME IOVERLAY, 0, STATIC
        ARGFRAME DOVERLAY, 0, STATIC
        EXTERN ZDO_ParseAddrRsp
        FUNCTION ZDO_ParseAddrRsp,0202H
        ARGFRAME ISTACK, 0, STACK
        ARGFRAME PSTACK, 0, STACK
        ARGFRAME XSTACK, 31, STACK
        ARGFRAME IOVERLAY, 0, STATIC
        ARGFRAME DOVERLAY, 0, STATIC
        EXTERN ZDO_UpdateAddrManager
        FUNCTION ZDO_UpdateAddrManager,0202H
        ARGFRAME ISTACK, 0, STACK
        ARGFRAME PSTACK, 0, STACK
        ARGFRAME XSTACK, 31, STACK
        ARGFRAME IOVERLAY, 0, STATIC
        ARGFRAME DOVERLAY, 0, STATIC
        EXTERN osal_mem_free
        FUNCTION osal_mem_free,0202H
        ARGFRAME ISTACK, 0, STACK
        ARGFRAME PSTACK, 0, STACK
        ARGFRAME XSTACK, 31, STACK
        ARGFRAME IOVERLAY, 0, STATIC
        ARGFRAME DOVERLAY, 0, STATIC
        EXTERN ZDO_ParseBindUnbindReq
        FUNCTION ZDO_ParseBindUnbindReq,0202H
        ARGFRAME ISTACK, 0, STACK
        ARGFRAME PSTACK, 0, STACK
        ARGFRAME XSTACK, 31, STACK
        ARGFRAME IOVERLAY, 0, STATIC
        ARGFRAME DOVERLAY, 0, STATIC
        EXTERN ZDO_ProcessBindUnbindReq
        FUNCTION ZDO_ProcessBindUnbindReq,0202H
        ARGFRAME ISTACK, 0, STACK
        ARGFRAME PSTACK, 0, STACK
        ARGFRAME XSTACK, 31, STACK
        ARGFRAME IOVERLAY, 0, STATIC
        ARGFRAME DOVERLAY, 0, STATIC
        EXTERN ZDO_RegisterForZDOMsg
        FUNCTION ZDO_RegisterForZDOMsg,0202H
        ARGFRAME ISTACK, 2, STACK
        ARGFRAME PSTACK, 0, STACK
        ARGFRAME XSTACK, 0, STACK
        ARGFRAME IOVERLAY, 0, STATIC
        ARGFRAME DOVERLAY, 0, STATIC
        EXTERN ZDSecMgrTransportKeyInd
        FUNCTION ZDSecMgrTransportKeyInd,0202H
        ARGFRAME ISTACK, 2, STACK
        ARGFRAME PSTACK, 0, STACK
        ARGFRAME XSTACK, 0, STACK
        ARGFRAME IOVERLAY, 0, STATIC
        ARGFRAME DOVERLAY, 0, STATIC
        EXTERN ZDSecMgrSwitchKeyInd
        FUNCTION ZDSecMgrSwitchKeyInd,0202H
        ARGFRAME ISTACK, 2, STACK
        ARGFRAME PSTACK, 0, STACK
        ARGFRAME XSTACK, 0, STACK
        ARGFRAME IOVERLAY, 0, STATIC
        ARGFRAME DOVERLAY, 0, STATIC
        EXTERN nwkNeighborInitTable
        FUNCTION nwkNeighborInitTable,0202H
        ARGFRAME ISTACK, 2, STACK
        ARGFRAME PSTACK, 0, STACK
        ARGFRAME XSTACK, 12, STACK
        ARGFRAME IOVERLAY, 0, STATIC
        ARGFRAME DOVERLAY, 0, STATIC
        EXTERN NLME_NwkDiscTerm
        FUNCTION NLME_NwkDiscTerm,0202H
        ARGFRAME ISTACK, 0, STACK
        ARGFRAME PSTACK, 0, STACK
        ARGFRAME XSTACK, 12, STACK
        ARGFRAME IOVERLAY, 0, STATIC
        ARGFRAME DOVERLAY, 0, STATIC
        EXTERN SSP_ReadNwkActiveKey
        FUNCTION SSP_ReadNwkActiveKey,0202H
        ARGFRAME ISTACK, 0, STACK
        ARGFRAME PSTACK, 0, STACK
        ARGFRAME XSTACK, 33, STACK
        ARGFRAME IOVERLAY, 0, STATIC
        ARGFRAME DOVERLAY, 0, STATIC
        EXTERN osal_nv_write
        FUNCTION osal_nv_write,0202H
        ARGFRAME ISTACK, 0, STACK
        ARGFRAME PSTACK, 0, STACK
        ARGFRAME XSTACK, 37, STACK
        ARGFRAME IOVERLAY, 0, STATIC
        ARGFRAME DOVERLAY, 0, STATIC
        EXTERN osal_stop_timerEx
        FUNCTION osal_stop_timerEx,0202H
        ARGFRAME ISTACK, 2, STACK
        ARGFRAME PSTACK, 0, STACK
        ARGFRAME XSTACK, 0, STACK
        ARGFRAME IOVERLAY, 0, STATIC
        ARGFRAME DOVERLAY, 0, STATIC
        EXTERN osal_msg_allocate
        FUNCTION osal_msg_allocate,0202H
        ARGFRAME ISTACK, 0, STACK
        ARGFRAME PSTACK, 0, STACK
        ARGFRAME XSTACK, 20, STACK
        ARGFRAME IOVERLAY, 0, STATIC
        ARGFRAME DOVERLAY, 0, STATIC
        EXTERN osal_memcpy
        FUNCTION osal_memcpy,0202H
        ARGFRAME ISTACK, 0, STACK
        ARGFRAME PSTACK, 0, STACK
        ARGFRAME XSTACK, 23, STACK
        ARGFRAME IOVERLAY, 0, STATIC
        ARGFRAME DOVERLAY, 0, STATIC
        EXTERN osal_msg_send
        FUNCTION osal_msg_send,0202H
        ARGFRAME ISTACK, 0, STACK
        ARGFRAME PSTACK, 0, STACK
        ARGFRAME XSTACK, 20, STACK
        ARGFRAME IOVERLAY, 0, STATIC
        ARGFRAME DOVERLAY, 0, STATIC
        EXTERN sAddrExtCmp
        FUNCTION sAddrExtCmp,0202H
        ARGFRAME ISTACK, 0, STACK
        ARGFRAME PSTACK, 0, STACK
        ARGFRAME XSTACK, 32, STACK
        ARGFRAME IOVERLAY, 0, STATIC
        ARGFRAME DOVERLAY, 0, STATIC
        EXTERN HalLedSet
        FUNCTION HalLedSet,0202H
        ARGFRAME ISTACK, 2, STACK
        ARGFRAME PSTACK, 0, STACK
        ARGFRAME XSTACK, 0, STACK
        ARGFRAME IOVERLAY, 0, STATIC
        ARGFRAME DOVERLAY, 0, STATIC
        EXTERN NLME_GetCoordShortAddr
        FUNCTION NLME_GetCoordShortAddr,0202H
        ARGFRAME ISTACK, 0, STACK
        ARGFRAME PSTACK, 0, STACK
        ARGFRAME XSTACK, 10, STACK
        ARGFRAME IOVERLAY, 0, STATIC
        ARGFRAME DOVERLAY, 0, STATIC
        EXTERN RTG_MTORouteReq
        FUNCTION RTG_MTORouteReq,0202H
        ARGFRAME ISTACK, 2, STACK
        ARGFRAME PSTACK, 0, STACK
        ARGFRAME XSTACK, 0, STACK
        ARGFRAME IOVERLAY, 0, STATIC
        ARGFRAME DOVERLAY, 0, STATIC
        EXTERN ZDP_GenericRsp
        FUNCTION ZDP_GenericRsp,0202H
        ARGFRAME ISTACK, 0, STACK
        ARGFRAME PSTACK, 0, STACK
        ARGFRAME XSTACK, 14, STACK
        ARGFRAME IOVERLAY, 0, STATIC
        ARGFRAME DOVERLAY, 0, STATIC
        EXTERN afSetMatch
        FUNCTION afSetMatch,0202H
        ARGFRAME ISTACK, 2, STACK
        ARGFRAME PSTACK, 0, STACK
        ARGFRAME XSTACK, 0, STACK
        ARGFRAME IOVERLAY, 0, STATIC
        ARGFRAME DOVERLAY, 0, STATIC
        EXTERN osal_get_timeoutEx
        FUNCTION osal_get_timeoutEx,0202H
        ARGFRAME ISTACK, 2, STACK
        ARGFRAME PSTACK, 0, STACK
        ARGFRAME XSTACK, 0, STACK
        ARGFRAME IOVERLAY, 0, STATIC
        ARGFRAME DOVERLAY, 0, STATIC
        EXTERN nwk_getNetworkDesc
        FUNCTION nwk_getNetworkDesc,0202H
        ARGFRAME ISTACK, 0, STACK
        ARGFRAME PSTACK, 0, STACK
        ARGFRAME XSTACK, 10, STACK
        ARGFRAME IOVERLAY, 0, STATIC
        ARGFRAME DOVERLAY, 0, STATIC
        EXTERN ZDP_DeviceAnnce
        FUNCTION ZDP_DeviceAnnce,0202H
        ARGFRAME ISTACK, 0, STACK
        ARGFRAME PSTACK, 0, STACK
        ARGFRAME XSTACK, 11, STACK
        ARGFRAME IOVERLAY, 0, STATIC
        ARGFRAME DOVERLAY, 0, STATIC
        EXTERN ??HalKeyRead?relay
        FUNCTION ??HalKeyRead?relay,00H
        EXTERN ??HalLedBlink?relay
        FUNCTION ??HalLedBlink?relay,00H
        EXTERN ??HalLedSet?relay
        FUNCTION ??HalLedSet?relay,00H
        EXTERN ??NLME_GetCoordShortAddr?relay
        FUNCTION ??NLME_GetCoordShortAddr?relay,00H
        EXTERN ??NLME_GetEnergyThreshold?relay
        FUNCTION ??NLME_GetEnergyThreshold?relay,00H
        EXTERN ??NLME_GetExtAddr?relay
        FUNCTION ??NLME_GetExtAddr?relay,00H
        EXTERN ??NLME_GetShortAddr?relay
        FUNCTION ??NLME_GetShortAddr?relay,00H
        EXTERN ??NLME_InitNV?relay
        FUNCTION ??NLME_InitNV?relay,00H
        EXTERN ??NLME_JoinRequest?relay
        FUNCTION ??NLME_JoinRequest?relay,00H
        EXTERN ??NLME_NwkDiscTerm?relay
        FUNCTION ??NLME_NwkDiscTerm?relay,00H
        EXTERN ??NLME_ReJoinRequest?relay
        FUNCTION ??NLME_ReJoinRequest?relay,00H
        EXTERN ??NLME_RestoreFromNV?relay
        FUNCTION ??NLME_RestoreFromNV?relay,00H
        EXTERN ??NLME_SetBroadcastFilter?relay
        FUNCTION ??NLME_SetBroadcastFilter?relay,00H
        EXTERN ??NLME_SetEnergyThreshold?relay
        FUNCTION ??NLME_SetEnergyThreshold?relay,00H
        EXTERN ??NLME_SetPollRate?relay
        FUNCTION ??NLME_SetPollRate?relay,00H
        EXTERN ??NLME_SetQueuedPollRate?relay
        FUNCTION ??NLME_SetQueuedPollRate?relay,00H
        EXTERN ??NLME_SetResponseRate?relay
        FUNCTION ??NLME_SetResponseRate?relay,00H
        EXTERN ??RTG_MTORouteReq?relay
        FUNCTION ??RTG_MTORouteReq?relay,00H
        EXTERN ??SSP_ReadNwkActiveKey?relay
        FUNCTION ??SSP_ReadNwkActiveKey?relay,00H
        EXTERN ??ZDConfig_InitDescriptors?relay
        FUNCTION ??ZDConfig_InitDescriptors?relay,00H
        EXTERN ??ZDO_Init?relay
        FUNCTION ??ZDO_Init?relay,00H
        EXTERN ??ZDO_ParseAddrRsp?relay
        FUNCTION ??ZDO_ParseAddrRsp?relay,00H
        EXTERN ??ZDO_ParseBindUnbindReq?relay
        FUNCTION ??ZDO_ParseBindUnbindReq?relay,00H
        EXTERN ??ZDO_ProcessBindUnbindReq?relay
        FUNCTION ??ZDO_ProcessBindUnbindReq?relay,00H
        EXTERN ??ZDO_RegisterForZDOMsg?relay
        FUNCTION ??ZDO_RegisterForZDOMsg?relay,00H
        EXTERN ??ZDO_StartDevice?relay
        FUNCTION ??ZDO_StartDevice?relay,00H
        EXTERN ??ZDO_UpdateAddrManager?relay
        FUNCTION ??ZDO_UpdateAddrManager?relay,00H
        EXTERN ??ZDO_UpdateNwkStatus?relay
        FUNCTION ??ZDO_UpdateNwkStatus?relay,00H
        EXTERN ??ZDP_DeviceAnnce?relay
        FUNCTION ??ZDP_DeviceAnnce?relay,00H
        EXTERN ??ZDP_GenericRsp?relay
        FUNCTION ??ZDP_GenericRsp?relay,00H
        EXTERN ??ZDP_IncomingData?relay
        FUNCTION ??ZDP_IncomingData?relay,00H
        EXTERN ??ZDSecMgrInit?relay
        FUNCTION ??ZDSecMgrInit?relay,00H
        EXTERN ??ZDSecMgrSaveTCLinkKey?relay
        FUNCTION ??ZDSecMgrSaveTCLinkKey?relay,00H
        EXTERN ??ZDSecMgrSwitchKeyInd?relay
        FUNCTION ??ZDSecMgrSwitchKeyInd?relay,00H
        EXTERN ??ZDSecMgrTransportKeyInd?relay
        FUNCTION ??ZDSecMgrTransportKeyInd?relay,00H
        EXTERN ??ZMacSetReq?relay
        FUNCTION ??ZMacSetReq?relay,00H
        EXTERN ??afRegister?relay
        FUNCTION ??afRegister?relay,00H
        EXTERN ??afSetMatch?relay
        FUNCTION ??afSetMatch?relay,00H
        EXTERN ??nwkNeighborInitTable?relay
        FUNCTION ??nwkNeighborInitTable?relay,00H
        EXTERN ??nwk_ExtPANIDValid?relay
        FUNCTION ??nwk_ExtPANIDValid?relay,00H
        EXTERN ??nwk_getNetworkDesc?relay
        FUNCTION ??nwk_getNetworkDesc?relay,00H
        EXTERN ??osal_get_timeoutEx?relay
        FUNCTION ??osal_get_timeoutEx?relay,00H
        EXTERN ??osal_mem_free?relay
        FUNCTION ??osal_mem_free?relay,00H
        EXTERN ??osal_memcpy?relay
        FUNCTION ??osal_memcpy?relay,00H
        EXTERN ??osal_memset?relay
        FUNCTION ??osal_memset?relay,00H
        EXTERN ??osal_msg_allocate?relay
        FUNCTION ??osal_msg_allocate?relay,00H
        EXTERN ??osal_msg_deallocate?relay
        FUNCTION ??osal_msg_deallocate?relay,00H
        EXTERN ??osal_msg_receive?relay
        FUNCTION ??osal_msg_receive?relay,00H
        EXTERN ??osal_msg_send?relay
        FUNCTION ??osal_msg_send?relay,00H
        EXTERN ??osal_nv_item_init?relay
        FUNCTION ??osal_nv_item_init?relay,00H
        EXTERN ??osal_nv_read?relay
        FUNCTION ??osal_nv_read?relay,00H
        EXTERN ??osal_nv_write?relay
        FUNCTION ??osal_nv_write?relay,00H
        EXTERN ??osal_pwrmgr_device?relay
        FUNCTION ??osal_pwrmgr_device?relay,00H
        EXTERN ??osal_rand?relay
        FUNCTION ??osal_rand?relay,00H
        EXTERN ??osal_set_event?relay
        FUNCTION ??osal_set_event?relay,00H
        EXTERN ??osal_start_timerEx?relay
        FUNCTION ??osal_start_timerEx?relay,00H
        EXTERN ??osal_stop_timerEx?relay
        FUNCTION ??osal_stop_timerEx?relay,00H
        EXTERN ??sAddrExtCmp?relay
        FUNCTION ??sAddrExtCmp?relay,00H
        EXTERN ??sAddrExtCpy?relay
        FUNCTION ??sAddrExtCpy?relay,00H
        EXTERN ??zgInitItems?relay
        FUNCTION ??zgInitItems?relay,00H
        EXTERN ??zgReadStartupOptions?relay
        FUNCTION ??zgReadStartupOptions?relay,00H
        EXTERN ??zgWriteStartupOptions?relay
        FUNCTION ??zgWriteStartupOptions?relay,00H
        EXTERN AIB_apsUseExtendedPANID
        EXTERN AIB_apsUseInsecureJoin
        EXTERN NWK_TaskID
        EXTERN ZDO_Config_Node_Descriptor
        EXTERN _NIB
        EXTERN nwkFrameCounter
        EXTERN zgConcentratorEnable
        EXTERN zgConfigPANID
        EXTERN zgDefaultStartingScanDuration
        EXTERN zgDeviceLogicalType
        EXTERN zgStackProfile

// C:\Scratch\s3530312\ZStack-CC2530-2.3.1\Components\stack\zdo\ZDApp.c
//    1 /**************************************************************************************************
//    2   Filename:       ZDApp.c
//    3   Revised:        $Date: 2010-08-20 15:30:00 -0700 (Fri, 20 Aug 2010) $
//    4   Revision:       $Revision: 23463 $
//    5 
//    6   Description:    This file contains the interface to the Zigbee Device Application. This is the
//    7                   Application part that the user can change. This also contains the Task functions.
//    8 
//    9 
//   10   Copyright 2004-2010 Texas Instruments Incorporated. All rights reserved.
//   11 
//   12   IMPORTANT: Your use of this Software is limited to those specific rights
//   13   granted under the terms of a software license agreement between the user
//   14   who downloaded the software, his/her employer (which must be your employer)
//   15   and Texas Instruments Incorporated (the "License").  You may not use this
//   16   Software unless you agree to abide by the terms of the License. The License
//   17   limits your use, and you acknowledge, that the Software may not be modified,
//   18   copied or distributed unless embedded on a Texas Instruments microcontroller
//   19   or used solely and exclusively in conjunction with a Texas Instruments radio
//   20   frequency transceiver, which is integrated into your product.  Other than for
//   21   the foregoing purpose, you may not use, reproduce, copy, prepare derivative
//   22   works of, modify, distribute, perform, display or sell this Software and/or
//   23   its documentation for any purpose.
//   24 
//   25   YOU FURTHER ACKNOWLEDGE AND AGREE THAT THE SOFTWARE AND DOCUMENTATION ARE
//   26   PROVIDED AS IS WITHOUT WARRANTY OF ANY KIND, EITHER EXPRESS OR IMPLIED,
//   27   INCLUDING WITHOUT LIMITATION, ANY WARRANTY OF MERCHANTABILITY, TITLE,
//   28   NON-INFRINGEMENT AND FITNESS FOR A PARTICULAR PURPOSE. IN NO EVENT SHALL
//   29   TEXAS INSTRUMENTS OR ITS LICENSORS BE LIABLE OR OBLIGATED UNDER CONTRACT,
//   30   NEGLIGENCE, STRICT LIABILITY, CONTRIBUTION, BREACH OF WARRANTY, OR OTHER
//   31   LEGAL EQUITABLE THEORY ANY DIRECT OR INDIRECT DAMAGES OR EXPENSES
//   32   INCLUDING BUT NOT LIMITED TO ANY INCIDENTAL, SPECIAL, INDIRECT, PUNITIVE
//   33   OR CONSEQUENTIAL DAMAGES, LOST PROFITS OR LOST DATA, COST OF PROCUREMENT
//   34   OF SUBSTITUTE GOODS, TECHNOLOGY, SERVICES, OR ANY CLAIMS BY THIRD PARTIES
//   35   (INCLUDING BUT NOT LIMITED TO ANY DEFENSE THEREOF), OR OTHER SIMILAR COSTS.
//   36 
//   37   Should you have any questions regarding your right to use this Software,
//   38   contact Texas Instruments Incorporated at www.TI.com.
//   39 **************************************************************************************************/
//   40 
//   41 /*********************************************************************
//   42  * INCLUDES
//   43  */
//   44 
//   45 #include "ZComDef.h"
//   46 #include "ZMac.h"
//   47 #include "OSAL.h"
//   48 #include "OSAL_Tasks.h"
//   49 #include "OSAL_PwrMgr.h"
//   50 #include "OSAL_Nv.h"
//   51 #include "AF.h"
//   52 #include "APSMEDE.h"
//   53 #include "NLMEDE.h"
//   54 #include "AddrMgr.h"
//   55 #include "ZDProfile.h"
//   56 #include "ZDObject.h"
//   57 #include "ZDConfig.h"
//   58 #include "ZDSecMgr.h"
//   59 #include "ZDApp.h"
//   60 #include "DebugTrace.h"
//   61 #include "nwk_util.h"
//   62 #include "OnBoard.h"
//   63 #include "ZGlobals.h"
//   64 #include "ZDNwkMgr.h"
//   65 #include "rtg.h"
//   66 
//   67 #include "ssp.h"
//   68 
//   69 /* HAL */
//   70 #include "hal_led.h"
//   71 #include "hal_lcd.h"
//   72 #include "hal_key.h"
//   73 
//   74 #if defined( MT_MAC_FUNC ) || defined( MT_MAC_CB_FUNC )
//   75   #error "ERROR! MT_MAC functionalities should be disabled on ZDO devices"
//   76 #endif
//   77 
//   78 /*********************************************************************
//   79  * CONSTANTS
//   80  */
//   81 
//   82 #if !defined( NWK_START_DELAY )
//   83   #define NWK_START_DELAY             100   // in milliseconds
//   84 #endif
//   85 
//   86 #if !defined( EXTENDED_JOINING_RANDOM_MASK )
//   87   #define EXTENDED_JOINING_RANDOM_MASK 0x007F
//   88 #endif
//   89 
//   90 #if !defined( BEACON_REQUEST_DELAY )
//   91   #define BEACON_REQUEST_DELAY        100   // in milliseconds
//   92 #endif
//   93 
//   94 #if !defined( BEACON_REQ_DELAY_MASK )
//   95   #define BEACON_REQ_DELAY_MASK       0x007F
//   96 #endif
//   97 
//   98 #define MAX_RESUME_RETRY            3
//   99 
//  100 #define MAX_DEVICE_UNAUTH_TIMEOUT   5000  // 5 seconds
//  101 
//  102 // Beacon Order Settings (see NLMEDE.h)
//  103 #define DEFAULT_BEACON_ORDER        BEACON_ORDER_NO_BEACONS
//  104 #define DEFAULT_SUPERFRAME_ORDER    DEFAULT_BEACON_ORDER
//  105 
//  106 #if !defined( MAX_NWK_FRAMECOUNTER_CHANGES )
//  107   // The number of times the frame counter can change before
//  108   // saving to NV
//  109   #define MAX_NWK_FRAMECOUNTER_CHANGES    1000
//  110 #endif
//  111 
//  112 // Leave control bits
//  113 #define ZDAPP_LEAVE_CTRL_INIT 0
//  114 #define ZDAPP_LEAVE_CTRL_SET  1
//  115 #define ZDAPP_LEAVE_CTRL_RA   2
//  116 
//  117 // Address Manager Stub Implementation
//  118 #define ZDApp_NwkWriteNVRequest AddrMgrWriteNVRequest
//  119 
//  120 
//  121 #if !defined ZDO_NV_SAVE_RFDs
//  122 #define ZDO_NV_SAVE_RFDs  TRUE
//  123 #endif
//  124 
//  125 // Delay time before updating NWK NV data to force fewer writes during high activity.
//  126 #if ZDO_NV_SAVE_RFDs
//  127 #define ZDAPP_UPDATE_NWK_NV_TIME 700
//  128 #else
//  129 #define ZDAPP_UPDATE_NWK_NV_TIME 65000
//  130 #endif
//  131 
//  132 /*********************************************************************
//  133  * GLOBAL VARIABLES
//  134  */
//  135 
//  136 #if defined( LCD_SUPPORTED )

        RSEG XDATA_Z:XDATA:NOROOT(0)
//  137   uint8 MatchRsps = 0;
MatchRsps:
        DS 1
        REQUIRE __INIT_XDATA_Z
//  138 #endif
//  139 

        RSEG XDATA_I:XDATA:NOROOT(0)
        DATA
//  140 uint8 zdoDiscCounter = 1;
zdoDiscCounter:
        DS 1
        REQUIRE `?<Initializer for zdoDiscCounter>`
        REQUIRE __INIT_XDATA_I
//  141 

        RSEG XDATA_Z:XDATA:NOROOT(0)
//  142 zAddrType_t ZDAppNwkAddr;
ZDAppNwkAddr:
        DS 9
        REQUIRE __INIT_XDATA_Z
//  143 

        RSEG XDATA_Z:XDATA:NOROOT(0)
//  144 uint8 zdappMgmtNwkDiscRspTransSeq;
zdappMgmtNwkDiscRspTransSeq:
        DS 1
        REQUIRE __INIT_XDATA_Z

        RSEG XDATA_Z:XDATA:NOROOT(0)
//  145 uint8 zdappMgmtNwkDiscReqInProgress = FALSE;
zdappMgmtNwkDiscReqInProgress:
        DS 1
        REQUIRE __INIT_XDATA_Z

        RSEG XDATA_Z:XDATA:NOROOT(0)
//  146 zAddrType_t zdappMgmtNwkDiscRspAddr;
zdappMgmtNwkDiscRspAddr:
        DS 9
        REQUIRE __INIT_XDATA_Z

        RSEG XDATA_Z:XDATA:NOROOT(0)
//  147 uint8 zdappMgmtNwkDiscStartIndex;
zdappMgmtNwkDiscStartIndex:
        DS 1
        REQUIRE __INIT_XDATA_Z

        RSEG XDATA_Z:XDATA:NOROOT(0)
//  148 uint8 zdappMgmtSavedNwkState;
zdappMgmtSavedNwkState:
        DS 1
        REQUIRE __INIT_XDATA_Z
//  149 

        RSEG XDATA_Z:XDATA:NOROOT(0)
//  150 uint16 nwkFrameCounterChanges = 0;
nwkFrameCounterChanges:
        DS 2
        REQUIRE __INIT_XDATA_Z

        RSEG XDATA_I:XDATA:NOROOT(0)
        DATA
//  151 uint8 continueJoining = TRUE;
continueJoining:
        DS 1
        REQUIRE `?<Initializer for continueJoining>`
        REQUIRE __INIT_XDATA_I
//  152 

        RSEG XDATA_Z:XDATA:NOROOT(0)
//  153 uint8  _tmpRejoinState;
_tmpRejoinState:
        DS 1
        REQUIRE __INIT_XDATA_Z
//  154 
//  155 // The extended PanID used in ZDO layer for rejoin.

        RSEG XDATA_Z:XDATA:NOROOT(0)
//  156 uint8 ZDO_UseExtendedPANID[Z_EXTADDR_LEN];
ZDO_UseExtendedPANID:
        DS 8
        REQUIRE __INIT_XDATA_Z
//  157 

        RSEG XDATA_Z:XDATA:NOROOT(0)
//  158 pfnZdoCb zdoCBFunc[MAX_ZDO_CB_FUNC];
zdoCBFunc:
        DS 4
        REQUIRE __INIT_XDATA_Z
//  159 
//  160 /*********************************************************************
//  161  * EXTERNAL VARIABLES
//  162  */
//  163 
//  164 /*********************************************************************
//  165  * EXTERNAL FUNCTIONS
//  166  */
//  167 
//  168 /*********************************************************************
//  169  * LOCAL FUNCTIONS
//  170  */
//  171 
//  172 void ZDApp_NetworkStartEvt( void );
//  173 void ZDApp_DeviceAuthEvt( void );
//  174 void ZDApp_SaveNetworkStateEvt( void );
//  175 
//  176 uint8 ZDApp_ReadNetworkRestoreState( void );
//  177 uint8 ZDApp_RestoreNetworkState( void );
//  178 void ZDAppDetermineDeviceType( void );
//  179 void ZDApp_InitUserDesc( void );
//  180 void ZDAppCheckForHoldKey( void );
//  181 void ZDApp_ProcessOSALMsg( osal_event_hdr_t *msgPtr );
//  182 void ZDApp_ProcessNetworkJoin( void );
//  183 void ZDApp_SetCoordAddress( uint8 endPoint, uint8 dstEP );
//  184 void ZDApp_SaveNwkKey( void );
//  185 uint8 ZDApp_RestoreNwkKey( void );
//  186 
//  187 void ZDApp_SecInit( uint8 state );
//  188 UINT16 ZDApp_ProcessSecEvent( uint8 task_id, UINT16 events );
//  189 void ZDApp_ProcessSecMsg( osal_event_hdr_t *msgPtr );
//  190 
//  191 void ZDApp_SendMsg( uint8 taskID, uint8 cmd, uint8 len, uint8 *buf );
//  192 
//  193 void ZDApp_ResetTimerStart( uint16 delay );
//  194 void ZDApp_ResetTimerCancel( void );
//  195 void ZDApp_LeaveCtrlInit( void );
//  196 void ZDApp_LeaveCtrlSet( uint8 ra );
//  197 uint8 ZDApp_LeaveCtrlBypass( void );
//  198 void ZDApp_LeaveCtrlStartup( devStates_t* state, uint16* startDelay );
//  199 void ZDApp_LeaveReset( uint8 ra );
//  200 void ZDApp_LeaveUpdate( uint16 nwkAddr, uint8* extAddr,
//  201                         uint8 removeChildren );
//  202 void ZDApp_NodeProfileSync( ZDO_NetworkDiscoveryCfm_t* cfm );
//  203 void ZDApp_ProcessMsgCBs( zdoIncomingMsg_t *inMsg );
//  204 void ZDApp_RegisterCBs( void );
//  205 
//  206 /*********************************************************************
//  207  * LOCAL VARIABLES
//  208  */
//  209 

        RSEG XDATA_Z:XDATA:NOROOT(0)
//  210 uint8 ZDAppTaskID;
ZDAppTaskID:
        DS 1
        REQUIRE __INIT_XDATA_Z

        RSEG XDATA_Z:XDATA:NOROOT(0)
//  211 uint8 nwkStatus;
nwkStatus:
        DS 1
        REQUIRE __INIT_XDATA_Z

        RSEG XDATA_Z:XDATA:NOROOT(0)
//  212 endPointDesc_t *ZDApp_AutoFindMode_epDesc = (endPointDesc_t *)NULL;
ZDApp_AutoFindMode_epDesc:
        DS 2
        REQUIRE __INIT_XDATA_Z

        RSEG XDATA_Z:XDATA:NOROOT(0)
//  213 uint8 ZDApp_LeaveCtrl;
ZDApp_LeaveCtrl:
        DS 1
        REQUIRE __INIT_XDATA_Z
//  214 
//  215 #if defined( HOLD_AUTO_START )
//  216   devStates_t devState = DEV_HOLD;
//  217 #else

        RSEG XDATA_I:XDATA:NOROOT(0)
        DATA
//  218   devStates_t devState = DEV_INIT;
devState:
        DS 1
        REQUIRE `?<Initializer for devState>`
        REQUIRE __INIT_XDATA_I
//  219 #endif
//  220 
//  221 #if ( ZG_BUILD_RTRONLY_TYPE ) || ( ZG_BUILD_ENDDEVICE_TYPE )

        RSEG XDATA_Z:XDATA:NOROOT(0)
//  222   devStartModes_t devStartMode = MODE_JOIN;     // Assume joining
devStartMode:
        DS 1
        REQUIRE __INIT_XDATA_Z
//  223   //devStartModes_t devStartMode = MODE_RESUME; // if already "directly joined"
//  224                         // to parent. Set to make the device do an Orphan scan.
//  225 #else
//  226   // Set the default to coodinator
//  227   devStartModes_t devStartMode = MODE_HARD;
//  228 #endif
//  229 

        RSEG XDATA_Z:XDATA:NOROOT(0)
//  230 uint8 retryCnt;
retryCnt:
        DS 1
        REQUIRE __INIT_XDATA_Z
//  231 

        RSEG XDATA_I:XDATA:NOROOT(0)
        DATA
//  232 endPointDesc_t ZDApp_epDesc =
ZDApp_epDesc:
        DS 6
        REQUIRE `?<Initializer for ZDApp_epDesc>`
        REQUIRE __INIT_XDATA_I
//  233 {
//  234   ZDO_EP,
//  235   &ZDAppTaskID,
//  236   (SimpleDescriptionFormat_t *)NULL,  // No Simple description for ZDO
//  237   (afNetworkLatencyReq_t)0            // No Network Latency req
//  238 };
//  239 

        RSEG XDATA_I:XDATA:NOROOT(0)
        DATA
//  240 uint16 ZDApp_SavedPollRate = POLL_RATE;
ZDApp_SavedPollRate:
        DS 2
        REQUIRE `?<Initializer for ZDApp_SavedPollRate>`
        REQUIRE __INIT_XDATA_I
//  241 
//  242 /*********************************************************************
//  243  * @fn      ZDApp_Init
//  244  *
//  245  * @brief   ZDApp Initialization function.
//  246  *
//  247  * @param   task_id - ZDApp Task ID
//  248  *
//  249  * @return  None
//  250  */

        RSEG BANKED_CODE:CODE:NOROOT(0)
//  251 void ZDApp_Init( uint8 task_id )
ZDApp_Init:
        CFI Block cfiBlock0 Using cfiCommon0
        CFI Function ZDApp_Init
//  252 {
        FUNCALL ZDApp_Init, NLME_GetExtAddr
        LOCFRAME ISTACK, 2, STACK
        LOCFRAME PSTACK, 0, STACK
        LOCFRAME XSTACK, 0, STACK
        LOCFRAME IOVERLAY, 0, STATIC
        LOCFRAME DOVERLAY, 0, STATIC
        ARGFRAME ISTACK, 2, STACK
        ARGFRAME PSTACK, 0, STACK
        ARGFRAME XSTACK, 0, STACK
        ARGFRAME IOVERLAY, 0, STATIC
        ARGFRAME DOVERLAY, 0, STATIC
        FUNCALL ZDApp_Init, ZDAppCheckForHoldKey
        LOCFRAME ISTACK, 2, STACK
        LOCFRAME PSTACK, 0, STACK
        LOCFRAME XSTACK, 0, STACK
        LOCFRAME IOVERLAY, 0, STATIC
        LOCFRAME DOVERLAY, 0, STATIC
        ARGFRAME ISTACK, 2, STACK
        ARGFRAME PSTACK, 0, STACK
        ARGFRAME XSTACK, 0, STACK
        ARGFRAME IOVERLAY, 0, STATIC
        ARGFRAME DOVERLAY, 0, STATIC
        FUNCALL ZDApp_Init, ZDO_Init
        LOCFRAME ISTACK, 2, STACK
        LOCFRAME PSTACK, 0, STACK
        LOCFRAME XSTACK, 0, STACK
        LOCFRAME IOVERLAY, 0, STATIC
        LOCFRAME DOVERLAY, 0, STATIC
        ARGFRAME ISTACK, 2, STACK
        ARGFRAME PSTACK, 0, STACK
        ARGFRAME XSTACK, 0, STACK
        ARGFRAME IOVERLAY, 0, STATIC
        ARGFRAME DOVERLAY, 0, STATIC
        FUNCALL ZDApp_Init, afRegister
        LOCFRAME ISTACK, 2, STACK
        LOCFRAME PSTACK, 0, STACK
        LOCFRAME XSTACK, 0, STACK
        LOCFRAME IOVERLAY, 0, STATIC
        LOCFRAME DOVERLAY, 0, STATIC
        ARGFRAME ISTACK, 2, STACK
        ARGFRAME PSTACK, 0, STACK
        ARGFRAME XSTACK, 0, STACK
        ARGFRAME IOVERLAY, 0, STATIC
        ARGFRAME DOVERLAY, 0, STATIC
        FUNCALL ZDApp_Init, ZDApp_InitUserDesc
        LOCFRAME ISTACK, 2, STACK
        LOCFRAME PSTACK, 0, STACK
        LOCFRAME XSTACK, 0, STACK
        LOCFRAME IOVERLAY, 0, STATIC
        LOCFRAME DOVERLAY, 0, STATIC
        ARGFRAME ISTACK, 2, STACK
        ARGFRAME PSTACK, 0, STACK
        ARGFRAME XSTACK, 0, STACK
        ARGFRAME IOVERLAY, 0, STATIC
        ARGFRAME DOVERLAY, 0, STATIC
        FUNCALL ZDApp_Init, ZDOInitDevice
        LOCFRAME ISTACK, 2, STACK
        LOCFRAME PSTACK, 0, STACK
        LOCFRAME XSTACK, 0, STACK
        LOCFRAME IOVERLAY, 0, STATIC
        LOCFRAME DOVERLAY, 0, STATIC
        ARGFRAME ISTACK, 2, STACK
        ARGFRAME PSTACK, 0, STACK
        ARGFRAME XSTACK, 0, STACK
        ARGFRAME IOVERLAY, 0, STATIC
        ARGFRAME DOVERLAY, 0, STATIC
        FUNCALL ZDApp_Init, HalLedBlink
        LOCFRAME ISTACK, 2, STACK
        LOCFRAME PSTACK, 0, STACK
        LOCFRAME XSTACK, 0, STACK
        LOCFRAME IOVERLAY, 0, STATIC
        LOCFRAME DOVERLAY, 0, STATIC
        ARGFRAME ISTACK, 2, STACK
        ARGFRAME PSTACK, 0, STACK
        ARGFRAME XSTACK, 0, STACK
        ARGFRAME IOVERLAY, 0, STATIC
        ARGFRAME DOVERLAY, 0, STATIC
        FUNCALL ZDApp_Init, ZDApp_RegisterCBs
        LOCFRAME ISTACK, 2, STACK
        LOCFRAME PSTACK, 0, STACK
        LOCFRAME XSTACK, 0, STACK
        LOCFRAME IOVERLAY, 0, STATIC
        LOCFRAME DOVERLAY, 0, STATIC
        ARGFRAME ISTACK, 2, STACK
        ARGFRAME PSTACK, 0, STACK
        ARGFRAME XSTACK, 0, STACK
        ARGFRAME IOVERLAY, 0, STATIC
        ARGFRAME DOVERLAY, 0, STATIC
        PUSH    DPL
        CFI DPL0 Frame(CFA_SP, 4)
        CFI CFA_SP SP+-4
        PUSH    DPH
        CFI DPH0 Frame(CFA_SP, 5)
        CFI CFA_SP SP+-5
        ; Saved register size: 2
        ; Auto size: 0
//  253   // Save the task ID
//  254   ZDAppTaskID = task_id;
        MOV     A,R1
        MOV     DPTR,#ZDAppTaskID
        MOVX    @DPTR,A
//  255 
//  256   // Initialize the ZDO global device short address storage
//  257   ZDAppNwkAddr.addrMode = Addr16Bit;
        MOV     A,#0x2
        MOV     DPTR,#(ZDAppNwkAddr + 8)
        MOVX    @DPTR,A
//  258   ZDAppNwkAddr.addr.shortAddr = INVALID_NODE_ADDR;
        MOV     DPTR,#ZDAppNwkAddr
        MOV     A,#-0x2
        MOVX    @DPTR,A
        INC     DPTR
        MOV     A,#-0x1
        MOVX    @DPTR,A
//  259   (void)NLME_GetExtAddr();  // Load the saveExtAddr pointer.
        ; Setup parameters for call to function NLME_GetExtAddr
        LCALL   ??NLME_GetExtAddr?relay
//  260 
//  261   // Check for manual "Hold Auto Start"
//  262   ZDAppCheckForHoldKey();
        ; Setup parameters for call to function ZDAppCheckForHoldKey
        LCALL   ??ZDAppCheckForHoldKey?relay
//  263 
//  264   // Initialize ZDO items and setup the device - type of device to create.
//  265   ZDO_Init();
        ; Setup parameters for call to function ZDO_Init
        LCALL   ??ZDO_Init?relay
//  266 
//  267   // Register the endpoint description with the AF
//  268   // This task doesn't have a Simple description, but we still need
//  269   // to register the endpoint.
//  270   afRegister( (endPointDesc_t *)&ZDApp_epDesc );
        ; Setup parameters for call to function afRegister
        MOV     R2,#(ZDApp_epDesc & 0xff)
        MOV     R3,#((ZDApp_epDesc >> 8) & 0xff)
        LCALL   ??afRegister?relay
//  271 
//  272 #if defined( ZDO_USERDESC_RESPONSE )
//  273   ZDApp_InitUserDesc();
        ; Setup parameters for call to function ZDApp_InitUserDesc
        LCALL   ??ZDApp_InitUserDesc?relay
//  274 #endif // ZDO_USERDESC_RESPONSE
//  275 
//  276   // Start the device?
//  277   if ( devState != DEV_HOLD )
        MOV     DPTR,#devState
        MOVX    A,@DPTR
        JZ      ??ZDApp_Init_0
//  278   {
//  279     ZDOInitDevice( 0 );
        ; Setup parameters for call to function ZDOInitDevice
        MOV     R2,#0x0
        MOV     R3,#0x0
        LCALL   ??ZDOInitDevice?relay
        SJMP    ??ZDApp_Init_1
//  280   }
//  281   else
//  282   {
//  283     // Blink LED to indicate HOLD_START
//  284     HalLedBlink ( HAL_LED_4, 0, 50, 500 );
??ZDApp_Init_0:
        ; Setup parameters for call to function HalLedBlink
        MOV     R4,#-0xc
        MOV     R5,#0x1
        MOV     R3,#0x32
        MOV     R2,#0x0
        MOV     R1,#0x8
        LCALL   ??HalLedBlink?relay
//  285   }
//  286 
//  287   ZDApp_RegisterCBs();
??ZDApp_Init_1:
        ; Setup parameters for call to function ZDApp_RegisterCBs
        LCALL   ??ZDApp_RegisterCBs?relay
//  288 } /* ZDApp_Init() */
        LJMP    ??Subroutine29_0 & 0xFFFF
        CFI EndBlock cfiBlock0
//  289 
//  290 /*********************************************************************
//  291  * @fn          ZDApp_SecInit
//  292  *
//  293  * @brief       ZDApp initialize security.
//  294  *
//  295  * @param       state - device initialization state
//  296  *
//  297  * @return      none
//  298  */

        RSEG BANKED_CODE:CODE:NOROOT(0)
//  299 void ZDApp_SecInit( uint8 state )
ZDApp_SecInit:
        CFI Block cfiBlock1 Using cfiCommon0
        CFI Function ZDApp_SecInit
//  300 {
        FUNCALL ZDApp_SecInit, ZDSecMgrInit
        LOCFRAME ISTACK, 2, STACK
        LOCFRAME PSTACK, 0, STACK
        LOCFRAME XSTACK, 0, STACK
        LOCFRAME IOVERLAY, 0, STATIC
        LOCFRAME DOVERLAY, 0, STATIC
        ARGFRAME ISTACK, 2, STACK
        ARGFRAME PSTACK, 0, STACK
        ARGFRAME XSTACK, 0, STACK
        ARGFRAME IOVERLAY, 0, STATIC
        ARGFRAME DOVERLAY, 0, STATIC
        PUSH    DPL
        CFI DPL0 Frame(CFA_SP, 4)
        CFI CFA_SP SP+-4
        PUSH    DPH
        CFI DPH0 Frame(CFA_SP, 5)
        CFI CFA_SP SP+-5
        ; Saved register size: 2
        ; Auto size: 0
//  301   uint8 zgPreConfigKey[SEC_KEY_LEN];
//  302 
//  303   if ( ZG_SECURE_ENABLED && ZG_BUILD_COORDINATOR_TYPE && ZG_DEVICE_COORDINATOR_TYPE )
//  304   {
//  305     // Set the Trust Center bit
//  306     ZDO_Config_Node_Descriptor.ServerMask |= PRIM_TRUST_CENTER;
//  307   }
//  308 
//  309   if ( ZG_CHECK_SECURITY_MODE == ZG_SECURITY_PRO_HIGH )
//  310   {
//  311     ZDO_Config_Node_Descriptor.CapabilityFlags |= CAPINFO_SECURITY_CAPABLE;
//  312   }
//  313 
//  314   // Initialize ZigBee Device Security Manager
//  315   ZDSecMgrInit(state);
        ; Setup parameters for call to function ZDSecMgrInit
        LCALL   ??ZDSecMgrInit?relay
//  316 
//  317   if ( ZG_SECURE_ENABLED )
//  318   {
//  319     if ( state != ZDO_INITDEV_RESTORED_NETWORK_STATE )
//  320     {
//  321       nwkFrameCounter = 0;
//  322 
//  323       if( _NIB.nwkKeyLoaded == FALSE )
//  324       {
//  325         if ( ( ZG_BUILD_COORDINATOR_TYPE && ZG_DEVICE_COORDINATOR_TYPE          ) ||
//  326              ( ( zgSecurityMode == ZG_SECURITY_RESIDENTIAL ) && zgPreConfigKeys )    )
//  327         {
//  328             ZDSecMgrReadKeyFromNv(ZCD_NV_PRECFGKEY, zgPreConfigKey);
//  329             SSP_UpdateNwkKey( zgPreConfigKey, 0);
//  330             SSP_SwitchNwkKey( 0 );
//  331 
//  332             // clear local copy of key
//  333             osal_memset(zgPreConfigKey, 0x00, SEC_KEY_LEN);
//  334         }
//  335       }
//  336     }
//  337   }
//  338 }
        LJMP    ??Subroutine29_0 & 0xFFFF
        CFI EndBlock cfiBlock1
//  339 
//  340 /*********************************************************************
//  341  * @fn      ZDApp_event_loop()
//  342  *
//  343  * @brief   Main event loop for Zigbee device objects task. This function
//  344  *          should be called at periodic intervals.
//  345  *
//  346  * @param   task_id - Task ID
//  347  * @param   events  - Bitmap of events
//  348  *
//  349  * @return  none
//  350  */

        RSEG BANKED_CODE:CODE:NOROOT(0)
//  351 UINT16 ZDApp_event_loop( uint8 task_id, UINT16 events )
ZDApp_event_loop:
        CFI Block cfiBlock2 Using cfiCommon0
        CFI Function ZDApp_event_loop
//  352 {
        FUNCALL ZDApp_event_loop, ZDO_StartDevice
        LOCFRAME ISTACK, 0, STACK
        LOCFRAME PSTACK, 0, STACK
        LOCFRAME XSTACK, 10, STACK
        LOCFRAME IOVERLAY, 0, STATIC
        LOCFRAME DOVERLAY, 0, STATIC
        ARGFRAME ISTACK, 0, STACK
        ARGFRAME PSTACK, 0, STACK
        ARGFRAME XSTACK, 10, STACK
        ARGFRAME IOVERLAY, 0, STATIC
        ARGFRAME DOVERLAY, 0, STATIC
        FUNCALL ZDApp_event_loop, ZDApp_ProcessOSALMsg
        LOCFRAME ISTACK, 0, STACK
        LOCFRAME PSTACK, 0, STACK
        LOCFRAME XSTACK, 10, STACK
        LOCFRAME IOVERLAY, 0, STATIC
        LOCFRAME DOVERLAY, 0, STATIC
        ARGFRAME ISTACK, 0, STACK
        ARGFRAME PSTACK, 0, STACK
        ARGFRAME XSTACK, 10, STACK
        ARGFRAME IOVERLAY, 0, STATIC
        ARGFRAME DOVERLAY, 0, STATIC
        FUNCALL ZDApp_event_loop, osal_msg_deallocate
        LOCFRAME ISTACK, 0, STACK
        LOCFRAME PSTACK, 0, STACK
        LOCFRAME XSTACK, 10, STACK
        LOCFRAME IOVERLAY, 0, STATIC
        LOCFRAME DOVERLAY, 0, STATIC
        ARGFRAME ISTACK, 0, STACK
        ARGFRAME PSTACK, 0, STACK
        ARGFRAME XSTACK, 10, STACK
        ARGFRAME IOVERLAY, 0, STATIC
        ARGFRAME DOVERLAY, 0, STATIC
        FUNCALL ZDApp_event_loop, osal_msg_receive
        LOCFRAME ISTACK, 0, STACK
        LOCFRAME PSTACK, 0, STACK
        LOCFRAME XSTACK, 10, STACK
        LOCFRAME IOVERLAY, 0, STATIC
        LOCFRAME DOVERLAY, 0, STATIC
        ARGFRAME ISTACK, 0, STACK
        ARGFRAME PSTACK, 0, STACK
        ARGFRAME XSTACK, 10, STACK
        ARGFRAME IOVERLAY, 0, STATIC
        ARGFRAME DOVERLAY, 0, STATIC
        FUNCALL ZDApp_event_loop, ZDO_UpdateNwkStatus
        LOCFRAME ISTACK, 0, STACK
        LOCFRAME PSTACK, 0, STACK
        LOCFRAME XSTACK, 10, STACK
        LOCFRAME IOVERLAY, 0, STATIC
        LOCFRAME DOVERLAY, 0, STATIC
        ARGFRAME ISTACK, 0, STACK
        ARGFRAME PSTACK, 0, STACK
        ARGFRAME XSTACK, 10, STACK
        ARGFRAME IOVERLAY, 0, STATIC
        ARGFRAME DOVERLAY, 0, STATIC
        FUNCALL ZDApp_event_loop, osal_start_timerEx
        LOCFRAME ISTACK, 0, STACK
        LOCFRAME PSTACK, 0, STACK
        LOCFRAME XSTACK, 10, STACK
        LOCFRAME IOVERLAY, 0, STATIC
        LOCFRAME DOVERLAY, 0, STATIC
        ARGFRAME ISTACK, 0, STACK
        ARGFRAME PSTACK, 0, STACK
        ARGFRAME XSTACK, 10, STACK
        ARGFRAME IOVERLAY, 0, STATIC
        ARGFRAME DOVERLAY, 0, STATIC
        FUNCALL ZDApp_event_loop, Onboard_soft_reset
        LOCFRAME ISTACK, 0, STACK
        LOCFRAME PSTACK, 0, STACK
        LOCFRAME XSTACK, 10, STACK
        LOCFRAME IOVERLAY, 0, STATIC
        LOCFRAME DOVERLAY, 0, STATIC
        ARGFRAME ISTACK, 0, STACK
        ARGFRAME PSTACK, 0, STACK
        ARGFRAME XSTACK, 10, STACK
        ARGFRAME IOVERLAY, 0, STATIC
        ARGFRAME DOVERLAY, 0, STATIC
        MOV     A,#-0xa
        LCALL   ?BANKED_ENTER_XDATA
        CFI DPH0 load(1, XDATA, add(CFA_XSP16, literal(-1)))
        CFI DPL0 load(1, XDATA, add(CFA_XSP16, literal(-2)))
        CFI ?BRET_EXT load(1, XDATA, add(CFA_XSP16, literal(-3)))
        CFI ?RET_HIGH load(1, XDATA, add(CFA_XSP16, literal(-4)))
        CFI ?RET_LOW load(1, XDATA, add(CFA_XSP16, literal(-5)))
        CFI R7 load(1, XDATA, add(CFA_XSP16, literal(-6)))
        CFI V1 load(1, XDATA, add(CFA_XSP16, literal(-7)))
        CFI V0 load(1, XDATA, add(CFA_XSP16, literal(-8)))
        CFI VB load(1, XDATA, add(CFA_XSP16, literal(-9)))
        CFI R6 load(1, XDATA, add(CFA_XSP16, literal(-10)))
        CFI CFA_SP SP+0
        CFI CFA_XSP16 add(XSP16, 10)
        ; Saved register size: 10
        ; Auto size: 0
        MOV     A,R2
        MOV     R6,A
        MOV     A,R3
        MOV     R7,A
//  353   uint8 *msg_ptr;
//  354 
//  355   if ( events & SYS_EVENT_MSG )
        MOV     A,#-0x80
        ANL     A,R7
        MOV     R1,A
        CLR     A
        JNZ     ??ZDApp_event_loop_0
        MOV     A,R1
??ZDApp_event_loop_0:
        JNZ     ??ZDApp_event_loop_1
//  356   {
//  357     while ( (msg_ptr = osal_msg_receive( ZDAppTaskID )) )
//  358     {
//  359       ZDApp_ProcessOSALMsg( (osal_event_hdr_t *)msg_ptr );
//  360 
//  361       // Release the memory
//  362       osal_msg_deallocate( msg_ptr );
//  363     }
//  364 
//  365     // Return unprocessed events
//  366     return (events ^ SYS_EVENT_MSG);
//  367   }
//  368 
//  369   if ( events & ZDO_NETWORK_INIT )
        MOV     A,R6
        MOV     C,0xE0 /* A   */.0
        JNC     ??ZDApp_event_loop_2
//  370   {
//  371     // Initialize apps and start the network
//  372     devState = DEV_INIT;
        MOV     A,#0x1
        MOV     DPTR,#devState
        MOVX    @DPTR,A
//  373 
//  374     ZDO_StartDevice( (uint8)ZDO_Config_Node_Descriptor.LogicalType, devStartMode,
//  375                      DEFAULT_BEACON_ORDER, DEFAULT_SUPERFRAME_ORDER );
        ; Setup parameters for call to function ZDO_StartDevice
        MOV     R4,#0xf
        MOV     R3,#0xf
        MOV     DPTR,#devStartMode
        MOVX    A,@DPTR
        MOV     R2,A
        MOV     DPTR,#ZDO_Config_Node_Descriptor
        MOVX    A,@DPTR
        ANL     A,#0x7
        MOV     R1,A
        LCALL   ??ZDO_StartDevice?relay
//  376 
//  377     // Return unprocessed events
//  378     return (events ^ ZDO_NETWORK_INIT);
        MOV     A,#0x1
??ZDApp_event_loop_3:
        XRL     A,R6
        MOV     R2,A
        MOV     A,R7
??ZDApp_event_loop_4:
        MOV     R3,A
        SJMP    ??ZDApp_event_loop_5
//  379   }
??ZDApp_event_loop_6:
        ; Setup parameters for call to function ZDApp_ProcessOSALMsg
        LCALL   ??ZDApp_ProcessOSALMsg?relay
        ; Setup parameters for call to function osal_msg_deallocate
        MOV     R2,?V0 + 0
        MOV     R3,?V0 + 1
        LCALL   ??osal_msg_deallocate?relay
??ZDApp_event_loop_1:
        ; Setup parameters for call to function osal_msg_receive
        MOV     DPTR,#ZDAppTaskID
        MOVX    A,@DPTR
        MOV     R1,A
        LCALL   ??osal_msg_receive?relay
        MOV     ?V0 + 0,R2
        MOV     ?V0 + 1,R3
        MOV     A,R2
        JNZ     ??ZDApp_event_loop_7
        MOV     A,R3
??ZDApp_event_loop_7:
        JNZ     ??ZDApp_event_loop_6
        MOV     A,R6
        MOV     R2,A
        MOV     A,#-0x80
??ZDApp_event_loop_8:
        XRL     A,R7
        SJMP    ??ZDApp_event_loop_4
//  380 
//  381   if ( ZSTACK_ROUTER_BUILD )
//  382   {
//  383     if ( events & ZDO_NETWORK_START )
//  384     {
//  385       ZDApp_NetworkStartEvt();
//  386 
//  387       // Return unprocessed events
//  388       return (events ^ ZDO_NETWORK_START);
//  389     }
//  390 
//  391     if ( events & ZDO_ROUTER_START )
//  392     {
//  393       if ( nwkStatus == ZSuccess )
//  394       {
//  395         if ( devState == DEV_END_DEVICE )
//  396           devState = DEV_ROUTER;
//  397 
//  398         osal_pwrmgr_device( PWRMGR_ALWAYS_ON );
//  399       }
//  400       else
//  401       {
//  402         // remain as end device!!
//  403       }
//  404       osal_set_event( ZDAppTaskID, ZDO_STATE_CHANGE_EVT );
//  405 
//  406       // Return unprocessed events
//  407       return (events ^ ZDO_ROUTER_START);
//  408     }
//  409   }
//  410 
//  411   if ( events & ZDO_STATE_CHANGE_EVT )
??ZDApp_event_loop_2:
        ANL     A,#0x10
        JZ      ??ZDApp_event_loop_9
//  412   {
//  413     ZDO_UpdateNwkStatus( devState );
        ; Setup parameters for call to function ZDO_UpdateNwkStatus
        MOV     DPTR,#devState
        MOVX    A,@DPTR
        MOV     R1,A
        LCALL   ??ZDO_UpdateNwkStatus?relay
//  414 
//  415     // At start up, do one MTO route discovery if the device is a concentrator
//  416     if ( zgConcentratorEnable == TRUE )
        MOV     DPTR,#zgConcentratorEnable
        MOVX    A,@DPTR
        XRL     A,#0x1
        JNZ     ??CrossCallReturnLabel_41
//  417     {
//  418       // Start next event
//  419       osal_start_timerEx( NWK_TaskID, NWK_MTO_RTG_REQ_EVT, 100 );
        ; Setup parameters for call to function osal_start_timerEx
        MOV     R4,#0x64
        MOV     R5,#0x0
        MOV     R2,#0x0
        MOV     R3,#0x8
        MOV     DPTR,#NWK_TaskID
        LCALL   ??Subroutine28_0 & 0xFFFF
//  420     }
//  421 
//  422     // Return unprocessed events
//  423     return (events ^ ZDO_STATE_CHANGE_EVT);
??CrossCallReturnLabel_41:
        MOV     A,#0x10
        SJMP    ??ZDApp_event_loop_3
//  424   }
//  425 
//  426   if ( events & ZDO_COMMAND_CNF )
??ZDApp_event_loop_9:
        MOV     A,R6
        ANL     A,#0x8
        JZ      ??ZDApp_event_loop_10
//  427   {
//  428     // User defined logic
//  429 
//  430     // Return unprocessed events
//  431     return (events ^ ZDO_COMMAND_CNF);
        MOV     A,#0x8
        XRL     A,R6
        MOV     R2,A
        SJMP    ??ZDApp_event_loop_5
//  432   }
//  433 
//  434   if ( events & ZDO_NWK_UPDATE_NV )
??ZDApp_event_loop_10:
        MOV     A,#0x2
        ANL     A,R7
        MOV     R1,A
        CLR     A
        JNZ     ??ZDApp_event_loop_11
        MOV     A,R1
??ZDApp_event_loop_11:
        JZ      ??ZDApp_event_loop_12
//  435   {
//  436     ZDApp_SaveNetworkStateEvt();
//  437 
//  438     // Return unprocessed events
//  439     return (events ^ ZDO_NWK_UPDATE_NV);
        MOV     A,#0x2
        SJMP    ??ZDApp_event_loop_8
//  440   }
//  441 
//  442   if ( events & ZDO_DEVICE_RESET )
??ZDApp_event_loop_12:
        MOV     A,R6
        ANL     A,#0x4
        JZ      ??ZDApp_event_loop_13
//  443   {
//  444     // The device has been in the UNAUTH state, so reset
//  445     // Note: there will be no return from this call
//  446     SystemResetSoft();
        ; Setup parameters for call to function Onboard_soft_reset
        LCALL   Onboard_soft_reset & 0xFFFF
//  447   }
//  448 
//  449   if ( ZG_SECURE_ENABLED )
//  450   {
//  451     return ( ZDApp_ProcessSecEvent( task_id, events ) );
//  452   }
//  453   else
//  454   {
//  455     // Discard or make more handlers
//  456     return 0;
??ZDApp_event_loop_13:
        MOV     R2,#0x0
        MOV     R3,#0x0
//  457   }
??ZDApp_event_loop_5:
        LJMP    ??Subroutine32_0 & 0xFFFF
        CFI EndBlock cfiBlock2
//  458 }
//  459 
//  460 /*********************************************************************
//  461  * @fn      ZDApp_ProcessSecEvent()
//  462  *
//  463  * @brief   Process incoming security events.
//  464  *
//  465  * @param   task_id - Task ID
//  466  * @param   events  - Bitmap of events
//  467  *
//  468  * @return  none
//  469  */

        RSEG BANKED_CODE:CODE:NOROOT(0)
//  470 UINT16 ZDApp_ProcessSecEvent( uint8 task_id, UINT16 events )
ZDApp_ProcessSecEvent:
        CFI Block cfiBlock3 Using cfiCommon0
        CFI Function ZDApp_ProcessSecEvent
//  471 {
        FUNCALL ZDApp_ProcessSecEvent, ZDApp_DeviceAuthEvt
        LOCFRAME ISTACK, 0, STACK
        LOCFRAME PSTACK, 0, STACK
        LOCFRAME XSTACK, 9, STACK
        LOCFRAME IOVERLAY, 0, STATIC
        LOCFRAME DOVERLAY, 0, STATIC
        ARGFRAME ISTACK, 0, STACK
        ARGFRAME PSTACK, 0, STACK
        ARGFRAME XSTACK, 9, STACK
        ARGFRAME IOVERLAY, 0, STATIC
        ARGFRAME DOVERLAY, 0, STATIC
        FUNCALL ZDApp_ProcessSecEvent, ZDApp_SaveNwkKey
        LOCFRAME ISTACK, 0, STACK
        LOCFRAME PSTACK, 0, STACK
        LOCFRAME XSTACK, 9, STACK
        LOCFRAME IOVERLAY, 0, STATIC
        LOCFRAME DOVERLAY, 0, STATIC
        ARGFRAME ISTACK, 0, STACK
        ARGFRAME PSTACK, 0, STACK
        ARGFRAME XSTACK, 9, STACK
        ARGFRAME IOVERLAY, 0, STATIC
        ARGFRAME DOVERLAY, 0, STATIC
        FUNCALL ZDApp_ProcessSecEvent, ZDSecMgrSaveTCLinkKey
        LOCFRAME ISTACK, 0, STACK
        LOCFRAME PSTACK, 0, STACK
        LOCFRAME XSTACK, 9, STACK
        LOCFRAME IOVERLAY, 0, STATIC
        LOCFRAME DOVERLAY, 0, STATIC
        ARGFRAME ISTACK, 0, STACK
        ARGFRAME PSTACK, 0, STACK
        ARGFRAME XSTACK, 9, STACK
        ARGFRAME IOVERLAY, 0, STATIC
        ARGFRAME DOVERLAY, 0, STATIC
        MOV     A,#-0x9
        LCALL   ?BANKED_ENTER_XDATA
        CFI DPH0 load(1, XDATA, add(CFA_XSP16, literal(-1)))
        CFI DPL0 load(1, XDATA, add(CFA_XSP16, literal(-2)))
        CFI ?BRET_EXT load(1, XDATA, add(CFA_XSP16, literal(-3)))
        CFI ?RET_HIGH load(1, XDATA, add(CFA_XSP16, literal(-4)))
        CFI ?RET_LOW load(1, XDATA, add(CFA_XSP16, literal(-5)))
        CFI R7 load(1, XDATA, add(CFA_XSP16, literal(-6)))
        CFI V0 load(1, XDATA, add(CFA_XSP16, literal(-7)))
        CFI VB load(1, XDATA, add(CFA_XSP16, literal(-8)))
        CFI R6 load(1, XDATA, add(CFA_XSP16, literal(-9)))
        CFI CFA_SP SP+0
        CFI CFA_XSP16 add(XSP16, 9)
        ; Saved register size: 9
        ; Auto size: 0
        MOV     A,R2
        MOV     R6,A
        MOV     A,R3
        MOV     R7,A
//  472   (void)task_id;  // Intentionally unreferenced parameter
//  473 
//  474   if ( ZSTACK_ROUTER_BUILD )
//  475   {
//  476     if ( events & ZDO_NEW_DEVICE )
//  477     {
//  478       // process the new device event
//  479       if ( ZDSecMgrNewDeviceEvent() == TRUE )
//  480       {
//  481         osal_start_timerEx( ZDAppTaskID, ZDO_NEW_DEVICE, 1000 );
//  482       }
//  483 
//  484       // Return unprocessed events
//  485       return (events ^ ZDO_NEW_DEVICE);
//  486     }
//  487   }
//  488 
//  489   if ( (ZG_CHECK_SECURITY_MODE == ZG_SECURITY_PRO_HIGH)
//  490       || (ZG_CHECK_SECURITY_MODE == ZG_SECURITY_SE_STANDARD) )
//  491   {
//  492     if ( ZG_BUILD_COORDINATOR_TYPE && ZG_DEVICE_COORDINATOR_TYPE )
//  493     {
//  494       if ( events & ZDO_SECMGR_EVENT )
//  495       {
//  496         ZDSecMgrEvent();
//  497 
//  498         // Return unprocessed events
//  499         return (events ^ ZDO_SECMGR_EVENT);
//  500       }
//  501     }
//  502   }
//  503 
//  504   if ( events & ZDO_DEVICE_AUTH )
        MOV     A,R6
        ANL     A,#0x80
        JZ      ??ZDApp_ProcessSecEvent_0
//  505   {
//  506     ZDApp_DeviceAuthEvt();
        ; Setup parameters for call to function ZDApp_DeviceAuthEvt
        LCALL   ??ZDApp_DeviceAuthEvt?relay
//  507 
//  508     // Return unprocessed events
//  509     return (events ^ ZDO_DEVICE_AUTH);
        MOV     A,#-0x80
        XRL     A,R6
        MOV     R2,A
        MOV     A,R7
??ZDApp_ProcessSecEvent_1:
        MOV     R3,A
        SJMP    ??ZDApp_ProcessSecEvent_2
//  510   }
//  511 
//  512   if ( events & ZDO_FRAMECOUNTER_CHANGE )
??ZDApp_ProcessSecEvent_0:
        MOV     A,#0x4
        ANL     A,R7
        MOV     R1,A
        CLR     A
        JNZ     ??ZDApp_ProcessSecEvent_3
        MOV     A,R1
??ZDApp_ProcessSecEvent_3:
        JZ      ??ZDApp_ProcessSecEvent_4
//  513   {
//  514     if ( nwkFrameCounterChanges++ > MAX_NWK_FRAMECOUNTER_CHANGES )
        MOV     DPTR,#nwkFrameCounterChanges
        LCALL   ?Subroutine9 & 0xFFFF
??CrossCallReturnLabel_6:
        MOV     A,#0x1
        ADD     A,R0
        MOV     R2,A
        CLR     A
        ADDC    A,R1
        MOV     R3,A
        MOV     DPTR,#nwkFrameCounterChanges
        LCALL   ??Subroutine33_0 & 0xFFFF
??CrossCallReturnLabel_48:
        CLR     C
        MOV     A,R0
        SUBB    A,#-0x17
        MOV     A,R1
        SUBB    A,#0x3
        JC      ??ZDApp_ProcessSecEvent_5
//  515     {
//  516       ZDApp_SaveNwkKey();
        ; Setup parameters for call to function ZDApp_SaveNwkKey
        LCALL   ??ZDApp_SaveNwkKey?relay
//  517     }
//  518 
//  519     // Return unprocessed events
//  520     return (events ^ ZDO_FRAMECOUNTER_CHANGE);
??ZDApp_ProcessSecEvent_5:
        MOV     A,R6
        MOV     R2,A
        MOV     A,#0x4
??ZDApp_ProcessSecEvent_6:
        XRL     A,R7
        SJMP    ??ZDApp_ProcessSecEvent_1
//  521   }
//  522 
//  523   if ( events & ZDO_APS_FRAMECOUNTER_CHANGE )
??ZDApp_ProcessSecEvent_4:
        MOV     A,#0x10
        ANL     A,R7
        MOV     R1,A
        CLR     A
        JNZ     ??ZDApp_ProcessSecEvent_7
        MOV     A,R1
??ZDApp_ProcessSecEvent_7:
        JZ      ??ZDApp_ProcessSecEvent_8
//  524   {
//  525 #if defined (NV_RESTORE)
//  526     ZDSecMgrSaveApsLinkKey();
//  527 #endif // (NV_RESTORE)
//  528     
//  529     // Return unprocessed events
//  530     return (events ^ ZDO_APS_FRAMECOUNTER_CHANGE);
        MOV     A,#0x10
        SJMP    ??ZDApp_ProcessSecEvent_6
//  531   }
//  532 
//  533   if ( events & ZDO_TCLK_FRAMECOUNTER_CHANGE )
??ZDApp_ProcessSecEvent_8:
        MOV     A,#0x8
        ANL     A,R7
        MOV     R1,A
        CLR     A
        JNZ     ??ZDApp_ProcessSecEvent_9
        MOV     A,R1
??ZDApp_ProcessSecEvent_9:
        JZ      ??ZDApp_ProcessSecEvent_10
//  534   {
//  535     ZDSecMgrSaveTCLinkKey();
        ; Setup parameters for call to function ZDSecMgrSaveTCLinkKey
        LCALL   ??ZDSecMgrSaveTCLinkKey?relay
//  536     
//  537     // Return unprocessed events
//  538     return (events ^ ZDO_TCLK_FRAMECOUNTER_CHANGE);
        MOV     A,R6
        MOV     R2,A
        MOV     A,#0x8
        SJMP    ??ZDApp_ProcessSecEvent_6
//  539   }
//  540   
//  541   // Discard or make more handlers
//  542   return 0;
??ZDApp_ProcessSecEvent_10:
        MOV     R2,#0x0
        MOV     R3,#0x0
??ZDApp_ProcessSecEvent_2:
        LJMP    ?Subroutine20 & 0xFFFF
        CFI EndBlock cfiBlock3
//  543 }
//  544 
//  545 /*********************************************************************
//  546  * Application Functions
//  547  */
//  548 
//  549 /*********************************************************************
//  550  * @fn      ZDOInitDevice
//  551  *
//  552  * @brief   Start the device in the network.  This function will read
//  553  *   ZCD_NV_STARTUP_OPTION (NV item) to determine whether or not to
//  554  *   restore the network state of the device.
//  555  *
//  556  * @param   startDelay - timeDelay to start device (in milliseconds).
//  557  *      There is a jitter added to this delay:
//  558  *              ((NWK_START_DELAY + startDelay)
//  559  *              + (osal_rand() & EXTENDED_JOINING_RANDOM_MASK))
//  560  *
//  561  * NOTE:    If the application would like to force a "new" join, the
//  562  *          application should set the ZCD_STARTOPT_DEFAULT_NETWORK_STATE
//  563  *          bit in the ZCD_NV_STARTUP_OPTION NV item before calling
//  564  *          this function. "new" join means to not restore the network
//  565  *          state of the device. Use zgWriteStartupOptions() to set these
//  566  *          options.
//  567  *
//  568  * @return
//  569  *    ZDO_INITDEV_RESTORED_NETWORK_STATE  - The device's network state was
//  570  *          restored.
//  571  *    ZDO_INITDEV_NEW_NETWORK_STATE - The network state was initialized.
//  572  *          This could mean that ZCD_NV_STARTUP_OPTION said to not restore, or
//  573  *          it could mean that there was no network state to restore.
//  574  *    ZDO_INITDEV_LEAVE_NOT_STARTED - Before the reset, a network leave was issued
//  575  *          with the rejoin option set to TRUE.  So, the device was not
//  576  *          started in the network (one time only).  The next time this
//  577  *          function is called it will start.
//  578  */

        RSEG BANKED_CODE:CODE:NOROOT(0)
//  579 uint8 ZDOInitDevice( uint16 startDelay )
ZDOInitDevice:
        CFI Block cfiBlock4 Using cfiCommon0
        CFI Function ZDOInitDevice
//  580 {
        FUNCALL ZDOInitDevice, zgInitItems
        LOCFRAME ISTACK, 0, STACK
        LOCFRAME PSTACK, 0, STACK
        LOCFRAME XSTACK, 12, STACK
        LOCFRAME IOVERLAY, 0, STATIC
        LOCFRAME DOVERLAY, 0, STATIC
        ARGFRAME ISTACK, 0, STACK
        ARGFRAME PSTACK, 0, STACK
        ARGFRAME XSTACK, 12, STACK
        ARGFRAME IOVERLAY, 0, STATIC
        ARGFRAME DOVERLAY, 0, STATIC
        FUNCALL ZDOInitDevice, ZDConfig_InitDescriptors
        LOCFRAME ISTACK, 0, STACK
        LOCFRAME PSTACK, 0, STACK
        LOCFRAME XSTACK, 12, STACK
        LOCFRAME IOVERLAY, 0, STATIC
        LOCFRAME DOVERLAY, 0, STATIC
        ARGFRAME ISTACK, 0, STACK
        ARGFRAME PSTACK, 0, STACK
        ARGFRAME XSTACK, 12, STACK
        ARGFRAME IOVERLAY, 0, STATIC
        ARGFRAME DOVERLAY, 0, STATIC
        FUNCALL ZDOInitDevice, ZDApp_LeaveCtrlInit
        LOCFRAME ISTACK, 0, STACK
        LOCFRAME PSTACK, 0, STACK
        LOCFRAME XSTACK, 12, STACK
        LOCFRAME IOVERLAY, 0, STATIC
        LOCFRAME DOVERLAY, 0, STATIC
        ARGFRAME ISTACK, 0, STACK
        ARGFRAME PSTACK, 0, STACK
        ARGFRAME XSTACK, 12, STACK
        ARGFRAME IOVERLAY, 0, STATIC
        ARGFRAME DOVERLAY, 0, STATIC
        FUNCALL ZDOInitDevice, ZDApp_LeaveCtrlStartup
        LOCFRAME ISTACK, 0, STACK
        LOCFRAME PSTACK, 0, STACK
        LOCFRAME XSTACK, 12, STACK
        LOCFRAME IOVERLAY, 0, STATIC
        LOCFRAME DOVERLAY, 0, STATIC
        ARGFRAME ISTACK, 0, STACK
        ARGFRAME PSTACK, 0, STACK
        ARGFRAME XSTACK, 12, STACK
        ARGFRAME IOVERLAY, 0, STATIC
        ARGFRAME DOVERLAY, 0, STATIC
        FUNCALL ZDOInitDevice, zgWriteStartupOptions
        LOCFRAME ISTACK, 0, STACK
        LOCFRAME PSTACK, 0, STACK
        LOCFRAME XSTACK, 12, STACK
        LOCFRAME IOVERLAY, 0, STATIC
        LOCFRAME DOVERLAY, 0, STATIC
        ARGFRAME ISTACK, 0, STACK
        ARGFRAME PSTACK, 0, STACK
        ARGFRAME XSTACK, 12, STACK
        ARGFRAME IOVERLAY, 0, STATIC
        ARGFRAME DOVERLAY, 0, STATIC
        FUNCALL ZDOInitDevice, osal_set_event
        LOCFRAME ISTACK, 0, STACK
        LOCFRAME PSTACK, 0, STACK
        LOCFRAME XSTACK, 12, STACK
        LOCFRAME IOVERLAY, 0, STATIC
        LOCFRAME DOVERLAY, 0, STATIC
        ARGFRAME ISTACK, 0, STACK
        ARGFRAME PSTACK, 0, STACK
        ARGFRAME XSTACK, 12, STACK
        ARGFRAME IOVERLAY, 0, STATIC
        ARGFRAME DOVERLAY, 0, STATIC
        FUNCALL ZDOInitDevice, ZDAppDetermineDeviceType
        LOCFRAME ISTACK, 0, STACK
        LOCFRAME PSTACK, 0, STACK
        LOCFRAME XSTACK, 12, STACK
        LOCFRAME IOVERLAY, 0, STATIC
        LOCFRAME DOVERLAY, 0, STATIC
        ARGFRAME ISTACK, 0, STACK
        ARGFRAME PSTACK, 0, STACK
        ARGFRAME XSTACK, 12, STACK
        ARGFRAME IOVERLAY, 0, STATIC
        ARGFRAME DOVERLAY, 0, STATIC
        FUNCALL ZDOInitDevice, osal_rand
        LOCFRAME ISTACK, 0, STACK
        LOCFRAME PSTACK, 0, STACK
        LOCFRAME XSTACK, 12, STACK
        LOCFRAME IOVERLAY, 0, STATIC
        LOCFRAME DOVERLAY, 0, STATIC
        ARGFRAME ISTACK, 0, STACK
        ARGFRAME PSTACK, 0, STACK
        ARGFRAME XSTACK, 12, STACK
        ARGFRAME IOVERLAY, 0, STATIC
        ARGFRAME DOVERLAY, 0, STATIC
        FUNCALL ZDOInitDevice, ZDSecMgrInit
        LOCFRAME ISTACK, 0, STACK
        LOCFRAME PSTACK, 0, STACK
        LOCFRAME XSTACK, 12, STACK
        LOCFRAME IOVERLAY, 0, STATIC
        LOCFRAME DOVERLAY, 0, STATIC
        ARGFRAME ISTACK, 0, STACK
        ARGFRAME PSTACK, 0, STACK
        ARGFRAME XSTACK, 12, STACK
        ARGFRAME IOVERLAY, 0, STATIC
        ARGFRAME DOVERLAY, 0, STATIC
        FUNCALL ZDOInitDevice, ZDApp_NetworkInit
        LOCFRAME ISTACK, 0, STACK
        LOCFRAME PSTACK, 0, STACK
        LOCFRAME XSTACK, 12, STACK
        LOCFRAME IOVERLAY, 0, STATIC
        LOCFRAME DOVERLAY, 0, STATIC
        ARGFRAME ISTACK, 0, STACK
        ARGFRAME PSTACK, 0, STACK
        ARGFRAME XSTACK, 12, STACK
        ARGFRAME IOVERLAY, 0, STATIC
        ARGFRAME DOVERLAY, 0, STATIC
        FUNCALL ZDOInitDevice, NLME_SetBroadcastFilter
        LOCFRAME ISTACK, 0, STACK
        LOCFRAME PSTACK, 0, STACK
        LOCFRAME XSTACK, 12, STACK
        LOCFRAME IOVERLAY, 0, STATIC
        LOCFRAME DOVERLAY, 0, STATIC
        ARGFRAME ISTACK, 0, STACK
        ARGFRAME PSTACK, 0, STACK
        ARGFRAME XSTACK, 12, STACK
        ARGFRAME IOVERLAY, 0, STATIC
        ARGFRAME DOVERLAY, 0, STATIC
        MOV     A,#-0xa
        LCALL   ?BANKED_ENTER_XDATA
        CFI DPH0 load(1, XDATA, add(CFA_XSP16, literal(-1)))
        CFI DPL0 load(1, XDATA, add(CFA_XSP16, literal(-2)))
        CFI ?BRET_EXT load(1, XDATA, add(CFA_XSP16, literal(-3)))
        CFI ?RET_HIGH load(1, XDATA, add(CFA_XSP16, literal(-4)))
        CFI ?RET_LOW load(1, XDATA, add(CFA_XSP16, literal(-5)))
        CFI R7 load(1, XDATA, add(CFA_XSP16, literal(-6)))
        CFI V1 load(1, XDATA, add(CFA_XSP16, literal(-7)))
        CFI V0 load(1, XDATA, add(CFA_XSP16, literal(-8)))
        CFI VB load(1, XDATA, add(CFA_XSP16, literal(-9)))
        CFI R6 load(1, XDATA, add(CFA_XSP16, literal(-10)))
        CFI CFA_SP SP+0
        CFI CFA_XSP16 add(XSP16, 10)
        ; Saved register size: 10
        ; Auto size: 2
        MOV     A,#-0x2
        LCALL   ?ALLOC_XSTACK8
        CFI CFA_XSP16 add(XSP16, 12)
        LCALL   ?Subroutine2 & 0xFFFF
//  581   uint8 networkStateNV = ZDO_INITDEV_NEW_NETWORK_STATE;
//  582   uint16 extendedDelay = 0;
//  583 
//  584   if ( devState == DEV_HOLD )
??CrossCallReturnLabel_52:
        MOV     DPTR,#devState
        MOVX    A,@DPTR
        JNZ     ??ZDOInitDevice_0
//  585   {
//  586     // Initialize the RAM items table, in case an NV item has been updated.
//  587     zgInitItems( FALSE );
        ; Setup parameters for call to function zgInitItems
        MOV     R1,#0x0
        LCALL   ??zgInitItems?relay
//  588   }
//  589 
//  590   ZDConfig_InitDescriptors();
??ZDOInitDevice_0:
        ; Setup parameters for call to function ZDConfig_InitDescriptors
        LCALL   ??ZDConfig_InitDescriptors?relay
//  591   //devtag.071807.todo - fix this temporary solution
//  592   _NIB.CapabilityFlags = ZDO_Config_Node_Descriptor.CapabilityFlags;
        MOV     DPTR,#(ZDO_Config_Node_Descriptor + 2)
        MOVX    A,@DPTR
        MOV     DPTR,#(_NIB + 14)
        MOVX    @DPTR,A
//  593 
//  594   devState = DEV_INIT;    // Remove the Hold state
        MOV     A,#0x1
        MOV     DPTR,#devState
        MOVX    @DPTR,A
//  595 
//  596   // Initialize leave control logic
//  597   ZDApp_LeaveCtrlInit();
        ; Setup parameters for call to function ZDApp_LeaveCtrlInit
        LCALL   ??ZDApp_LeaveCtrlInit?relay
//  598 
//  599   // Check leave control reset settings
//  600   ZDApp_LeaveCtrlStartup( &devState, &startDelay );
        ; Setup parameters for call to function ZDApp_LeaveCtrlStartup
        MOV     DPL,?XSP + 0
        MOV     DPH,?XSP + 1
        MOV     R4,DPL
        MOV     R5,DPH
        MOV     R2,#(devState & 0xff)
        MOV     R3,#((devState >> 8) & 0xff)
        LCALL   ??ZDApp_LeaveCtrlStartup?relay
//  601 
//  602   // Leave may make the hold state come back
//  603   if ( devState == DEV_HOLD )
        MOV     DPTR,#devState
        MOVX    A,@DPTR
        JNZ     ??ZDOInitDevice_1
//  604   {
//  605     // Set the NV startup option to force a "new" join.
//  606     zgWriteStartupOptions( ZG_STARTUP_SET, ZCD_STARTOPT_DEFAULT_NETWORK_STATE );
        ; Setup parameters for call to function zgWriteStartupOptions
        MOV     R2,#0x2
        MOV     R1,#-0x1
        LCALL   ??zgWriteStartupOptions?relay
//  607 
//  608     // Notify the applications
//  609     osal_set_event( ZDAppTaskID, ZDO_STATE_CHANGE_EVT );
        ; Setup parameters for call to function osal_set_event
        LCALL   ?Subroutine4 & 0xFFFF
//  610 
//  611     return ( ZDO_INITDEV_LEAVE_NOT_STARTED );   // Don't join - (one time).
??CrossCallReturnLabel_21:
        MOV     R1,#0x2
        SJMP    ??ZDOInitDevice_2
//  612   }
//  613 
//  614 #if defined ( NV_RESTORE )
//  615   // Get Keypad directly to see if a reset nv is needed.
//  616   // Hold down the SW_BYPASS_NV key (defined in OnBoard.h)
//  617   // while booting to skip past NV Restore.
//  618   if ( HalKeyRead() == SW_BYPASS_NV )
//  619     networkStateNV = ZDO_INITDEV_NEW_NETWORK_STATE;
//  620   else
//  621   {
//  622     // Determine if NV should be restored
//  623     networkStateNV = ZDApp_ReadNetworkRestoreState();
//  624   }
//  625 
//  626   if ( networkStateNV == ZDO_INITDEV_RESTORED_NETWORK_STATE )
//  627   {
//  628     networkStateNV = ZDApp_RestoreNetworkState();
//  629   }
//  630   else
//  631   {
//  632     // Wipe out the network state in NV
//  633     NLME_InitNV();
//  634     NLME_SetDefaultNV();
//  635     // clear NWK key values
//  636     ZDSecMgrClearNVKeyValues();
//  637   }
//  638 #endif
//  639 
//  640   if ( networkStateNV == ZDO_INITDEV_NEW_NETWORK_STATE )
//  641   {
//  642     ZDAppDetermineDeviceType();
??ZDOInitDevice_1:
        ; Setup parameters for call to function ZDAppDetermineDeviceType
        LCALL   ??ZDAppDetermineDeviceType?relay
//  643 
//  644     // Only delay if joining network - not restoring network state
//  645     extendedDelay = (uint16)((NWK_START_DELAY + startDelay)
//  646               + (osal_rand() & EXTENDED_JOINING_RANDOM_MASK));
        ; Setup parameters for call to function osal_rand
        LCALL   ??osal_rand?relay
        MOV     ?V0 + 0,R2
        MOV     R0,?V0 + 0
        MOV     DPL,?XSP + 0
        MOV     DPH,?XSP + 1
        MOV     A,#0x7f
        ANL     A,R0
        MOV     R0,A
        MOVX    A,@DPTR
        ADD     A,R0
        MOV     R0,A
        INC     DPTR
        MOVX    A,@DPTR
        ADDC    A,#0x0
        MOV     R1,A
        MOV     A,#0x64
        ADD     A,R0
        MOV     R6,A
        CLR     A
        ADDC    A,R1
        MOV     R7,A
//  647   }
//  648 
//  649   // Initialize the security for type of device
//  650   ZDApp_SecInit( networkStateNV );
        ; Setup parameters for call to function ZDSecMgrInit
        MOV     R1,#0x1
        LCALL   ??ZDSecMgrInit?relay
//  651 
//  652   // Trigger the network start
//  653   ZDApp_NetworkInit( extendedDelay );
        ; Setup parameters for call to function ZDApp_NetworkInit
        MOV     A,R6
        MOV     R2,A
        MOV     A,R7
        MOV     R3,A
        LCALL   ??ZDApp_NetworkInit?relay
//  654 
//  655   // set broadcast address mask to support broadcast filtering
//  656   NLME_SetBroadcastFilter( ZDO_Config_Node_Descriptor.CapabilityFlags );
        ; Setup parameters for call to function NLME_SetBroadcastFilter
        MOV     DPTR,#(ZDO_Config_Node_Descriptor + 2)
        MOVX    A,@DPTR
        MOV     R1,A
        LCALL   ??NLME_SetBroadcastFilter?relay
//  657 
//  658   return ( networkStateNV );
        MOV     R1,#0x1
??ZDOInitDevice_2:
        LJMP    ?Subroutine19 & 0xFFFF
        CFI EndBlock cfiBlock4
//  659 }
//  660 
//  661 /*********************************************************************
//  662  * @fn      ZDApp_ReadNetworkRestoreState
//  663  *
//  664  * @brief   Read the ZCD_NV_STARTUP_OPTION NV Item to state whether
//  665  *          or not to restore the network state.
//  666  *          If the read value has the ZCD_STARTOPT_DEFAULT_NETWORK_STATE
//  667  *          bit set return the ZDO_INITDEV_NEW_NETWORK_STATE.
//  668  *
//  669  * @param   none
//  670  *
//  671  * @return  ZDO_INITDEV_NEW_NETWORK_STATE
//  672  *          or ZDO_INITDEV_RESTORED_NETWORK_STATE based on whether or
//  673  *          not ZCD_STARTOPT_DEFAULT_NETWORK_STATE bit is set in
//  674  *          ZCD_NV_STARTUP_OPTION
//  675  */

        RSEG BANKED_CODE:CODE:NOROOT(0)
//  676 uint8 ZDApp_ReadNetworkRestoreState( void )
ZDApp_ReadNetworkRestoreState:
        CFI Block cfiBlock5 Using cfiCommon0
        CFI Function ZDApp_ReadNetworkRestoreState
//  677 {
        FUNCALL ZDApp_ReadNetworkRestoreState, zgReadStartupOptions
        LOCFRAME ISTACK, 0, STACK
        LOCFRAME PSTACK, 0, STACK
        LOCFRAME XSTACK, 9, STACK
        LOCFRAME IOVERLAY, 0, STATIC
        LOCFRAME DOVERLAY, 0, STATIC
        ARGFRAME ISTACK, 0, STACK
        ARGFRAME PSTACK, 0, STACK
        ARGFRAME XSTACK, 9, STACK
        ARGFRAME IOVERLAY, 0, STATIC
        ARGFRAME DOVERLAY, 0, STATIC
        MOV     A,#-0x9
        LCALL   ?BANKED_ENTER_XDATA
        CFI DPH0 load(1, XDATA, add(CFA_XSP16, literal(-1)))
        CFI DPL0 load(1, XDATA, add(CFA_XSP16, literal(-2)))
        CFI ?BRET_EXT load(1, XDATA, add(CFA_XSP16, literal(-3)))
        CFI ?RET_HIGH load(1, XDATA, add(CFA_XSP16, literal(-4)))
        CFI ?RET_LOW load(1, XDATA, add(CFA_XSP16, literal(-5)))
        CFI R7 load(1, XDATA, add(CFA_XSP16, literal(-6)))
        CFI V0 load(1, XDATA, add(CFA_XSP16, literal(-7)))
        CFI VB load(1, XDATA, add(CFA_XSP16, literal(-8)))
        CFI R6 load(1, XDATA, add(CFA_XSP16, literal(-9)))
        CFI CFA_SP SP+0
        CFI CFA_XSP16 add(XSP16, 9)
        ; Saved register size: 9
        ; Auto size: 0
//  678   uint8 networkStateNV = ZDO_INITDEV_RESTORED_NETWORK_STATE;
        MOV     R6,#0x0
//  679 
//  680   // Look for the New Network State option.
//  681   if ( zgReadStartupOptions() & ZCD_STARTOPT_DEFAULT_NETWORK_STATE )
        ; Setup parameters for call to function zgReadStartupOptions
        LCALL   ??zgReadStartupOptions?relay
        MOV     A,R1
        MOV     C,0xE0 /* A   */.1
        JNC     ??ZDApp_ReadNetworkRestoreState_0
//  682   {
//  683     networkStateNV = ZDO_INITDEV_NEW_NETWORK_STATE;
        INC     R6
//  684   }
//  685 
//  686   return ( networkStateNV );
??ZDApp_ReadNetworkRestoreState_0:
        MOV     A,R6
        MOV     R1,A
        LJMP    ?Subroutine20 & 0xFFFF
        CFI EndBlock cfiBlock5
//  687 }
//  688 
//  689 /*********************************************************************
//  690  * @fn      ZDAppDetermineDeviceType()
//  691  *
//  692  * @brief   Determines the type of device to start.
//  693  *
//  694  *          Looks at zgDeviceLogicalType and determines what type of
//  695  *          device to start.  The types are:
//  696  *            ZG_DEVICETYPE_COORDINATOR
//  697  *            ZG_DEVICETYPE_ROUTER
//  698  *            ZG_DEVICETYPE_ENDDEVICE
//  699  *
//  700  * @param   none
//  701  *
//  702  * @return  none
//  703  */

        RSEG BANKED_CODE:CODE:NOROOT(0)
//  704 void ZDAppDetermineDeviceType( void )
ZDAppDetermineDeviceType:
        CFI Block cfiBlock6 Using cfiCommon0
        CFI Function ZDAppDetermineDeviceType
//  705 {
        FUNCALL ZDAppDetermineDeviceType, nwk_ExtPANIDValid
        LOCFRAME ISTACK, 2, STACK
        LOCFRAME PSTACK, 0, STACK
        LOCFRAME XSTACK, 0, STACK
        LOCFRAME IOVERLAY, 0, STATIC
        LOCFRAME DOVERLAY, 0, STATIC
        ARGFRAME ISTACK, 2, STACK
        ARGFRAME PSTACK, 0, STACK
        ARGFRAME XSTACK, 0, STACK
        ARGFRAME IOVERLAY, 0, STATIC
        ARGFRAME DOVERLAY, 0, STATIC
        PUSH    DPL
        CFI DPL0 Frame(CFA_SP, 4)
        CFI CFA_SP SP+-4
        PUSH    DPH
        CFI DPH0 Frame(CFA_SP, 5)
        CFI CFA_SP SP+-5
        ; Saved register size: 2
        ; Auto size: 0
//  706   if ( zgDeviceLogicalType == ZG_DEVICETYPE_COORDINATOR )
        MOV     DPTR,#zgDeviceLogicalType
        MOVX    A,@DPTR
        JNZ     ??ZDAppDetermineDeviceType_0
//  707   {
//  708     devStartMode = MODE_HARD;     // Start as a coordinator
        MOV     A,#0x2
        MOV     DPTR,#devStartMode
        MOVX    @DPTR,A
//  709     ZDO_Config_Node_Descriptor.LogicalType = NODETYPE_COORDINATOR;
        MOV     DPTR,#ZDO_Config_Node_Descriptor
        MOVX    A,@DPTR
        ANL     A,#0xf8
        SJMP    ??ZDAppDetermineDeviceType_1
//  710   }
//  711   else
//  712   {
//  713     if ( zgDeviceLogicalType == ZG_DEVICETYPE_ROUTER  )
??ZDAppDetermineDeviceType_0:
        XRL     A,#0x1
        JNZ     ??ZDAppDetermineDeviceType_2
//  714       ZDO_Config_Node_Descriptor.LogicalType = NODETYPE_ROUTER;
        MOV     DPTR,#ZDO_Config_Node_Descriptor
        MOVX    A,@DPTR
        ANL     A,#0xf8
        ORL     A,#0x1
        SJMP    ??ZDAppDetermineDeviceType_3
//  715     else if ( zgDeviceLogicalType == ZG_DEVICETYPE_ENDDEVICE )
??ZDAppDetermineDeviceType_2:
        MOVX    A,@DPTR
        XRL     A,#0x2
        JNZ     ??ZDAppDetermineDeviceType_4
//  716       ZDO_Config_Node_Descriptor.LogicalType = NODETYPE_DEVICE;
        MOV     DPTR,#ZDO_Config_Node_Descriptor
        MOVX    A,@DPTR
        ANL     A,#0xf8
        ORL     A,#0x2
??ZDAppDetermineDeviceType_3:
        MOVX    @DPTR,A
//  717 
//  718     // If AIB_apsUseExtendedPANID is set to a non-zero value by commissioning
//  719     // The device shall do rejoin the network. Otherwise, do normal join
//  720     if ( nwk_ExtPANIDValid( AIB_apsUseExtendedPANID ) == false )
??ZDAppDetermineDeviceType_4:
        ; Setup parameters for call to function nwk_ExtPANIDValid
        MOV     R2,#(AIB_apsUseExtendedPANID & 0xff)
        MOV     R3,#((AIB_apsUseExtendedPANID >> 8) & 0xff)
        LCALL   ??nwk_ExtPANIDValid?relay
        MOV     A,R1
        JNZ     ??ZDAppDetermineDeviceType_5
//  721     {
//  722       devStartMode = MODE_JOIN;     // Assume joining
        CLR     A
        SJMP    ??ZDAppDetermineDeviceType_6
//  723     }
//  724     else
//  725     {
//  726       devStartMode = MODE_REJOIN;
??ZDAppDetermineDeviceType_5:
        MOV     A,#0x3
??ZDAppDetermineDeviceType_6:
        MOV     DPTR,#devStartMode
??ZDAppDetermineDeviceType_1:
        MOVX    @DPTR,A
//  727     }
//  728   }
//  729 }
        LJMP    ??Subroutine29_0 & 0xFFFF
        CFI EndBlock cfiBlock6
//  730 
//  731 /*********************************************************************
//  732  * @fn      ZDApp_NetworkStartEvt()
//  733  *
//  734  * @brief   Process the Network Start Event
//  735  *
//  736  * @param   none
//  737  *
//  738  * @return  none
//  739  */

        RSEG BANKED_CODE:CODE:NOROOT(0)
//  740 void ZDApp_NetworkStartEvt( void )
ZDApp_NetworkStartEvt:
        CFI Block cfiBlock7 Using cfiCommon0
        CFI Function ZDApp_NetworkStartEvt
//  741 {
        FUNCALL ZDApp_NetworkStartEvt, osal_pwrmgr_device
        LOCFRAME ISTACK, 2, STACK
        LOCFRAME PSTACK, 0, STACK
        LOCFRAME XSTACK, 0, STACK
        LOCFRAME IOVERLAY, 0, STATIC
        LOCFRAME DOVERLAY, 0, STATIC
        ARGFRAME ISTACK, 2, STACK
        ARGFRAME PSTACK, 0, STACK
        ARGFRAME XSTACK, 0, STACK
        ARGFRAME IOVERLAY, 0, STATIC
        ARGFRAME DOVERLAY, 0, STATIC
        FUNCALL ZDApp_NetworkStartEvt, osal_set_event
        LOCFRAME ISTACK, 2, STACK
        LOCFRAME PSTACK, 0, STACK
        LOCFRAME XSTACK, 0, STACK
        LOCFRAME IOVERLAY, 0, STATIC
        LOCFRAME DOVERLAY, 0, STATIC
        ARGFRAME ISTACK, 2, STACK
        ARGFRAME PSTACK, 0, STACK
        ARGFRAME XSTACK, 0, STACK
        ARGFRAME IOVERLAY, 0, STATIC
        ARGFRAME DOVERLAY, 0, STATIC
        FUNCALL ZDApp_NetworkStartEvt, NLME_GetEnergyThreshold
        LOCFRAME ISTACK, 2, STACK
        LOCFRAME PSTACK, 0, STACK
        LOCFRAME XSTACK, 0, STACK
        LOCFRAME IOVERLAY, 0, STATIC
        LOCFRAME DOVERLAY, 0, STATIC
        ARGFRAME ISTACK, 2, STACK
        ARGFRAME PSTACK, 0, STACK
        ARGFRAME XSTACK, 0, STACK
        ARGFRAME IOVERLAY, 0, STATIC
        ARGFRAME DOVERLAY, 0, STATIC
        FUNCALL ZDApp_NetworkStartEvt, NLME_GetEnergyThreshold
        LOCFRAME ISTACK, 2, STACK
        LOCFRAME PSTACK, 0, STACK
        LOCFRAME XSTACK, 0, STACK
        LOCFRAME IOVERLAY, 0, STATIC
        LOCFRAME DOVERLAY, 0, STATIC
        ARGFRAME ISTACK, 2, STACK
        ARGFRAME PSTACK, 0, STACK
        ARGFRAME XSTACK, 0, STACK
        ARGFRAME IOVERLAY, 0, STATIC
        ARGFRAME DOVERLAY, 0, STATIC
        FUNCALL ZDApp_NetworkStartEvt, NLME_SetEnergyThreshold
        LOCFRAME ISTACK, 2, STACK
        LOCFRAME PSTACK, 0, STACK
        LOCFRAME XSTACK, 0, STACK
        LOCFRAME IOVERLAY, 0, STATIC
        LOCFRAME DOVERLAY, 0, STATIC
        ARGFRAME ISTACK, 2, STACK
        ARGFRAME PSTACK, 0, STACK
        ARGFRAME XSTACK, 0, STACK
        ARGFRAME IOVERLAY, 0, STATIC
        ARGFRAME DOVERLAY, 0, STATIC
        FUNCALL ZDApp_NetworkStartEvt, osal_set_event
        LOCFRAME ISTACK, 2, STACK
        LOCFRAME PSTACK, 0, STACK
        LOCFRAME XSTACK, 0, STACK
        LOCFRAME IOVERLAY, 0, STATIC
        LOCFRAME DOVERLAY, 0, STATIC
        ARGFRAME ISTACK, 2, STACK
        ARGFRAME PSTACK, 0, STACK
        ARGFRAME XSTACK, 0, STACK
        ARGFRAME IOVERLAY, 0, STATIC
        ARGFRAME DOVERLAY, 0, STATIC
        FUNCALL ZDApp_NetworkStartEvt, osal_set_event
        LOCFRAME ISTACK, 2, STACK
        LOCFRAME PSTACK, 0, STACK
        LOCFRAME XSTACK, 0, STACK
        LOCFRAME IOVERLAY, 0, STATIC
        LOCFRAME DOVERLAY, 0, STATIC
        ARGFRAME ISTACK, 2, STACK
        ARGFRAME PSTACK, 0, STACK
        ARGFRAME XSTACK, 0, STACK
        ARGFRAME IOVERLAY, 0, STATIC
        ARGFRAME DOVERLAY, 0, STATIC
        PUSH    DPL
        CFI DPL0 Frame(CFA_SP, 4)
        CFI CFA_SP SP+-4
        PUSH    DPH
        CFI DPH0 Frame(CFA_SP, 5)
        CFI CFA_SP SP+-5
        ; Saved register size: 2
        ; Auto size: 0
//  742   if ( nwkStatus == ZSuccess )
        MOV     DPTR,#nwkStatus
        MOVX    A,@DPTR
        JNZ     ??ZDApp_NetworkStartEvt_0
//  743   {
//  744     // Successfully started a ZigBee network
//  745     if ( devState == DEV_COORD_STARTING )
        MOV     DPTR,#devState
        MOVX    A,@DPTR
        XRL     A,#0x8
        JNZ     ??ZDApp_NetworkStartEvt_1
//  746     {
//  747       devState = DEV_ZB_COORD;
        MOV     A,#0x9
        MOVX    @DPTR,A
//  748     }
//  749 
//  750     osal_pwrmgr_device( PWRMGR_ALWAYS_ON );
??ZDApp_NetworkStartEvt_1:
        ; Setup parameters for call to function osal_pwrmgr_device
        MOV     R1,#0x0
        LCALL   ??osal_pwrmgr_device?relay
//  751     osal_set_event( ZDAppTaskID, ZDO_STATE_CHANGE_EVT );
        ; Setup parameters for call to function osal_set_event
        SJMP    ??ZDApp_NetworkStartEvt_2
//  752   }
//  753   else
//  754   {
//  755     // Try again with a higher energy threshold !!
//  756     if ( ( NLME_GetEnergyThreshold() + ENERGY_SCAN_INCREMENT ) < 0xff )
??ZDApp_NetworkStartEvt_0:
        ; Setup parameters for call to function NLME_GetEnergyThreshold
        LCALL   ??NLME_GetEnergyThreshold?relay
        MOV     A,R1
        MOV     R0,A
        MOV     A,#0x10
        ADD     A,R0
        MOV     R0,A
        CLR     A
        ADDC    A,#0x0
        MOV     R1,A
        MOV     A,R0
        SUBB    A,#-0x1
        MOV     A,R1
        SUBB    A,#0x0
        CLR     C
        XRL     A,PSW
        RLC     A
        JNC     ??ZDApp_NetworkStartEvt_3
//  757     {
//  758       NLME_SetEnergyThreshold( (uint8)(NLME_GetEnergyThreshold() + ENERGY_SCAN_INCREMENT) );
        ; Setup parameters for call to function NLME_SetEnergyThreshold
        ; Setup parameters for call to function NLME_GetEnergyThreshold
        LCALL   ??NLME_GetEnergyThreshold?relay
        MOV     A,R1
        ADD     A,#0x10
        MOV     R1,A
        LCALL   ??NLME_SetEnergyThreshold?relay
//  759       osal_set_event( ZDAppTaskID, ZDO_NETWORK_INIT );
        ; Setup parameters for call to function osal_set_event
        MOV     R2,#0x1
        SJMP    ??ZDApp_NetworkStartEvt_4
//  760     }
//  761     else
//  762     {
//  763       // Failed to start network. Enter a dormant state (until user intervenes)
//  764       devState = DEV_INIT;
??ZDApp_NetworkStartEvt_3:
        MOV     A,#0x1
        MOV     DPTR,#devState
        MOVX    @DPTR,A
//  765       osal_set_event( ZDAppTaskID, ZDO_STATE_CHANGE_EVT );
        ; Setup parameters for call to function osal_set_event
??ZDApp_NetworkStartEvt_2:
        MOV     R2,#0x10
        CFI EndBlock cfiBlock7
//  766     }
//  767   }
??ZDApp_NetworkStartEvt_4:
        REQUIRE ?Subroutine23
        ; // Fall through to label ?Subroutine23
//  768 }

        RSEG BANKED_CODE:CODE:NOROOT(0)
?Subroutine23:
        CFI Block cfiBlock8 Using cfiCommon0
        CFI NoFunction
        CFI CFA_SP SP+-5
        CFI DPL0 Frame(CFA_SP, 4)
        CFI DPH0 Frame(CFA_SP, 5)
        LCALL   ?Subroutine21 & 0xFFFF
??CrossCallReturnLabel_24:
        LJMP    ??Subroutine29_0 & 0xFFFF
        CFI EndBlock cfiBlock8
//  769 
//  770 /*********************************************************************
//  771  * @fn      ZDApp_DeviceAuthEvt()
//  772  *
//  773  * @brief   Process the Device Authentic Event
//  774  *
//  775  * @param   none
//  776  *
//  777  * @return  none
//  778  */

        RSEG BANKED_CODE:CODE:NOROOT(0)
//  779 void ZDApp_DeviceAuthEvt( void )
ZDApp_DeviceAuthEvt:
        CFI Block cfiBlock9 Using cfiCommon0
        CFI Function ZDApp_DeviceAuthEvt
//  780 {
        FUNCALL ZDApp_DeviceAuthEvt, ZDApp_ResetTimerCancel
        LOCFRAME ISTACK, 2, STACK
        LOCFRAME PSTACK, 0, STACK
        LOCFRAME XSTACK, 0, STACK
        LOCFRAME IOVERLAY, 0, STATIC
        LOCFRAME DOVERLAY, 0, STATIC
        ARGFRAME ISTACK, 2, STACK
        ARGFRAME PSTACK, 0, STACK
        ARGFRAME XSTACK, 0, STACK
        ARGFRAME IOVERLAY, 0, STATIC
        ARGFRAME DOVERLAY, 0, STATIC
        FUNCALL ZDApp_DeviceAuthEvt, osal_set_event
        LOCFRAME ISTACK, 2, STACK
        LOCFRAME PSTACK, 0, STACK
        LOCFRAME XSTACK, 0, STACK
        LOCFRAME IOVERLAY, 0, STATIC
        LOCFRAME DOVERLAY, 0, STATIC
        ARGFRAME ISTACK, 2, STACK
        ARGFRAME PSTACK, 0, STACK
        ARGFRAME XSTACK, 0, STACK
        ARGFRAME IOVERLAY, 0, STATIC
        ARGFRAME DOVERLAY, 0, STATIC
        FUNCALL ZDApp_DeviceAuthEvt, ZDApp_SaveNwkKey
        LOCFRAME ISTACK, 2, STACK
        LOCFRAME PSTACK, 0, STACK
        LOCFRAME XSTACK, 0, STACK
        LOCFRAME IOVERLAY, 0, STATIC
        LOCFRAME DOVERLAY, 0, STATIC
        ARGFRAME ISTACK, 2, STACK
        ARGFRAME PSTACK, 0, STACK
        ARGFRAME XSTACK, 0, STACK
        ARGFRAME IOVERLAY, 0, STATIC
        ARGFRAME DOVERLAY, 0, STATIC
        FUNCALL ZDApp_DeviceAuthEvt, ZDApp_AnnounceNewAddress
        LOCFRAME ISTACK, 2, STACK
        LOCFRAME PSTACK, 0, STACK
        LOCFRAME XSTACK, 0, STACK
        LOCFRAME IOVERLAY, 0, STATIC
        LOCFRAME DOVERLAY, 0, STATIC
        ARGFRAME ISTACK, 2, STACK
        ARGFRAME PSTACK, 0, STACK
        ARGFRAME XSTACK, 0, STACK
        ARGFRAME IOVERLAY, 0, STATIC
        ARGFRAME DOVERLAY, 0, STATIC
        FUNCALL ZDApp_DeviceAuthEvt, NLME_SetPollRate
        LOCFRAME ISTACK, 2, STACK
        LOCFRAME PSTACK, 0, STACK
        LOCFRAME XSTACK, 0, STACK
        LOCFRAME IOVERLAY, 0, STATIC
        LOCFRAME DOVERLAY, 0, STATIC
        ARGFRAME ISTACK, 2, STACK
        ARGFRAME PSTACK, 0, STACK
        ARGFRAME XSTACK, 0, STACK
        ARGFRAME IOVERLAY, 0, STATIC
        ARGFRAME DOVERLAY, 0, STATIC
        PUSH    DPL
        CFI DPL0 Frame(CFA_SP, 4)
        CFI CFA_SP SP+-4
        PUSH    DPH
        CFI DPH0 Frame(CFA_SP, 5)
        CFI CFA_SP SP+-5
        ; Saved register size: 2
        ; Auto size: 0
//  781   // received authentication from trust center
//  782   if ( devState == DEV_END_DEVICE_UNAUTH )
        MOV     DPTR,#devState
        MOVX    A,@DPTR
        XRL     A,#0x5
        JNZ     ??ZDApp_DeviceAuthEvt_0
//  783   {
//  784     // Stop the reset timer so it doesn't reset
//  785     ZDApp_ResetTimerCancel();
        ; Setup parameters for call to function ZDApp_ResetTimerCancel
        LCALL   ??ZDApp_ResetTimerCancel?relay
//  786 
//  787     devState = DEV_END_DEVICE;
        LCALL   ?Subroutine0 & 0xFFFF
//  788     osal_set_event( ZDAppTaskID, ZDO_STATE_CHANGE_EVT );
//  789 
//  790     // Set the Power Manager Device
//  791 #if defined ( POWER_SAVING )
//  792     osal_pwrmgr_device( PWRMGR_BATTERY );
//  793 #endif
//  794 
//  795     if ( ZSTACK_ROUTER_BUILD )
//  796     {
//  797       if ( ZDO_Config_Node_Descriptor.LogicalType != NODETYPE_DEVICE )
//  798       {
//  799         // NOTE: first two parameters are not used, see NLMEDE.h for details
//  800         NLME_StartRouterRequest( 0, 0, false );
//  801       }
//  802     }
//  803 
//  804     // Notify to save info into NV
//  805     ZDApp_NVUpdate();
//  806 
//  807     // Save off the security
//  808     ZDApp_SaveNwkKey();
??CrossCallReturnLabel_26:
        ; Setup parameters for call to function ZDApp_SaveNwkKey
        LCALL   ??ZDApp_SaveNwkKey?relay
//  809 
//  810     ZDApp_AnnounceNewAddress();
        ; Setup parameters for call to function ZDApp_AnnounceNewAddress
        LCALL   ??ZDApp_AnnounceNewAddress?relay
//  811 
//  812     if ( (ZDO_Config_Node_Descriptor.CapabilityFlags & CAPINFO_RCVR_ON_IDLE) == 0 )
        MOV     DPTR,#(ZDO_Config_Node_Descriptor + 2)
        MOVX    A,@DPTR
        MOV     C,0xE0 /* A   */.3
        JC      ??ZDApp_DeviceAuthEvt_0
//  813     {
//  814       NLME_SetPollRate( ZDApp_SavedPollRate );
        ; Setup parameters for call to function NLME_SetPollRate
        MOV     DPTR,#ZDApp_SavedPollRate
        MOVX    A,@DPTR
        MOV     R2,A
        INC     DPTR
        MOVX    A,@DPTR
        MOV     R3,A
        LCALL   ??NLME_SetPollRate?relay
//  815     }
//  816   }
//  817   else
//  818   {
//  819     ZDApp_NVUpdate();
//  820   }
//  821 }
??ZDApp_DeviceAuthEvt_0:
        LJMP    ??Subroutine29_0 & 0xFFFF
        CFI EndBlock cfiBlock9
//  822 
//  823 /*********************************************************************
//  824  * @fn      ZDApp_SaveNetworkStateEvt()
//  825  *
//  826  * @brief   Process the Save the Network State Event
//  827  *
//  828  * @param   none
//  829  *
//  830  * @return  none
//  831  */

        RSEG BANKED_CODE:CODE:NOROOT(0)
//  832 void ZDApp_SaveNetworkStateEvt( void )
ZDApp_SaveNetworkStateEvt:
        CFI Block cfiBlock10 Using cfiCommon0
        CFI Function ZDApp_SaveNetworkStateEvt
//  833 {
        ; Saved register size: 0
        ; Auto size: 0
//  834 #if defined ( NV_RESTORE )
//  835  #if defined ( NV_TURN_OFF_RADIO )
//  836   // Turn off the radio's receiver during an NV update
//  837   uint8 RxOnIdle;
//  838   uint8 x = false;
//  839   ZMacGetReq( ZMacRxOnIdle, &RxOnIdle );
//  840   ZMacSetReq( ZMacRxOnIdle, &x );
//  841  #endif
//  842 
//  843   // Update the Network State in NV
//  844   NLME_UpdateNV( NWK_NV_NIB_ENABLE        |
//  845                  NWK_NV_DEVICELIST_ENABLE |
//  846                  NWK_NV_BINDING_ENABLE    |
//  847                  NWK_NV_ADDRMGR_ENABLE );
//  848 
//  849   // Reset the NV startup option to resume from NV by
//  850   // clearing the "New" join option.
//  851   zgWriteStartupOptions( FALSE, ZCD_STARTOPT_DEFAULT_NETWORK_STATE );
//  852 
//  853  #if defined ( NV_TURN_OFF_RADIO )
//  854   ZMacSetReq( ZMacRxOnIdle, &RxOnIdle );
//  855  #endif
//  856 #endif  // NV_RESTORE
//  857 }
        LJMP    ?BRET
        CFI EndBlock cfiBlock10
//  858 
//  859 /*********************************************************************
//  860  * @fn      ZDApp_RestoreNetworkState()
//  861  *
//  862  * @brief   This function will restore the network state of the
//  863  *          device if the network state is stored in NV.
//  864  *
//  865  * @param   none
//  866  *
//  867  * @return
//  868  *    ZDO_INITDEV_RESTORED_NETWORK_STATE  - The device's network state was
//  869  *          restored.
//  870  *    ZDO_INITDEV_NEW_NETWORK_STATE - The network state was not used.
//  871  *          This could mean that zgStartupOption said to not restore, or
//  872  *          it could mean that there was no network state to restore.
//  873  *
//  874  */

        RSEG BANKED_CODE:CODE:NOROOT(0)
//  875 uint8 ZDApp_RestoreNetworkState( void )
ZDApp_RestoreNetworkState:
        CFI Block cfiBlock11 Using cfiCommon0
        CFI Function ZDApp_RestoreNetworkState
//  876 {
        FUNCALL ZDApp_RestoreNetworkState, NLME_InitNV
        LOCFRAME ISTACK, 0, STACK
        LOCFRAME PSTACK, 0, STACK
        LOCFRAME XSTACK, 9, STACK
        LOCFRAME IOVERLAY, 0, STATIC
        LOCFRAME DOVERLAY, 0, STATIC
        ARGFRAME ISTACK, 0, STACK
        ARGFRAME PSTACK, 0, STACK
        ARGFRAME XSTACK, 9, STACK
        ARGFRAME IOVERLAY, 0, STATIC
        ARGFRAME DOVERLAY, 0, STATIC
        FUNCALL ZDApp_RestoreNetworkState, NLME_RestoreFromNV
        LOCFRAME ISTACK, 0, STACK
        LOCFRAME PSTACK, 0, STACK
        LOCFRAME XSTACK, 9, STACK
        LOCFRAME IOVERLAY, 0, STATIC
        LOCFRAME DOVERLAY, 0, STATIC
        ARGFRAME ISTACK, 0, STACK
        ARGFRAME PSTACK, 0, STACK
        ARGFRAME XSTACK, 9, STACK
        ARGFRAME IOVERLAY, 0, STATIC
        ARGFRAME DOVERLAY, 0, STATIC
        FUNCALL ZDApp_RestoreNetworkState, NLME_GetShortAddr
        LOCFRAME ISTACK, 0, STACK
        LOCFRAME PSTACK, 0, STACK
        LOCFRAME XSTACK, 9, STACK
        LOCFRAME IOVERLAY, 0, STATIC
        LOCFRAME DOVERLAY, 0, STATIC
        ARGFRAME ISTACK, 0, STACK
        ARGFRAME PSTACK, 0, STACK
        ARGFRAME XSTACK, 9, STACK
        ARGFRAME IOVERLAY, 0, STATIC
        ARGFRAME DOVERLAY, 0, STATIC
        FUNCALL ZDApp_RestoreNetworkState, sAddrExtCpy
        LOCFRAME ISTACK, 0, STACK
        LOCFRAME PSTACK, 0, STACK
        LOCFRAME XSTACK, 9, STACK
        LOCFRAME IOVERLAY, 0, STATIC
        LOCFRAME DOVERLAY, 0, STATIC
        ARGFRAME ISTACK, 0, STACK
        ARGFRAME PSTACK, 0, STACK
        ARGFRAME XSTACK, 9, STACK
        ARGFRAME IOVERLAY, 0, STATIC
        ARGFRAME DOVERLAY, 0, STATIC
        MOV     A,#-0x9
        LCALL   ?BANKED_ENTER_XDATA
        CFI DPH0 load(1, XDATA, add(CFA_XSP16, literal(-1)))
        CFI DPL0 load(1, XDATA, add(CFA_XSP16, literal(-2)))
        CFI ?BRET_EXT load(1, XDATA, add(CFA_XSP16, literal(-3)))
        CFI ?RET_HIGH load(1, XDATA, add(CFA_XSP16, literal(-4)))
        CFI ?RET_LOW load(1, XDATA, add(CFA_XSP16, literal(-5)))
        CFI R7 load(1, XDATA, add(CFA_XSP16, literal(-6)))
        CFI V0 load(1, XDATA, add(CFA_XSP16, literal(-7)))
        CFI VB load(1, XDATA, add(CFA_XSP16, literal(-8)))
        CFI R6 load(1, XDATA, add(CFA_XSP16, literal(-9)))
        CFI CFA_SP SP+0
        CFI CFA_XSP16 add(XSP16, 9)
        ; Saved register size: 9
        ; Auto size: 0
//  877   uint8 nvStat;
//  878 
//  879   // Initialize NWK NV items
//  880   nvStat = NLME_InitNV();
        ; Setup parameters for call to function NLME_InitNV
        LCALL   ??NLME_InitNV?relay
        MOV     A,R1
        MOV     R6,A
//  881 
//  882   if ( nvStat != NV_OPER_FAILED )
        MOV     A,#0xa
        XRL     A,R6
        JZ      ??ZDApp_RestoreNetworkState_0
//  883   {
//  884     if ( NLME_RestoreFromNV() )
        ; Setup parameters for call to function NLME_RestoreFromNV
        LCALL   ??NLME_RestoreFromNV?relay
        MOV     A,R1
        JZ      ??ZDApp_RestoreNetworkState_0
//  885     {
//  886       // Are we a coordinator
//  887       ZDAppNwkAddr.addr.shortAddr = NLME_GetShortAddr();
        ; Setup parameters for call to function NLME_GetShortAddr
        LCALL   ??NLME_GetShortAddr?relay
        MOV     DPTR,#ZDAppNwkAddr
        LCALL   ??Subroutine33_0 & 0xFFFF
//  888       if ( ZDAppNwkAddr.addr.shortAddr == 0 )
??CrossCallReturnLabel_49:
        MOV     DPTR,#ZDAppNwkAddr
        MOVX    A,@DPTR
        JNZ     ??ZDApp_RestoreNetworkState_1
        INC     DPTR
        MOVX    A,@DPTR
??ZDApp_RestoreNetworkState_1:
        JNZ     ??ZDApp_RestoreNetworkState_2
//  889         ZDO_Config_Node_Descriptor.LogicalType = NODETYPE_COORDINATOR;
        MOV     DPTR,#ZDO_Config_Node_Descriptor
        MOVX    A,@DPTR
        ANL     A,#0xf8
        MOVX    @DPTR,A
//  890       devStartMode = MODE_RESUME;
??ZDApp_RestoreNetworkState_2:
        MOV     A,#0x1
        MOV     DPTR,#devStartMode
        LCALL   ?Subroutine1 & 0xFFFF
//  891       osal_cpyExtAddr( ZDO_UseExtendedPANID, _NIB.extendedPANID );
//  892     }
//  893     else
//  894       nvStat = NV_ITEM_UNINIT;
//  895 
//  896     if ( ZG_SECURE_ENABLED )
//  897     {
//  898       nwkFrameCounterChanges = 0;
//  899 
//  900       if ( ZG_BUILD_COORDINATOR_TYPE && ZG_DEVICE_COORDINATOR_TYPE )
//  901       {
//  902         ZDApp_RestoreNwkKey();
//  903       }
//  904     }
//  905 
//  906     // The default for RxOnWhenIdle is true for Routers and false for end devices
//  907     // [setup in the NLME_RestoreFromNV()].  Change it here if you want something
//  908     // other than default.
//  909   }
//  910 
//  911   if ( nvStat == ZSUCCESS )
??CrossCallReturnLabel_0:
        MOV     A,R6
        JNZ     ??ZDApp_RestoreNetworkState_0
//  912     return ( ZDO_INITDEV_RESTORED_NETWORK_STATE );
        MOV     R1,#0x0
        SJMP    ??ZDApp_RestoreNetworkState_3
//  913   else
//  914     return ( ZDO_INITDEV_NEW_NETWORK_STATE );
??ZDApp_RestoreNetworkState_0:
        MOV     R1,#0x1
        CFI EndBlock cfiBlock11
??ZDApp_RestoreNetworkState_3:
        REQUIRE ?Subroutine20
        ; // Fall through to label ?Subroutine20
//  915 }

        RSEG BANKED_CODE:CODE:NOROOT(0)
?Subroutine20:
        CFI Block cfiBlock12 Using cfiCommon0
        CFI NoFunction
        CFI CFA_SP SP+0
        CFI CFA_XSP16 add(XSP16, 9)
        CFI VB load(1, XDATA, add(CFA_XSP16, literal(-8)))
        CFI DPL0 load(1, XDATA, add(CFA_XSP16, literal(-2)))
        CFI DPH0 load(1, XDATA, add(CFA_XSP16, literal(-1)))
        CFI R6 load(1, XDATA, add(CFA_XSP16, literal(-9)))
        CFI R7 load(1, XDATA, add(CFA_XSP16, literal(-6)))
        CFI V0 load(1, XDATA, add(CFA_XSP16, literal(-7)))
        CFI ?BRET_EXT load(1, XDATA, add(CFA_XSP16, literal(-3)))
        CFI ?RET_HIGH load(1, XDATA, add(CFA_XSP16, literal(-4)))
        CFI ?RET_LOW load(1, XDATA, add(CFA_XSP16, literal(-5)))
        MOV     R7,#0x1
        LJMP    ?BANKED_LEAVE_XDATA
        CFI EndBlock cfiBlock12
//  916 
//  917 /*********************************************************************
//  918  * @fn      ZDApp_InitUserDesc()
//  919  *
//  920  * @brief   Initialize the User Descriptor, the descriptor is read from NV
//  921  *          when needed.  If you want to initialize the User descriptor to
//  922  *          something other than all zero, do it here.
//  923  *
//  924  * @param   none
//  925  *
//  926  * @return  none
//  927  */

        RSEG BANKED_CODE:CODE:NOROOT(0)
//  928 void ZDApp_InitUserDesc( void )
ZDApp_InitUserDesc:
        CFI Block cfiBlock13 Using cfiCommon0
        CFI Function ZDApp_InitUserDesc
//  929 {
        FUNCALL ZDApp_InitUserDesc, osal_memset
        LOCFRAME ISTACK, 0, STACK
        LOCFRAME PSTACK, 0, STACK
        LOCFRAME XSTACK, 27, STACK
        LOCFRAME IOVERLAY, 0, STATIC
        LOCFRAME DOVERLAY, 0, STATIC
        ARGFRAME ISTACK, 0, STACK
        ARGFRAME PSTACK, 0, STACK
        ARGFRAME XSTACK, 27, STACK
        ARGFRAME IOVERLAY, 0, STATIC
        ARGFRAME DOVERLAY, 0, STATIC
        FUNCALL ZDApp_InitUserDesc, osal_nv_item_init
        LOCFRAME ISTACK, 0, STACK
        LOCFRAME PSTACK, 0, STACK
        LOCFRAME XSTACK, 29, STACK
        LOCFRAME IOVERLAY, 0, STATIC
        LOCFRAME DOVERLAY, 0, STATIC
        ARGFRAME ISTACK, 0, STACK
        ARGFRAME PSTACK, 0, STACK
        ARGFRAME XSTACK, 29, STACK
        ARGFRAME IOVERLAY, 0, STATIC
        ARGFRAME DOVERLAY, 0, STATIC
        FUNCALL ZDApp_InitUserDesc, osal_nv_read
        LOCFRAME ISTACK, 0, STACK
        LOCFRAME PSTACK, 0, STACK
        LOCFRAME XSTACK, 31, STACK
        LOCFRAME IOVERLAY, 0, STATIC
        LOCFRAME DOVERLAY, 0, STATIC
        ARGFRAME ISTACK, 0, STACK
        ARGFRAME PSTACK, 0, STACK
        ARGFRAME XSTACK, 31, STACK
        ARGFRAME IOVERLAY, 0, STATIC
        ARGFRAME DOVERLAY, 0, STATIC
        MOV     A,#-0xa
        LCALL   ?BANKED_ENTER_XDATA
        CFI DPH0 load(1, XDATA, add(CFA_XSP16, literal(-1)))
        CFI DPL0 load(1, XDATA, add(CFA_XSP16, literal(-2)))
        CFI ?BRET_EXT load(1, XDATA, add(CFA_XSP16, literal(-3)))
        CFI ?RET_HIGH load(1, XDATA, add(CFA_XSP16, literal(-4)))
        CFI ?RET_LOW load(1, XDATA, add(CFA_XSP16, literal(-5)))
        CFI R7 load(1, XDATA, add(CFA_XSP16, literal(-6)))
        CFI V1 load(1, XDATA, add(CFA_XSP16, literal(-7)))
        CFI V0 load(1, XDATA, add(CFA_XSP16, literal(-8)))
        CFI VB load(1, XDATA, add(CFA_XSP16, literal(-9)))
        CFI R6 load(1, XDATA, add(CFA_XSP16, literal(-10)))
        CFI CFA_SP SP+0
        CFI CFA_XSP16 add(XSP16, 10)
        ; Saved register size: 10
        ; Auto size: 17
        MOV     A,#-0x11
        LCALL   ?ALLOC_XSTACK8
        CFI CFA_XSP16 add(XSP16, 27)
//  930   UserDescriptorFormat_t ZDO_DefaultUserDescriptor;
//  931 
//  932   // Initialize the User Descriptor, the descriptor is read from NV
//  933   // when needed.  If you want to initialize the User descriptor to something
//  934   // other than all zero, do it here.
//  935   osal_memset( &ZDO_DefaultUserDescriptor, 0, sizeof( UserDescriptorFormat_t ) );
        ; Setup parameters for call to function osal_memset
        MOV     R4,#0x11
        LCALL   ?Subroutine14 & 0xFFFF
//  936   if ( ZSUCCESS == osal_nv_item_init( ZCD_NV_USERDESC,
//  937          sizeof(UserDescriptorFormat_t), (void*)&ZDO_DefaultUserDescriptor ) )
??CrossCallReturnLabel_16:
        LCALL   ?PUSH_XSTACK_I_TWO
        CFI CFA_XSP16 add(XSP16, 29)
        MOV     R4,#0x11
        MOV     R5,#0x0
        MOV     R2,#-0x7f
        MOV     R3,#0x0
        LCALL   ??osal_nv_item_init?relay
        MOV     A,#0x2
        LCALL   ?DEALLOC_XSTACK8
        CFI CFA_XSP16 add(XSP16, 27)
        MOV     A,R1
        JNZ     ??ZDApp_InitUserDesc_0
//  938   {
//  939     if ( ZSUCCESS == osal_nv_read( ZCD_NV_USERDESC, 0,
//  940          sizeof(UserDescriptorFormat_t), (void*)&ZDO_DefaultUserDescriptor ) )
        ; Setup parameters for call to function osal_nv_read
        MOV     R0,#?V0 + 0
        LCALL   ?PUSH_XSTACK_I_TWO
        CFI CFA_XSP16 add(XSP16, 29)
        MOV     ?V0 + 0,#0x11
        MOV     ?V0 + 1,#0x0
        MOV     R0,#?V0 + 0
        LCALL   ?PUSH_XSTACK_I_TWO
        CFI CFA_XSP16 add(XSP16, 31)
        MOV     R4,#0x0
        MOV     R5,#0x0
        MOV     R2,#-0x7f
        MOV     R3,#0x0
        LCALL   ??osal_nv_read?relay
        MOV     A,#0x4
        LCALL   ?DEALLOC_XSTACK8
        CFI CFA_XSP16 add(XSP16, 27)
        MOV     A,R1
        JNZ     ??ZDApp_InitUserDesc_0
//  941     {
//  942       if ( ZDO_DefaultUserDescriptor.len != 0 )
        MOV     DPL,?XSP + 0
        MOV     DPH,?XSP + 1
        MOVX    A,@DPTR
        JZ      ??ZDApp_InitUserDesc_0
//  943       {
//  944         ZDO_Config_Node_Descriptor.UserDescAvail = TRUE;
        MOV     DPTR,#ZDO_Config_Node_Descriptor
        MOVX    A,@DPTR
        SETB    0xE0 /* A   */.4
        MOVX    @DPTR,A
//  945       }
//  946     }
//  947   }
//  948 }
??ZDApp_InitUserDesc_0:
        MOV     A,#0x11
        LJMP    ??Subroutine31_0 & 0xFFFF
        CFI EndBlock cfiBlock13
//  949 
//  950 /*********************************************************************
//  951  * @fn      ZDAppCheckForHoldKey()
//  952  *
//  953  * @brief   Check for key to set the device into Hold Auto Start
//  954  *
//  955  * @param   none
//  956  *
//  957  * @return  none
//  958  */

        RSEG BANKED_CODE:CODE:NOROOT(0)
//  959 void ZDAppCheckForHoldKey( void )
ZDAppCheckForHoldKey:
        CFI Block cfiBlock14 Using cfiCommon0
        CFI Function ZDAppCheckForHoldKey
//  960 {
        FUNCALL ZDAppCheckForHoldKey, HalKeyRead
        LOCFRAME ISTACK, 2, STACK
        LOCFRAME PSTACK, 0, STACK
        LOCFRAME XSTACK, 0, STACK
        LOCFRAME IOVERLAY, 0, STATIC
        LOCFRAME DOVERLAY, 0, STATIC
        ARGFRAME ISTACK, 2, STACK
        ARGFRAME PSTACK, 0, STACK
        ARGFRAME XSTACK, 0, STACK
        ARGFRAME IOVERLAY, 0, STATIC
        ARGFRAME DOVERLAY, 0, STATIC
        PUSH    DPL
        CFI DPL0 Frame(CFA_SP, 4)
        CFI CFA_SP SP+-4
        PUSH    DPH
        CFI DPH0 Frame(CFA_SP, 5)
        CFI CFA_SP SP+-5
        ; Saved register size: 2
        ; Auto size: 0
//  961 #if (defined HAL_KEY) && (HAL_KEY == TRUE)
//  962   // Get Keypad directly to see if a HOLD_START is needed.
//  963   // Hold down the SW_BYPASS_START key (see OnBoard.h)
//  964   // while booting to avoid starting up the device.
//  965   if ( HalKeyRead () == SW_BYPASS_START)
        ; Setup parameters for call to function HalKeyRead
        LCALL   ??HalKeyRead?relay
        MOV     A,R1
        XRL     A,#0x1
        JNZ     ??ZDAppCheckForHoldKey_0
//  966   {
//  967     // Change the device state to HOLD on start up
//  968     devState = DEV_HOLD;
        CLR     A
        MOV     DPTR,#devState
        MOVX    @DPTR,A
//  969   }
//  970 #endif // HAL_KEY
//  971 }
??ZDAppCheckForHoldKey_0:
        LJMP    ??Subroutine29_0 & 0xFFFF
        CFI EndBlock cfiBlock14
//  972 
//  973 /*********************************************************************
//  974  * @fn      ZDApp_ProcessOSALMsg()
//  975  *
//  976  * @brief   Process the incoming task message.
//  977  *
//  978  * @param   msgPtr - message to process
//  979  *
//  980  * @return  none
//  981  */

        RSEG BANKED_CODE:CODE:NOROOT(0)
//  982 void ZDApp_ProcessOSALMsg( osal_event_hdr_t *msgPtr )
ZDApp_ProcessOSALMsg:
        CFI Block cfiBlock15 Using cfiCommon0
        CFI Function ZDApp_ProcessOSALMsg
//  983 {
        FUNCALL ZDApp_ProcessOSALMsg, ZDP_IncomingData
        LOCFRAME ISTACK, 0, STACK
        LOCFRAME PSTACK, 0, STACK
        LOCFRAME XSTACK, 16, STACK
        LOCFRAME IOVERLAY, 0, STATIC
        LOCFRAME DOVERLAY, 0, STATIC
        ARGFRAME ISTACK, 0, STACK
        ARGFRAME PSTACK, 0, STACK
        ARGFRAME XSTACK, 16, STACK
        ARGFRAME IOVERLAY, 0, STATIC
        ARGFRAME DOVERLAY, 0, STATIC
        FUNCALL ZDApp_ProcessOSALMsg, ZDApp_ProcessMsgCBs
        LOCFRAME ISTACK, 0, STACK
        LOCFRAME PSTACK, 0, STACK
        LOCFRAME XSTACK, 16, STACK
        LOCFRAME IOVERLAY, 0, STATIC
        LOCFRAME DOVERLAY, 0, STATIC
        ARGFRAME ISTACK, 0, STACK
        ARGFRAME PSTACK, 0, STACK
        ARGFRAME XSTACK, 16, STACK
        ARGFRAME IOVERLAY, 0, STATIC
        ARGFRAME DOVERLAY, 0, STATIC
        FUNCALL ZDApp_ProcessOSALMsg, ZDApp_NodeProfileSync
        LOCFRAME ISTACK, 0, STACK
        LOCFRAME PSTACK, 0, STACK
        LOCFRAME XSTACK, 16, STACK
        LOCFRAME IOVERLAY, 0, STATIC
        LOCFRAME DOVERLAY, 0, STATIC
        ARGFRAME ISTACK, 0, STACK
        ARGFRAME PSTACK, 0, STACK
        ARGFRAME XSTACK, 16, STACK
        ARGFRAME IOVERLAY, 0, STATIC
        ARGFRAME DOVERLAY, 0, STATIC
        FUNCALL ZDApp_ProcessOSALMsg, NLME_JoinRequest
        LOCFRAME ISTACK, 0, STACK
        LOCFRAME PSTACK, 0, STACK
        LOCFRAME XSTACK, 17, STACK
        LOCFRAME IOVERLAY, 0, STATIC
        LOCFRAME DOVERLAY, 0, STATIC
        ARGFRAME ISTACK, 0, STACK
        ARGFRAME PSTACK, 0, STACK
        ARGFRAME XSTACK, 17, STACK
        ARGFRAME IOVERLAY, 0, STATIC
        ARGFRAME DOVERLAY, 0, STATIC
        FUNCALL ZDApp_ProcessOSALMsg, osal_rand
        LOCFRAME ISTACK, 0, STACK
        LOCFRAME PSTACK, 0, STACK
        LOCFRAME XSTACK, 16, STACK
        LOCFRAME IOVERLAY, 0, STATIC
        LOCFRAME DOVERLAY, 0, STATIC
        ARGFRAME ISTACK, 0, STACK
        ARGFRAME PSTACK, 0, STACK
        ARGFRAME XSTACK, 16, STACK
        ARGFRAME IOVERLAY, 0, STATIC
        ARGFRAME DOVERLAY, 0, STATIC
        FUNCALL ZDApp_ProcessOSALMsg, ZDApp_NetworkInit
        LOCFRAME ISTACK, 0, STACK
        LOCFRAME PSTACK, 0, STACK
        LOCFRAME XSTACK, 16, STACK
        LOCFRAME IOVERLAY, 0, STATIC
        LOCFRAME DOVERLAY, 0, STATIC
        ARGFRAME ISTACK, 0, STACK
        ARGFRAME PSTACK, 0, STACK
        ARGFRAME XSTACK, 16, STACK
        ARGFRAME IOVERLAY, 0, STATIC
        ARGFRAME DOVERLAY, 0, STATIC
        FUNCALL ZDApp_ProcessOSALMsg, osal_rand
        LOCFRAME ISTACK, 0, STACK
        LOCFRAME PSTACK, 0, STACK
        LOCFRAME XSTACK, 16, STACK
        LOCFRAME IOVERLAY, 0, STATIC
        LOCFRAME DOVERLAY, 0, STATIC
        ARGFRAME ISTACK, 0, STACK
        ARGFRAME PSTACK, 0, STACK
        ARGFRAME XSTACK, 16, STACK
        ARGFRAME IOVERLAY, 0, STATIC
        ARGFRAME DOVERLAY, 0, STATIC
        FUNCALL ZDApp_ProcessOSALMsg, ZMacSetReq
        LOCFRAME ISTACK, 0, STACK
        LOCFRAME PSTACK, 0, STACK
        LOCFRAME XSTACK, 16, STACK
        LOCFRAME IOVERLAY, 0, STATIC
        LOCFRAME DOVERLAY, 0, STATIC
        ARGFRAME ISTACK, 0, STACK
        ARGFRAME PSTACK, 0, STACK
        ARGFRAME XSTACK, 16, STACK
        ARGFRAME IOVERLAY, 0, STATIC
        ARGFRAME DOVERLAY, 0, STATIC
        FUNCALL ZDApp_ProcessOSALMsg, ZMacSetReq
        LOCFRAME ISTACK, 0, STACK
        LOCFRAME PSTACK, 0, STACK
        LOCFRAME XSTACK, 16, STACK
        LOCFRAME IOVERLAY, 0, STATIC
        LOCFRAME DOVERLAY, 0, STATIC
        ARGFRAME ISTACK, 0, STACK
        ARGFRAME PSTACK, 0, STACK
        ARGFRAME XSTACK, 16, STACK
        ARGFRAME IOVERLAY, 0, STATIC
        ARGFRAME DOVERLAY, 0, STATIC
        FUNCALL ZDApp_ProcessOSALMsg, ZMacSetReq
        LOCFRAME ISTACK, 0, STACK
        LOCFRAME PSTACK, 0, STACK
        LOCFRAME XSTACK, 16, STACK
        LOCFRAME IOVERLAY, 0, STATIC
        LOCFRAME DOVERLAY, 0, STATIC
        ARGFRAME ISTACK, 0, STACK
        ARGFRAME PSTACK, 0, STACK
        ARGFRAME XSTACK, 16, STACK
        ARGFRAME IOVERLAY, 0, STATIC
        ARGFRAME DOVERLAY, 0, STATIC
        FUNCALL ZDApp_ProcessOSALMsg, NLME_ReJoinRequest
        LOCFRAME ISTACK, 0, STACK
        LOCFRAME PSTACK, 0, STACK
        LOCFRAME XSTACK, 16, STACK
        LOCFRAME IOVERLAY, 0, STATIC
        LOCFRAME DOVERLAY, 0, STATIC
        ARGFRAME ISTACK, 0, STACK
        ARGFRAME PSTACK, 0, STACK
        ARGFRAME XSTACK, 16, STACK
        ARGFRAME IOVERLAY, 0, STATIC
        ARGFRAME DOVERLAY, 0, STATIC
        FUNCALL ZDApp_ProcessOSALMsg, osal_rand
        LOCFRAME ISTACK, 0, STACK
        LOCFRAME PSTACK, 0, STACK
        LOCFRAME XSTACK, 16, STACK
        LOCFRAME IOVERLAY, 0, STATIC
        LOCFRAME DOVERLAY, 0, STATIC
        ARGFRAME ISTACK, 0, STACK
        ARGFRAME PSTACK, 0, STACK
        ARGFRAME XSTACK, 16, STACK
        ARGFRAME IOVERLAY, 0, STATIC
        ARGFRAME DOVERLAY, 0, STATIC
        FUNCALL ZDApp_ProcessOSALMsg, ZDApp_NetworkInit
        LOCFRAME ISTACK, 0, STACK
        LOCFRAME PSTACK, 0, STACK
        LOCFRAME XSTACK, 16, STACK
        LOCFRAME IOVERLAY, 0, STATIC
        LOCFRAME DOVERLAY, 0, STATIC
        ARGFRAME ISTACK, 0, STACK
        ARGFRAME PSTACK, 0, STACK
        ARGFRAME XSTACK, 16, STACK
        ARGFRAME IOVERLAY, 0, STATIC
        ARGFRAME DOVERLAY, 0, STATIC
        FUNCALL ZDApp_ProcessOSALMsg, NLME_SetPollRate
        LOCFRAME ISTACK, 0, STACK
        LOCFRAME PSTACK, 0, STACK
        LOCFRAME XSTACK, 16, STACK
        LOCFRAME IOVERLAY, 0, STATIC
        LOCFRAME DOVERLAY, 0, STATIC
        ARGFRAME ISTACK, 0, STACK
        ARGFRAME PSTACK, 0, STACK
        ARGFRAME XSTACK, 16, STACK
        ARGFRAME IOVERLAY, 0, STATIC
        ARGFRAME DOVERLAY, 0, STATIC
        FUNCALL ZDApp_ProcessOSALMsg, NLME_SetQueuedPollRate
        LOCFRAME ISTACK, 0, STACK
        LOCFRAME PSTACK, 0, STACK
        LOCFRAME XSTACK, 16, STACK
        LOCFRAME IOVERLAY, 0, STATIC
        LOCFRAME DOVERLAY, 0, STATIC
        ARGFRAME ISTACK, 0, STACK
        ARGFRAME PSTACK, 0, STACK
        ARGFRAME XSTACK, 16, STACK
        ARGFRAME IOVERLAY, 0, STATIC
        ARGFRAME DOVERLAY, 0, STATIC
        FUNCALL ZDApp_ProcessOSALMsg, NLME_SetResponseRate
        LOCFRAME ISTACK, 0, STACK
        LOCFRAME PSTACK, 0, STACK
        LOCFRAME XSTACK, 16, STACK
        LOCFRAME IOVERLAY, 0, STATIC
        LOCFRAME DOVERLAY, 0, STATIC
        ARGFRAME ISTACK, 0, STACK
        ARGFRAME PSTACK, 0, STACK
        ARGFRAME XSTACK, 16, STACK
        ARGFRAME IOVERLAY, 0, STATIC
        ARGFRAME DOVERLAY, 0, STATIC
        FUNCALL ZDApp_ProcessOSALMsg, osal_rand
        LOCFRAME ISTACK, 0, STACK
        LOCFRAME PSTACK, 0, STACK
        LOCFRAME XSTACK, 16, STACK
        LOCFRAME IOVERLAY, 0, STATIC
        LOCFRAME DOVERLAY, 0, STATIC
        ARGFRAME ISTACK, 0, STACK
        ARGFRAME PSTACK, 0, STACK
        ARGFRAME XSTACK, 16, STACK
        ARGFRAME IOVERLAY, 0, STATIC
        ARGFRAME DOVERLAY, 0, STATIC
        FUNCALL ZDApp_ProcessOSALMsg, ZDApp_NetworkInit
        LOCFRAME ISTACK, 0, STACK
        LOCFRAME PSTACK, 0, STACK
        LOCFRAME XSTACK, 16, STACK
        LOCFRAME IOVERLAY, 0, STATIC
        LOCFRAME DOVERLAY, 0, STATIC
        ARGFRAME ISTACK, 0, STACK
        ARGFRAME PSTACK, 0, STACK
        ARGFRAME XSTACK, 16, STACK
        ARGFRAME IOVERLAY, 0, STATIC
        ARGFRAME DOVERLAY, 0, STATIC
        FUNCALL ZDApp_ProcessOSALMsg, ZDApp_ProcessNetworkJoin
        LOCFRAME ISTACK, 0, STACK
        LOCFRAME PSTACK, 0, STACK
        LOCFRAME XSTACK, 16, STACK
        LOCFRAME IOVERLAY, 0, STATIC
        LOCFRAME DOVERLAY, 0, STATIC
        ARGFRAME ISTACK, 0, STACK
        ARGFRAME PSTACK, 0, STACK
        ARGFRAME XSTACK, 16, STACK
        ARGFRAME IOVERLAY, 0, STATIC
        ARGFRAME DOVERLAY, 0, STATIC
        FUNCALL ZDApp_ProcessOSALMsg, sAddrExtCpy
        LOCFRAME ISTACK, 0, STACK
        LOCFRAME PSTACK, 0, STACK
        LOCFRAME XSTACK, 16, STACK
        LOCFRAME IOVERLAY, 0, STATIC
        LOCFRAME DOVERLAY, 0, STATIC
        ARGFRAME ISTACK, 0, STACK
        ARGFRAME PSTACK, 0, STACK
        ARGFRAME XSTACK, 16, STACK
        ARGFRAME IOVERLAY, 0, STATIC
        ARGFRAME DOVERLAY, 0, STATIC
        FUNCALL ZDApp_ProcessOSALMsg, ZDApp_NetworkInit
        LOCFRAME ISTACK, 0, STACK
        LOCFRAME PSTACK, 0, STACK
        LOCFRAME XSTACK, 16, STACK
        LOCFRAME IOVERLAY, 0, STATIC
        LOCFRAME DOVERLAY, 0, STATIC
        ARGFRAME ISTACK, 0, STACK
        ARGFRAME PSTACK, 0, STACK
        ARGFRAME XSTACK, 16, STACK
        ARGFRAME IOVERLAY, 0, STATIC
        ARGFRAME DOVERLAY, 0, STATIC
        MOV     A,#-0xf
        LCALL   ?BANKED_ENTER_XDATA
        CFI DPH0 load(1, XDATA, add(CFA_XSP16, literal(-1)))
        CFI DPL0 load(1, XDATA, add(CFA_XSP16, literal(-2)))
        CFI ?BRET_EXT load(1, XDATA, add(CFA_XSP16, literal(-3)))
        CFI ?RET_HIGH load(1, XDATA, add(CFA_XSP16, literal(-4)))
        CFI ?RET_LOW load(1, XDATA, add(CFA_XSP16, literal(-5)))
        CFI R7 load(1, XDATA, add(CFA_XSP16, literal(-6)))
        CFI V6 load(1, XDATA, add(CFA_XSP16, literal(-7)))
        CFI V5 load(1, XDATA, add(CFA_XSP16, literal(-8)))
        CFI V4 load(1, XDATA, add(CFA_XSP16, literal(-9)))
        CFI V3 load(1, XDATA, add(CFA_XSP16, literal(-10)))
        CFI V2 load(1, XDATA, add(CFA_XSP16, literal(-11)))
        CFI V1 load(1, XDATA, add(CFA_XSP16, literal(-12)))
        CFI V0 load(1, XDATA, add(CFA_XSP16, literal(-13)))
        CFI VB load(1, XDATA, add(CFA_XSP16, literal(-14)))
        CFI R6 load(1, XDATA, add(CFA_XSP16, literal(-15)))
        CFI CFA_SP SP+0
        CFI CFA_XSP16 add(XSP16, 15)
        ; Saved register size: 15
        ; Auto size: 1
        MOV     A,#-0x1
        LCALL   ?ALLOC_XSTACK8
        CFI CFA_XSP16 add(XSP16, 16)
        MOV     A,R2
        MOV     R6,A
        MOV     A,R3
        MOV     R7,A
//  984   // Data Confirmation message fields
//  985   uint8 sentEP;       // This should always be 0
//  986   uint8 sentStatus;
//  987   afDataConfirm_t *afDataConfirm;
//  988   uint8 tmp;
//  989 
//  990   switch ( msgPtr->event )
        MOV     DPL,R6
        MOV     DPH,R7
        MOVX    A,@DPTR
        LCALL   ?UC_SWITCH_SPARSE
`?<Jumptable for ZDApp_ProcessOSALMsg>_0`:
        DATA
        DB        0
        DB        5
        DB        1
        DW        ??ZDApp_ProcessOSALMsg_0
        DB        2
        DW        ??ZDApp_ProcessOSALMsg_1
        DB        3
        DW        ??ZDApp_ProcessOSALMsg_2
        DB        26
        DW        ??ZDApp_ProcessOSALMsg_3
        DB        211
        DW        ??ZDApp_ProcessOSALMsg_4
        DW        ??ZDApp_ProcessOSALMsg_5
        CODE
//  991   {
//  992     // Incoming ZDO Message
//  993     case AF_INCOMING_MSG_CMD:
//  994       ZDP_IncomingData( (afIncomingMSGPacket_t *)msgPtr );
??ZDApp_ProcessOSALMsg_3:
        ; Setup parameters for call to function ZDP_IncomingData
        LCALL   ??ZDP_IncomingData?relay
        LJMP    ??ZDApp_ProcessOSALMsg_5 & 0xFFFF
//  995       break;
//  996 
//  997     case ZDO_CB_MSG:
//  998       ZDApp_ProcessMsgCBs( (zdoIncomingMsg_t *)msgPtr );
??ZDApp_ProcessOSALMsg_4:
        ; Setup parameters for call to function ZDApp_ProcessMsgCBs
        LCALL   ??ZDApp_ProcessMsgCBs?relay
        LJMP    ??ZDApp_ProcessOSALMsg_5 & 0xFFFF
//  999       break;
// 1000 
// 1001     case AF_DATA_CONFIRM_CMD:
// 1002       // This message is received as a confirmation of a data packet sent.
// 1003       // The status is of ZStatus_t type [defined in NLMEDE.h]
// 1004       // The message fields are defined in AF.h
// 1005       afDataConfirm = (afDataConfirm_t *)msgPtr;
// 1006       sentEP = afDataConfirm->endpoint;
// 1007       sentStatus = afDataConfirm->hdr.status;
// 1008 
// 1009       // Action taken when confirmation is received.
// 1010 #if defined ( ZIGBEE_FREQ_AGILITY )
// 1011       if ( pZDNwkMgr_ProcessDataConfirm )
// 1012         pZDNwkMgr_ProcessDataConfirm( afDataConfirm );
// 1013 #endif
// 1014       (void)sentEP;
// 1015       (void)sentStatus;
// 1016       break;
// 1017 
// 1018     case ZDO_NWK_DISC_CNF:
// 1019       if (devState != DEV_NWK_DISC)
??ZDApp_ProcessOSALMsg_0:
        MOV     DPTR,#devState
        MOVX    A,@DPTR
        XRL     A,#0x2
        JZ      $+5
        LJMP    ??ZDApp_ProcessOSALMsg_5 & 0xFFFF
// 1020         break;
// 1021 
// 1022       if ( ZG_BUILD_JOINING_TYPE && ZG_DEVICE_JOINING_TYPE )
        MOV     DPTR,#zgDeviceLogicalType
        MOVX    A,@DPTR
        XRL     A,#0x1
        JZ      ??ZDApp_ProcessOSALMsg_6
        MOVX    A,@DPTR
        XRL     A,#0x2
        JZ      $+5
        LJMP    ??ZDApp_ProcessOSALMsg_5 & 0xFFFF
// 1023       {
// 1024         if ( (((ZDO_NetworkDiscoveryCfm_t *)msgPtr)->hdr.status == ZDO_SUCCESS) && (zdoDiscCounter > NUM_DISC_ATTEMPTS) )
??ZDApp_ProcessOSALMsg_6:
        MOV     DPL,R6
        MOV     DPH,R7
        INC     DPTR
        MOVX    A,@DPTR
        JZ      $+5
        LJMP    ??ZDApp_ProcessOSALMsg_7 & 0xFFFF
        MOV     DPTR,#zdoDiscCounter
        MOVX    A,@DPTR
        CLR     C
        SUBB    A,#0x3
        JNC     $+5
        LJMP    ??ZDApp_ProcessOSALMsg_7 & 0xFFFF
// 1025         {
// 1026           if ( devStartMode == MODE_JOIN )
        MOV     A,R6
        ADD     A,#0x4
        MOV     R0,A
        MOV     A,R7
        ADDC    A,#0x0
        MOV     R1,A
        MOV     ?V0 + 0,R0
        MOV     ?V0 + 1,R1
        MOV     A,R6
        ADD     A,#0x3
        DEC     R0
        MOV     A,R7
        ADDC    A,#0x0
        MOV     R1,A
        MOV     ?V0 + 2,R0
        MOV     ?V0 + 3,R1
        MOV     A,R6
        ADD     A,#0x2
        DEC     R0
        MOV     A,R7
        ADDC    A,#0x0
        MOV     R1,A
        MOV     ?V0 + 4,R0
        MOV     ?V0 + 5,R1
        MOV     DPTR,#devStartMode
        MOVX    A,@DPTR
        JNZ     ??ZDApp_ProcessOSALMsg_8
// 1027           {
// 1028             devState = DEV_NWK_JOINING;
        MOV     A,#0x3
        MOV     DPTR,#devState
        MOVX    @DPTR,A
// 1029 
// 1030             ZDApp_NodeProfileSync((ZDO_NetworkDiscoveryCfm_t *)msgPtr);
        ; Setup parameters for call to function ZDApp_NodeProfileSync
        LCALL   ??ZDApp_NodeProfileSync?relay
// 1031 
// 1032             if ( NLME_JoinRequest( ((ZDO_NetworkDiscoveryCfm_t *)msgPtr)->extendedPANID,
// 1033                  BUILD_UINT16( ((ZDO_NetworkDiscoveryCfm_t *)msgPtr)->panIdLSB, ((ZDO_NetworkDiscoveryCfm_t *)msgPtr)->panIdMSB ),
// 1034                  ((ZDO_NetworkDiscoveryCfm_t *)msgPtr)->logicalChannel,
// 1035                  ZDO_Config_Node_Descriptor.CapabilityFlags ) != ZSuccess )
        ; Setup parameters for call to function NLME_JoinRequest
        MOV     DPTR,#(ZDO_Config_Node_Descriptor + 2)
        MOVX    A,@DPTR
        MOV     ?V0 + 6,A
        MOV     R0,#?V0 + 6
        LCALL   ?PUSH_XSTACK_I_ONE
        CFI CFA_XSP16 add(XSP16, 17)
        MOV     DPL,?V0 + 0
        MOV     DPH,?V0 + 1
        MOVX    A,@DPTR
        MOV     R1,A
        MOV     DPL,?V0 + 4
        MOV     DPH,?V0 + 5
        MOVX    A,@DPTR
        MOV     R4,A
        MOV     DPL,?V0 + 2
        MOV     DPH,?V0 + 3
        MOVX    A,@DPTR
        MOV     R5,A
        MOV     A,R6
        ADD     A,#0x6
        MOV     R2,A
        MOV     A,R7
        ADDC    A,#0x0
        MOV     R3,A
        LCALL   ??NLME_JoinRequest?relay
        MOV     A,#0x1
        LCALL   ?DEALLOC_XSTACK8
        CFI CFA_XSP16 add(XSP16, 16)
        SJMP    ??ZDApp_ProcessOSALMsg_9
// 1036             {
// 1037               ZDApp_NetworkInit( (uint16)(NWK_START_DELAY
// 1038                   + ((uint16)(osal_rand()& EXTENDED_JOINING_RANDOM_MASK))) );
// 1039             }
// 1040           }
// 1041           else if ( devStartMode == MODE_REJOIN )
??ZDApp_ProcessOSALMsg_8:
        XRL     A,#0x3
        JNZ     ??CrossCallReturnLabel_10
// 1042           {
// 1043             devState = DEV_NWK_REJOIN;
        MOV     A,#0x4
        MOV     DPTR,#devState
        MOVX    @DPTR,A
// 1044 
// 1045             // Before trying to do rejoin, check if the device has a valid short address
// 1046             // If not, generate a random short address for itself
// 1047             if ( _NIB.nwkDevAddress == INVALID_NODE_ADDR )
        MOV     DPTR,#(_NIB + 20)
        MOVX    A,@DPTR
        XRL     A,#0xfe
        JNZ     ??ZDApp_ProcessOSALMsg_10
        INC     DPTR
        MOVX    A,@DPTR
        XRL     A,#0xff
??ZDApp_ProcessOSALMsg_10:
        JNZ     ??ZDApp_ProcessOSALMsg_11
// 1048             {
// 1049               _NIB.nwkDevAddress = osal_rand();
        ; Setup parameters for call to function osal_rand
        LCALL   ??osal_rand?relay
        MOV     DPTR,#(_NIB + 20)
        LCALL   ??Subroutine33_0 & 0xFFFF
// 1050               ZMacSetReq( ZMacShortAddress, (byte*)&_NIB.nwkDevAddress );
??CrossCallReturnLabel_50:
        ; Setup parameters for call to function ZMacSetReq
        MOV     R2,#((_NIB + 20) & 0xff)
        MOV     R3,#(((_NIB + 20) >> 8) & 0xff)
        MOV     R1,#0x53
        LCALL   ??ZMacSetReq?relay
// 1051             }
// 1052 
// 1053             if ( ZG_SECURE_ENABLED )
// 1054             {
// 1055               ZDApp_RestoreNwkKey();
// 1056             }
// 1057 
// 1058             // Check if the device has a valid PanID, if not, set it to the discovered Pan
// 1059             if ( _NIB.nwkPanId == INVALID_PAN_ID )
??ZDApp_ProcessOSALMsg_11:
        MOV     DPTR,#(_NIB + 33)
        MOVX    A,@DPTR
        XRL     A,#0xfe
        JNZ     ??ZDApp_ProcessOSALMsg_12
        INC     DPTR
        MOVX    A,@DPTR
        XRL     A,#0xff
??ZDApp_ProcessOSALMsg_12:
        JNZ     ??ZDApp_ProcessOSALMsg_13
// 1060             {
// 1061               _NIB.nwkPanId = BUILD_UINT16( ((ZDO_NetworkDiscoveryCfm_t *)msgPtr)->panIdLSB, ((ZDO_NetworkDiscoveryCfm_t *)msgPtr)->panIdMSB );
        MOV     DPL,?V0 + 4
        MOV     DPH,?V0 + 5
        MOVX    A,@DPTR
        MOV     R2,A
        MOV     DPL,?V0 + 2
        MOV     DPH,?V0 + 3
        MOVX    A,@DPTR
        MOV     R1,A
        MOV     A,R2
        MOV     DPTR,#(_NIB + 33)
        MOVX    @DPTR,A
        INC     DPTR
        MOV     A,R1
        MOVX    @DPTR,A
// 1062               ZMacSetReq( ZMacPanId, (byte*)&(_NIB.nwkPanId) );
        ; Setup parameters for call to function ZMacSetReq
        MOV     R2,#((_NIB + 33) & 0xff)
        MOV     R3,#(((_NIB + 33) >> 8) & 0xff)
        MOV     R1,#0x50
        LCALL   ??ZMacSetReq?relay
// 1063             }
// 1064 
// 1065             tmp = true;
??ZDApp_ProcessOSALMsg_13:
        MOV     A,#0x1
        MOV     DPL,?XSP + 0
        MOV     DPH,?XSP + 1
        MOVX    @DPTR,A
// 1066             ZMacSetReq( ZMacRxOnIdle, &tmp ); // Set receiver always on during rejoin
        ; Setup parameters for call to function ZMacSetReq
        MOV     R2,DPL
        MOV     R3,DPH
        MOV     R1,#0x52
        LCALL   ??ZMacSetReq?relay
// 1067             if ( NLME_ReJoinRequest( ZDO_UseExtendedPANID, ((ZDO_NetworkDiscoveryCfm_t *)msgPtr)->logicalChannel) != ZSuccess )
        ; Setup parameters for call to function NLME_ReJoinRequest
        MOV     DPL,?V0 + 0
        MOV     DPH,?V0 + 1
        MOVX    A,@DPTR
        MOV     R1,A
        MOV     R2,#(ZDO_UseExtendedPANID & 0xff)
        MOV     R3,#((ZDO_UseExtendedPANID >> 8) & 0xff)
        LCALL   ??NLME_ReJoinRequest?relay
??ZDApp_ProcessOSALMsg_9:
        MOV     A,R1
        JZ      ??CrossCallReturnLabel_10
// 1068             {
// 1069               ZDApp_NetworkInit( (uint16)(NWK_START_DELAY
// 1070                   + ((uint16)(osal_rand()& EXTENDED_JOINING_RANDOM_MASK))) );
        ; Setup parameters for call to function ZDApp_NetworkInit
        ; Setup parameters for call to function osal_rand
        LCALL   ?Subroutine10 & 0xFFFF
// 1071             }
// 1072           }
// 1073 
// 1074           if ( ZDO_Config_Node_Descriptor.CapabilityFlags & CAPINFO_RCVR_ON_IDLE )
??CrossCallReturnLabel_10:
        MOV     DPTR,#(ZDO_Config_Node_Descriptor + 2)
        MOVX    A,@DPTR
        MOV     C,0xE0 /* A   */.3
        JNC     ??ZDApp_ProcessOSALMsg_5
// 1075           {
// 1076             // The receiver is on, turn network layer polling off.
// 1077             NLME_SetPollRate( 0 );
        ; Setup parameters for call to function NLME_SetPollRate
        LCALL   ?Subroutine13 & 0xFFFF
// 1078             NLME_SetQueuedPollRate( 0 );
// 1079             NLME_SetResponseRate( 0 );
// 1080           }
// 1081           else
// 1082           {
// 1083             if ( (ZG_SECURE_ENABLED) && (devStartMode == MODE_JOIN) )
// 1084             {
// 1085               ZDApp_SavedPollRate = zgPollRate;
// 1086               NLME_SetPollRate( zgRejoinPollRate );
// 1087             }
// 1088           }
// 1089         }
??CrossCallReturnLabel_14:
        SJMP    ??ZDApp_ProcessOSALMsg_5
// 1090         else
// 1091         {
// 1092           if ( continueJoining )
??ZDApp_ProcessOSALMsg_7:
        MOV     DPTR,#continueJoining
        MOVX    A,@DPTR
        JZ      ??ZDApp_ProcessOSALMsg_5
// 1093           {
// 1094     #if defined ( MANAGED_SCAN )
// 1095             ZDApp_NetworkInit( MANAGEDSCAN_DELAY_BETWEEN_SCANS );
// 1096     #else
// 1097             zdoDiscCounter++;
        MOV     DPTR,#zdoDiscCounter
        MOVX    A,@DPTR
        INC     A
        MOVX    @DPTR,A
// 1098             ZDApp_NetworkInit( (uint16)(BEACON_REQUEST_DELAY
// 1099                   + ((uint16)(osal_rand()& BEACON_REQ_DELAY_MASK))) );
        ; Setup parameters for call to function ZDApp_NetworkInit
        ; Setup parameters for call to function osal_rand
        LCALL   ??osal_rand?relay
        MOV     ?V0 + 0,R2
        MOV     A,#-0x1
        ANL     A,?V0 + 0
        MOV     R0,A
        MOV     A,#0x64
        ADD     A,R0
        MOV     R2,A
        CLR     A
        ADDC    A,#0x0
        MOV     R3,A
        SJMP    ??ZDApp_ProcessOSALMsg_14
// 1100     #endif
// 1101           }
// 1102         }
// 1103       }
// 1104       break;
// 1105 
// 1106     case ZDO_NWK_JOIN_IND:
// 1107       if ( ZG_BUILD_JOINING_TYPE && ZG_DEVICE_JOINING_TYPE )
??ZDApp_ProcessOSALMsg_1:
        MOV     DPTR,#zgDeviceLogicalType
        MOVX    A,@DPTR
        XRL     A,#0x1
        JZ      ??ZDApp_ProcessOSALMsg_15
        MOVX    A,@DPTR
        XRL     A,#0x2
        JNZ     ??ZDApp_ProcessOSALMsg_5
// 1108       {
// 1109         ZDApp_ProcessNetworkJoin();
??ZDApp_ProcessOSALMsg_15:
        ; Setup parameters for call to function ZDApp_ProcessNetworkJoin
        LCALL   ??ZDApp_ProcessNetworkJoin?relay
        SJMP    ??ZDApp_ProcessOSALMsg_5
// 1110       }
// 1111       break;
// 1112 
// 1113     case ZDO_NWK_JOIN_REQ:
// 1114       if ( ZG_BUILD_JOINING_TYPE && ZG_DEVICE_JOINING_TYPE )
??ZDApp_ProcessOSALMsg_2:
        MOV     DPTR,#zgDeviceLogicalType
        MOVX    A,@DPTR
        XRL     A,#0x1
        JZ      ??ZDApp_ProcessOSALMsg_16
        MOVX    A,@DPTR
        XRL     A,#0x2
        JNZ     ??ZDApp_ProcessOSALMsg_5
// 1115       {
// 1116         retryCnt = 0;
??ZDApp_ProcessOSALMsg_16:
        CLR     A
        MOV     DPTR,#retryCnt
        MOVX    @DPTR,A
// 1117         devStartMode = MODE_RESUME;
        MOV     A,#0x1
        MOV     DPTR,#devStartMode
        MOVX    @DPTR,A
// 1118         _tmpRejoinState = true;
        MOV     DPTR,#_tmpRejoinState
        LCALL   ?Subroutine1 & 0xFFFF
// 1119         osal_cpyExtAddr( ZDO_UseExtendedPANID, _NIB.extendedPANID );
// 1120         zgDefaultStartingScanDuration = BEACON_ORDER_60_MSEC;
??CrossCallReturnLabel_1:
        MOV     A,#0x2
        MOV     DPTR,#zgDefaultStartingScanDuration
        MOVX    @DPTR,A
// 1121         ZDApp_NetworkInit( 0 );
        ; Setup parameters for call to function ZDApp_NetworkInit
        MOV     R2,#0x0
        MOV     R3,#0x0
??ZDApp_ProcessOSALMsg_14:
        LCALL   ??ZDApp_NetworkInit?relay
// 1122       }
// 1123       break;
// 1124 
// 1125     default:
// 1126       if ( ZG_SECURE_ENABLED )
// 1127         ZDApp_ProcessSecMsg( msgPtr );
// 1128       break;
// 1129   }
// 1130 
// 1131 }
??ZDApp_ProcessOSALMsg_5:
        MOV     A,#0x1
        LCALL   ?DEALLOC_XSTACK8
        CFI CFA_XSP16 add(XSP16, 15)
        MOV     R7,#0x7
        LJMP    ?BANKED_LEAVE_XDATA
        CFI EndBlock cfiBlock15

        RSEG BANKED_CODE:CODE:NOROOT(0)
?Subroutine1:
        CFI Block cfiCond16 Using cfiCommon0
        CFI NoFunction
        CFI Conditional ??CrossCallReturnLabel_0
        CFI R6 load(1, XDATA, add(CFA_XSP16, literal(-9)))
        CFI VB load(1, XDATA, add(CFA_XSP16, literal(-8)))
        CFI V0 load(1, XDATA, add(CFA_XSP16, literal(-7)))
        CFI R7 load(1, XDATA, add(CFA_XSP16, literal(-6)))
        CFI ?RET_LOW load(1, XDATA, add(CFA_XSP16, literal(-5)))
        CFI ?RET_HIGH load(1, XDATA, add(CFA_XSP16, literal(-4)))
        CFI ?BRET_EXT load(1, XDATA, add(CFA_XSP16, literal(-3)))
        CFI DPL0 load(1, XDATA, add(CFA_XSP16, literal(-2)))
        CFI DPH0 load(1, XDATA, add(CFA_XSP16, literal(-1)))
        CFI CFA_SP SP+0
        CFI CFA_XSP16 add(XSP16, 9)
        CFI Block cfiCond17 Using cfiCommon0
        CFI (cfiCond17) NoFunction
        CFI (cfiCond17) Conditional ??CrossCallReturnLabel_1
        CFI (cfiCond17) R6 load(1, XDATA, add(CFA_XSP16, literal(-15)))
        CFI (cfiCond17) VB load(1, XDATA, add(CFA_XSP16, literal(-14)))
        CFI (cfiCond17) V0 load(1, XDATA, add(CFA_XSP16, literal(-13)))
        CFI (cfiCond17) V1 load(1, XDATA, add(CFA_XSP16, literal(-12)))
        CFI (cfiCond17) V2 load(1, XDATA, add(CFA_XSP16, literal(-11)))
        CFI (cfiCond17) V3 load(1, XDATA, add(CFA_XSP16, literal(-10)))
        CFI (cfiCond17) V4 load(1, XDATA, add(CFA_XSP16, literal(-9)))
        CFI (cfiCond17) V5 load(1, XDATA, add(CFA_XSP16, literal(-8)))
        CFI (cfiCond17) V6 load(1, XDATA, add(CFA_XSP16, literal(-7)))
        CFI (cfiCond17) R7 load(1, XDATA, add(CFA_XSP16, literal(-6)))
        CFI (cfiCond17) ?RET_LOW load(1, XDATA, add(CFA_XSP16, literal(-5)))
        CFI (cfiCond17) ?RET_HIGH load(1, XDATA, add(CFA_XSP16, literal(-4)))
        CFI (cfiCond17) ?BRET_EXT load(1, XDATA, add(CFA_XSP16, literal(-3)))
        CFI (cfiCond17) DPL0 load(1, XDATA, add(CFA_XSP16, literal(-2)))
        CFI (cfiCond17) DPH0 load(1, XDATA, add(CFA_XSP16, literal(-1)))
        CFI (cfiCond17) CFA_SP SP+0
        CFI (cfiCond17) CFA_XSP16 add(XSP16, 16)
        CFI Block cfiPicker18 Using cfiCommon1
        CFI (cfiPicker18) NoFunction
        CFI (cfiPicker18) Picker
        MOVX    @DPTR,A
        ; Setup parameters for call to function sAddrExtCpy
        ; Setup parameters for call to function sAddrExtCpy
        MOV     R4,#((_NIB + 53) & 0xff)
        MOV     R5,#(((_NIB + 53) >> 8) & 0xff)
        MOV     R2,#(ZDO_UseExtendedPANID & 0xff)
        MOV     R3,#((ZDO_UseExtendedPANID >> 8) & 0xff)
        LCALL   ??sAddrExtCpy?relay
        RET
        CFI EndBlock cfiCond16
        CFI EndBlock cfiCond17
        CFI EndBlock cfiPicker18
// 1132 
// 1133 /*********************************************************************
// 1134  * @fn      ZDApp_ProcessMsgCBs()
// 1135  *
// 1136  * @brief   Process response messages
// 1137  *
// 1138  * @param   none
// 1139  *
// 1140  * @return  none
// 1141  */

        RSEG BANKED_CODE:CODE:NOROOT(0)
// 1142 void ZDApp_ProcessMsgCBs( zdoIncomingMsg_t *inMsg )
ZDApp_ProcessMsgCBs:
        CFI Block cfiBlock19 Using cfiCommon0
        CFI Function ZDApp_ProcessMsgCBs
// 1143 {
        FUNCALL ZDApp_ProcessMsgCBs, ZDO_ParseAddrRsp
        LOCFRAME ISTACK, 0, STACK
        LOCFRAME PSTACK, 0, STACK
        LOCFRAME XSTACK, 31, STACK
        LOCFRAME IOVERLAY, 0, STATIC
        LOCFRAME DOVERLAY, 0, STATIC
        ARGFRAME ISTACK, 0, STACK
        ARGFRAME PSTACK, 0, STACK
        ARGFRAME XSTACK, 31, STACK
        ARGFRAME IOVERLAY, 0, STATIC
        ARGFRAME DOVERLAY, 0, STATIC
        FUNCALL ZDApp_ProcessMsgCBs, ZDO_UpdateAddrManager
        LOCFRAME ISTACK, 0, STACK
        LOCFRAME PSTACK, 0, STACK
        LOCFRAME XSTACK, 31, STACK
        LOCFRAME IOVERLAY, 0, STATIC
        LOCFRAME DOVERLAY, 0, STATIC
        ARGFRAME ISTACK, 0, STACK
        ARGFRAME PSTACK, 0, STACK
        ARGFRAME XSTACK, 31, STACK
        ARGFRAME IOVERLAY, 0, STATIC
        ARGFRAME DOVERLAY, 0, STATIC
        FUNCALL ZDApp_ProcessMsgCBs, osal_mem_free
        LOCFRAME ISTACK, 0, STACK
        LOCFRAME PSTACK, 0, STACK
        LOCFRAME XSTACK, 31, STACK
        LOCFRAME IOVERLAY, 0, STATIC
        LOCFRAME DOVERLAY, 0, STATIC
        ARGFRAME ISTACK, 0, STACK
        ARGFRAME PSTACK, 0, STACK
        ARGFRAME XSTACK, 31, STACK
        ARGFRAME IOVERLAY, 0, STATIC
        ARGFRAME DOVERLAY, 0, STATIC
        FUNCALL ZDApp_ProcessMsgCBs, ZDO_ParseBindUnbindReq
        LOCFRAME ISTACK, 0, STACK
        LOCFRAME PSTACK, 0, STACK
        LOCFRAME XSTACK, 31, STACK
        LOCFRAME IOVERLAY, 0, STATIC
        LOCFRAME DOVERLAY, 0, STATIC
        ARGFRAME ISTACK, 0, STACK
        ARGFRAME PSTACK, 0, STACK
        ARGFRAME XSTACK, 31, STACK
        ARGFRAME IOVERLAY, 0, STATIC
        ARGFRAME DOVERLAY, 0, STATIC
        FUNCALL ZDApp_ProcessMsgCBs, ZDO_ProcessBindUnbindReq
        LOCFRAME ISTACK, 0, STACK
        LOCFRAME PSTACK, 0, STACK
        LOCFRAME XSTACK, 31, STACK
        LOCFRAME IOVERLAY, 0, STATIC
        LOCFRAME DOVERLAY, 0, STATIC
        ARGFRAME ISTACK, 0, STACK
        ARGFRAME PSTACK, 0, STACK
        ARGFRAME XSTACK, 31, STACK
        ARGFRAME IOVERLAY, 0, STATIC
        ARGFRAME DOVERLAY, 0, STATIC
        MOV     A,#-0xa
        LCALL   ?BANKED_ENTER_XDATA
        CFI DPH0 load(1, XDATA, add(CFA_XSP16, literal(-1)))
        CFI DPL0 load(1, XDATA, add(CFA_XSP16, literal(-2)))
        CFI ?BRET_EXT load(1, XDATA, add(CFA_XSP16, literal(-3)))
        CFI ?RET_HIGH load(1, XDATA, add(CFA_XSP16, literal(-4)))
        CFI ?RET_LOW load(1, XDATA, add(CFA_XSP16, literal(-5)))
        CFI R7 load(1, XDATA, add(CFA_XSP16, literal(-6)))
        CFI V1 load(1, XDATA, add(CFA_XSP16, literal(-7)))
        CFI V0 load(1, XDATA, add(CFA_XSP16, literal(-8)))
        CFI VB load(1, XDATA, add(CFA_XSP16, literal(-9)))
        CFI R6 load(1, XDATA, add(CFA_XSP16, literal(-10)))
        CFI CFA_SP SP+0
        CFI CFA_XSP16 add(XSP16, 10)
        ; Saved register size: 10
        ; Auto size: 21
        MOV     A,#-0x15
        LCALL   ?ALLOC_XSTACK8
        CFI CFA_XSP16 add(XSP16, 31)
        MOV     A,R2
        MOV     R6,A
        MOV     A,R3
        MOV     R7,A
// 1144   switch ( inMsg->clusterID )
        MOV     A,R6
        ADD     A,#0xc
        LCALL   ??Subroutine30_0 & 0xFFFF
??CrossCallReturnLabel_42:
        MOV     ?V0 + 0,A
        INC     DPTR
        MOVX    A,@DPTR
        MOV     ?V0 + 1,A
        MOV     R0,#?V0 + 0
        LCALL   ?US_SWITCH_SPARSE
`?<Jumptable for ZDApp_ProcessMsgCBs>_0`:
        DATA
        DW        2
        DW        33
        DW        34
        DW        ??ZDApp_ProcessMsgCBs_0
        DW        32768
        DW        32769
        DW        ??ZDApp_ProcessMsgCBs_1
        DW        0
        DW        ??ZDApp_ProcessMsgCBs_2
        CODE
// 1145   {
// 1146 #if defined ( ZDO_NWKADDR_REQUEST ) || defined ( ZDO_IEEEADDR_REQUEST ) || defined ( REFLECTOR )
// 1147     case NWK_addr_rsp:
// 1148     case IEEE_addr_rsp:
// 1149       {
// 1150         ZDO_NwkIEEEAddrResp_t *pAddrRsp;
// 1151         pAddrRsp = ZDO_ParseAddrRsp( inMsg );
??ZDApp_ProcessMsgCBs_1:
        ; Setup parameters for call to function ZDO_ParseAddrRsp
        LCALL   ??ZDO_ParseAddrRsp?relay
        MOV     ?V0 + 0,R2
        MOV     ?V0 + 1,R3
        MOV     R6,?V0 + 0
        MOV     R7,?V0 + 1
// 1152         if ( pAddrRsp )
        MOV     A,R6
        JNZ     ??ZDApp_ProcessMsgCBs_3
        MOV     A,R7
??ZDApp_ProcessMsgCBs_3:
        JZ      ??ZDApp_ProcessMsgCBs_2
// 1153         {
// 1154           if ( pAddrRsp->status == ZSuccess )
        MOV     DPL,R6
        MOV     DPH,R7
        MOVX    A,@DPTR
        JNZ     ??ZDApp_ProcessMsgCBs_4
// 1155           {
// 1156             ZDO_UpdateAddrManager( pAddrRsp->nwkAddr, pAddrRsp->extAddr );
        ; Setup parameters for call to function ZDO_UpdateAddrManager
        MOV     A,R6
        ADD     A,#0x3
        MOV     R4,A
        MOV     A,R7
        ADDC    A,#0x0
        MOV     R5,A
        INC     DPTR
        MOVX    A,@DPTR
        MOV     R2,A
        INC     DPTR
        MOVX    A,@DPTR
        MOV     R3,A
        LCALL   ??ZDO_UpdateAddrManager?relay
// 1157           }
// 1158           osal_mem_free( pAddrRsp );
??ZDApp_ProcessMsgCBs_4:
        ; Setup parameters for call to function osal_mem_free
        MOV     A,R6
        MOV     R2,A
        MOV     A,R7
        MOV     R3,A
        LCALL   ??osal_mem_free?relay
        SJMP    ??ZDApp_ProcessMsgCBs_2
// 1159         }
// 1160       }
// 1161       break;
// 1162 #endif
// 1163 
// 1164 #if defined ( REFLECTOR )
// 1165     case Bind_req:
// 1166     case Unbind_req:
// 1167       {
// 1168         ZDO_BindUnbindReq_t bindReq;
// 1169         ZDO_ParseBindUnbindReq( inMsg, &bindReq );
??ZDApp_ProcessMsgCBs_0:
        ; Setup parameters for call to function ZDO_ParseBindUnbindReq
        MOV     DPL,?XSP + 0
        MOV     DPH,?XSP + 1
        MOV     R4,DPL
        MOV     R5,DPH
        LCALL   ??ZDO_ParseBindUnbindReq?relay
// 1170         ZDO_ProcessBindUnbindReq( inMsg, &bindReq );
        ; Setup parameters for call to function ZDO_ProcessBindUnbindReq
        MOV     DPL,?XSP + 0
        MOV     DPH,?XSP + 1
        MOV     R4,DPL
        MOV     R5,DPH
        MOV     A,R6
        MOV     R2,A
        MOV     A,R7
        MOV     R3,A
        LCALL   ??ZDO_ProcessBindUnbindReq?relay
        CFI EndBlock cfiBlock19
// 1171       }
// 1172       break;
// 1173 #endif
// 1174 
// 1175 #if ( ZG_BUILD_COORDINATOR_TYPE )
// 1176     case Bind_rsp:
// 1177     case Unbind_rsp:
// 1178       if (ZG_DEVICE_COORDINATOR_TYPE && matchED)
// 1179       {
// 1180         ZDMatchSendState(
// 1181              (uint8)((inMsg->clusterID == Bind_rsp) ? ZDMATCH_REASON_BIND_RSP : ZDMATCH_REASON_UNBIND_RSP),
// 1182              ZDO_ParseBindRsp(inMsg), inMsg->TransSeq );
// 1183       }
// 1184       break;
// 1185 
// 1186     case End_Device_Bind_req:
// 1187       if (ZG_DEVICE_COORDINATOR_TYPE)
// 1188       {
// 1189         ZDEndDeviceBind_t bindReq;
// 1190         ZDO_ParseEndDeviceBindReq( inMsg, &bindReq );
// 1191         ZDO_MatchEndDeviceBind( &bindReq );
// 1192 
// 1193         // Freeing the cluster lists - if allocated.
// 1194         if ( bindReq.numInClusters )
// 1195           osal_mem_free( bindReq.inClusters );
// 1196         if ( bindReq.numOutClusters )
// 1197           osal_mem_free( bindReq.outClusters );
// 1198       }
// 1199       break;
// 1200 #endif
// 1201   }
// 1202 }
??ZDApp_ProcessMsgCBs_2:
        REQUIRE ?Subroutine25
        ; // Fall through to label ?Subroutine25

        RSEG BANKED_CODE:CODE:NOROOT(0)
?Subroutine25:
        CFI Block cfiBlock20 Using cfiCommon0
        CFI NoFunction
        CFI CFA_SP SP+0
        CFI CFA_XSP16 add(XSP16, 31)
        CFI VB load(1, XDATA, add(CFA_XSP16, literal(-9)))
        CFI DPL0 load(1, XDATA, add(CFA_XSP16, literal(-2)))
        CFI DPH0 load(1, XDATA, add(CFA_XSP16, literal(-1)))
        CFI R6 load(1, XDATA, add(CFA_XSP16, literal(-10)))
        CFI R7 load(1, XDATA, add(CFA_XSP16, literal(-6)))
        CFI V0 load(1, XDATA, add(CFA_XSP16, literal(-8)))
        CFI V1 load(1, XDATA, add(CFA_XSP16, literal(-7)))
        CFI ?BRET_EXT load(1, XDATA, add(CFA_XSP16, literal(-3)))
        CFI ?RET_HIGH load(1, XDATA, add(CFA_XSP16, literal(-4)))
        CFI ?RET_LOW load(1, XDATA, add(CFA_XSP16, literal(-5)))
        MOV     A,#0x15
        LJMP    ??Subroutine31_0 & 0xFFFF
        CFI EndBlock cfiBlock20
// 1203 
// 1204 /*********************************************************************
// 1205  * @fn      ZDApp_RegisterCBs()
// 1206  *
// 1207  * @brief   Process response messages
// 1208  *
// 1209  * @param   none
// 1210  *
// 1211  * @return  none
// 1212  */

        RSEG BANKED_CODE:CODE:NOROOT(0)
// 1213 void ZDApp_RegisterCBs( void )
ZDApp_RegisterCBs:
        CFI Block cfiBlock21 Using cfiCommon0
        CFI Function ZDApp_RegisterCBs
// 1214 {
        FUNCALL ZDApp_RegisterCBs, ZDO_RegisterForZDOMsg
        LOCFRAME ISTACK, 2, STACK
        LOCFRAME PSTACK, 0, STACK
        LOCFRAME XSTACK, 0, STACK
        LOCFRAME IOVERLAY, 0, STATIC
        LOCFRAME DOVERLAY, 0, STATIC
        ARGFRAME ISTACK, 2, STACK
        ARGFRAME PSTACK, 0, STACK
        ARGFRAME XSTACK, 0, STACK
        ARGFRAME IOVERLAY, 0, STATIC
        ARGFRAME DOVERLAY, 0, STATIC
        FUNCALL ZDApp_RegisterCBs, ZDO_RegisterForZDOMsg
        LOCFRAME ISTACK, 2, STACK
        LOCFRAME PSTACK, 0, STACK
        LOCFRAME XSTACK, 0, STACK
        LOCFRAME IOVERLAY, 0, STATIC
        LOCFRAME DOVERLAY, 0, STATIC
        ARGFRAME ISTACK, 2, STACK
        ARGFRAME PSTACK, 0, STACK
        ARGFRAME XSTACK, 0, STACK
        ARGFRAME IOVERLAY, 0, STATIC
        ARGFRAME DOVERLAY, 0, STATIC
        FUNCALL ZDApp_RegisterCBs, ZDO_RegisterForZDOMsg
        LOCFRAME ISTACK, 2, STACK
        LOCFRAME PSTACK, 0, STACK
        LOCFRAME XSTACK, 0, STACK
        LOCFRAME IOVERLAY, 0, STATIC
        LOCFRAME DOVERLAY, 0, STATIC
        ARGFRAME ISTACK, 2, STACK
        ARGFRAME PSTACK, 0, STACK
        ARGFRAME XSTACK, 0, STACK
        ARGFRAME IOVERLAY, 0, STATIC
        ARGFRAME DOVERLAY, 0, STATIC
        FUNCALL ZDApp_RegisterCBs, ZDO_RegisterForZDOMsg
        LOCFRAME ISTACK, 2, STACK
        LOCFRAME PSTACK, 0, STACK
        LOCFRAME XSTACK, 0, STACK
        LOCFRAME IOVERLAY, 0, STATIC
        LOCFRAME DOVERLAY, 0, STATIC
        ARGFRAME ISTACK, 2, STACK
        ARGFRAME PSTACK, 0, STACK
        ARGFRAME XSTACK, 0, STACK
        ARGFRAME IOVERLAY, 0, STATIC
        ARGFRAME DOVERLAY, 0, STATIC
        PUSH    DPL
        CFI DPL0 Frame(CFA_SP, 4)
        CFI CFA_SP SP+-4
        PUSH    DPH
        CFI DPH0 Frame(CFA_SP, 5)
        CFI CFA_SP SP+-5
        ; Saved register size: 2
        ; Auto size: 0
// 1215 #if defined ( ZDO_IEEEADDR_REQUEST ) || defined ( REFLECTOR )
// 1216   ZDO_RegisterForZDOMsg( ZDAppTaskID, IEEE_addr_rsp );
        ; Setup parameters for call to function ZDO_RegisterForZDOMsg
        MOV     R2,#0x1
        LCALL   ?Subroutine5 & 0xFFFF
// 1217 #endif
// 1218 #if defined ( ZDO_NWKADDR_REQUEST ) || defined ( REFLECTOR )
// 1219   ZDO_RegisterForZDOMsg( ZDAppTaskID, NWK_addr_rsp );
??CrossCallReturnLabel_31:
        ; Setup parameters for call to function ZDO_RegisterForZDOMsg
        MOV     R2,#0x0
        LCALL   ?Subroutine5 & 0xFFFF
// 1220 #endif
// 1221 #if ZG_BUILD_COORDINATOR_TYPE
// 1222   ZDO_RegisterForZDOMsg( ZDAppTaskID, Bind_rsp );
// 1223   ZDO_RegisterForZDOMsg( ZDAppTaskID, Unbind_rsp );
// 1224   ZDO_RegisterForZDOMsg( ZDAppTaskID, End_Device_Bind_req );
// 1225 #endif
// 1226 #if defined ( REFLECTOR )
// 1227   ZDO_RegisterForZDOMsg( ZDAppTaskID, Bind_req );
??CrossCallReturnLabel_32:
        ; Setup parameters for call to function ZDO_RegisterForZDOMsg
        MOV     R2,#0x21
        MOV     R3,#0x0
        LCALL   ??Subroutine26_0 & 0xFFFF
// 1228   ZDO_RegisterForZDOMsg( ZDAppTaskID, Unbind_req );
??CrossCallReturnLabel_33:
        ; Setup parameters for call to function ZDO_RegisterForZDOMsg
        MOV     R2,#0x22
        MOV     R3,#0x0
        LCALL   ??Subroutine26_0 & 0xFFFF
// 1229 #endif
// 1230 }
??CrossCallReturnLabel_34:
        LJMP    ??Subroutine29_0 & 0xFFFF
        CFI EndBlock cfiBlock21

        RSEG BANKED_CODE:CODE:NOROOT(0)
?Subroutine5:
        CFI Block cfiCond22 Using cfiCommon0
        CFI NoFunction
        CFI Conditional ??CrossCallReturnLabel_31
        CFI DPL0 Frame(CFA_SP, 4)
        CFI DPH0 Frame(CFA_SP, 5)
        CFI CFA_SP SP+-5
        CFI Block cfiCond23 Using cfiCommon0
        CFI (cfiCond23) NoFunction
        CFI (cfiCond23) Conditional ??CrossCallReturnLabel_32
        CFI (cfiCond23) DPL0 Frame(CFA_SP, 4)
        CFI (cfiCond23) DPH0 Frame(CFA_SP, 5)
        CFI (cfiCond23) CFA_SP SP+-5
        CFI Block cfiPicker24 Using cfiCommon1
        CFI (cfiPicker24) NoFunction
        CFI (cfiPicker24) Picker
        MOV     R3,#-0x80
        CFI EndBlock cfiCond22
        CFI EndBlock cfiCond23
        CFI EndBlock cfiPicker24
        REQUIRE ??Subroutine26_0
        ; // Fall through to label ??Subroutine26_0

        RSEG BANKED_CODE:CODE:NOROOT(0)
??Subroutine26_0:
        CFI Block cfiCond25 Using cfiCommon0
        CFI NoFunction
        CFI Conditional ??CrossCallReturnLabel_33
        CFI DPL0 Frame(CFA_SP, 4)
        CFI DPH0 Frame(CFA_SP, 5)
        CFI CFA_SP SP+-5
        CFI Block cfiCond26 Using cfiCommon0
        CFI (cfiCond26) NoFunction
        CFI (cfiCond26) Conditional ??CrossCallReturnLabel_34
        CFI (cfiCond26) DPL0 Frame(CFA_SP, 4)
        CFI (cfiCond26) DPH0 Frame(CFA_SP, 5)
        CFI (cfiCond26) CFA_SP SP+-5
        CFI Block cfiCond27 Using cfiCommon0
        CFI (cfiCond27) NoFunction
        CFI (cfiCond27) Conditional ??CrossCallReturnLabel_31
        CFI (cfiCond27) DPL0 Frame(CFA_SP, 4)
        CFI (cfiCond27) DPH0 Frame(CFA_SP, 5)
        CFI (cfiCond27) CFA_SP SP+-5
        CFI Block cfiCond28 Using cfiCommon0
        CFI (cfiCond28) NoFunction
        CFI (cfiCond28) Conditional ??CrossCallReturnLabel_32
        CFI (cfiCond28) DPL0 Frame(CFA_SP, 4)
        CFI (cfiCond28) DPH0 Frame(CFA_SP, 5)
        CFI (cfiCond28) CFA_SP SP+-5
        CFI Block cfiPicker29 Using cfiCommon1
        CFI (cfiPicker29) NoFunction
        CFI (cfiPicker29) Picker
        MOV     DPTR,#ZDAppTaskID
        MOVX    A,@DPTR
        MOV     R1,A
        LCALL   ??ZDO_RegisterForZDOMsg?relay
        RET
        CFI EndBlock cfiCond25
        CFI EndBlock cfiCond26
        CFI EndBlock cfiCond27
        CFI EndBlock cfiCond28
        CFI EndBlock cfiPicker29
// 1231 
// 1232 /*********************************************************************
// 1233  * @fn      ZDApp_ProcessSecMsg()
// 1234  *
// 1235  * @brief   Process the incoming security message.
// 1236  *
// 1237  * @param   msgPtr - message to process
// 1238  *
// 1239  * @return  none
// 1240  */

        RSEG BANKED_CODE:CODE:NOROOT(0)
// 1241 void ZDApp_ProcessSecMsg( osal_event_hdr_t *msgPtr )
ZDApp_ProcessSecMsg:
        CFI Block cfiBlock30 Using cfiCommon0
        CFI Function ZDApp_ProcessSecMsg
// 1242 {
        FUNCALL ZDApp_ProcessSecMsg, ZDSecMgrTransportKeyInd
        LOCFRAME ISTACK, 2, STACK
        LOCFRAME PSTACK, 0, STACK
        LOCFRAME XSTACK, 0, STACK
        LOCFRAME IOVERLAY, 0, STATIC
        LOCFRAME DOVERLAY, 0, STATIC
        ARGFRAME ISTACK, 2, STACK
        ARGFRAME PSTACK, 0, STACK
        ARGFRAME XSTACK, 0, STACK
        ARGFRAME IOVERLAY, 0, STATIC
        ARGFRAME DOVERLAY, 0, STATIC
        FUNCALL ZDApp_ProcessSecMsg, ZDSecMgrSwitchKeyInd
        LOCFRAME ISTACK, 2, STACK
        LOCFRAME PSTACK, 0, STACK
        LOCFRAME XSTACK, 0, STACK
        LOCFRAME IOVERLAY, 0, STATIC
        LOCFRAME DOVERLAY, 0, STATIC
        ARGFRAME ISTACK, 2, STACK
        ARGFRAME PSTACK, 0, STACK
        ARGFRAME XSTACK, 0, STACK
        ARGFRAME IOVERLAY, 0, STATIC
        ARGFRAME DOVERLAY, 0, STATIC
        PUSH    DPL
        CFI DPL0 Frame(CFA_SP, 4)
        CFI CFA_SP SP+-4
        PUSH    DPH
        CFI DPH0 Frame(CFA_SP, 5)
        CFI CFA_SP SP+-5
        ; Saved register size: 2
        ; Auto size: 0
// 1243   switch ( msgPtr->event )
        MOV     DPL,R2
        MOV     DPH,R3
        MOVX    A,@DPTR
        LCALL   ?UC_SWITCH_SPARSE
`?<Jumptable for ZDApp_ProcessSecMsg>_0`:
        DATA
        DB        0
        DB        2
        DB        6
        DW        ??ZDApp_ProcessSecMsg_0
        DB        10
        DW        ??ZDApp_ProcessSecMsg_1
        DW        ??ZDApp_ProcessSecMsg_2
        CODE
// 1244   {
// 1245     case ZDO_ESTABLISH_KEY_CFM:
// 1246       if ( ZG_CHECK_SECURITY_MODE == ZG_SECURITY_PRO_HIGH )
// 1247       {
// 1248         ZDSecMgrEstablishKeyCfm( (ZDO_EstablishKeyCfm_t*)msgPtr );
// 1249       }
// 1250       break;
// 1251 
// 1252     case ZDO_ESTABLISH_KEY_IND:
// 1253       if ( ZG_CHECK_SECURITY_MODE == ZG_SECURITY_PRO_HIGH )
// 1254       {
// 1255         if ( ZG_BUILD_JOINING_TYPE && ZG_DEVICE_JOINING_TYPE )
// 1256         {
// 1257           ZDSecMgrEstablishKeyInd( (ZDO_EstablishKeyInd_t*)msgPtr );
// 1258         }
// 1259       }
// 1260       break;
// 1261 
// 1262     case ZDO_TRANSPORT_KEY_IND:
// 1263       if ( ZG_BUILD_JOINING_TYPE && ZG_DEVICE_JOINING_TYPE )
??ZDApp_ProcessSecMsg_0:
        MOV     DPTR,#zgDeviceLogicalType
        MOVX    A,@DPTR
        XRL     A,#0x1
        JZ      ??ZDApp_ProcessSecMsg_3
        MOVX    A,@DPTR
        XRL     A,#0x2
        JNZ     ??ZDApp_ProcessSecMsg_2
// 1264       {
// 1265         ZDSecMgrTransportKeyInd( (ZDO_TransportKeyInd_t*)msgPtr );
??ZDApp_ProcessSecMsg_3:
        ; Setup parameters for call to function ZDSecMgrTransportKeyInd
        LCALL   ??ZDSecMgrTransportKeyInd?relay
        SJMP    ??ZDApp_ProcessSecMsg_2
// 1266       }
// 1267       break;
// 1268 
// 1269     case ZDO_UPDATE_DEVICE_IND:
// 1270       if ( ZG_BUILD_COORDINATOR_TYPE && ZG_DEVICE_COORDINATOR_TYPE )
// 1271       {
// 1272         ZDSecMgrUpdateDeviceInd( (ZDO_UpdateDeviceInd_t*)msgPtr );
// 1273       }
// 1274       break;
// 1275 
// 1276     case ZDO_REMOVE_DEVICE_IND:
// 1277       if ( ZG_BUILD_RTRONLY_TYPE && ( zgDeviceLogicalType == ZG_DEVICETYPE_ROUTER ) )
// 1278       {
// 1279         ZDSecMgrRemoveDeviceInd( (ZDO_RemoveDeviceInd_t*)msgPtr );
// 1280       }
// 1281       break;
// 1282 
// 1283     case ZDO_REQUEST_KEY_IND:
// 1284       if ( ZG_CHECK_SECURITY_MODE == ZG_SECURITY_PRO_HIGH )
// 1285       {
// 1286         if ( ZG_BUILD_COORDINATOR_TYPE && ZG_DEVICE_COORDINATOR_TYPE )
// 1287         {
// 1288           ZDSecMgrRequestKeyInd( (ZDO_RequestKeyInd_t*)msgPtr );
// 1289         }
// 1290       }
// 1291       break;
// 1292 
// 1293     case ZDO_SWITCH_KEY_IND:
// 1294       if ( ZG_BUILD_JOINING_TYPE && ZG_DEVICE_JOINING_TYPE )
??ZDApp_ProcessSecMsg_1:
        MOV     DPTR,#zgDeviceLogicalType
        MOVX    A,@DPTR
        XRL     A,#0x1
        JZ      ??ZDApp_ProcessSecMsg_4
        MOVX    A,@DPTR
        XRL     A,#0x2
        JNZ     ??ZDApp_ProcessSecMsg_2
// 1295       {
// 1296         ZDSecMgrSwitchKeyInd( (ZDO_SwitchKeyInd_t*)msgPtr );
??ZDApp_ProcessSecMsg_4:
        ; Setup parameters for call to function ZDSecMgrSwitchKeyInd
        LCALL   ??ZDSecMgrSwitchKeyInd?relay
// 1297       }
// 1298       break;
// 1299 
// 1300     case ZDO_AUTHENTICATE_IND:
// 1301       if ( ZG_CHECK_SECURITY_MODE == ZG_SECURITY_PRO_HIGH )
// 1302       {
// 1303         ZDSecMgrAuthenticateInd( (ZDO_AuthenticateInd_t*)msgPtr );
// 1304       }
// 1305       break;
// 1306 
// 1307     case ZDO_AUTHENTICATE_CFM:
// 1308       if ( ZG_CHECK_SECURITY_MODE == ZG_SECURITY_PRO_HIGH )
// 1309       {
// 1310         ZDSecMgrAuthenticateCfm( (ZDO_AuthenticateCfm_t*)msgPtr );
// 1311       }
// 1312       break;
// 1313 
// 1314     default:
// 1315       // Unsupported messages
// 1316       break;
// 1317   }
// 1318 }
??ZDApp_ProcessSecMsg_2:
        LJMP    ??Subroutine29_0 & 0xFFFF
        CFI EndBlock cfiBlock30
// 1319 
// 1320 /*********************************************************************
// 1321  * @fn      ZDApp_ProcessNetworkJoin()
// 1322  *
// 1323  * @brief
// 1324  *
// 1325  *   Save off the Network key information.
// 1326  *
// 1327  * @param   none
// 1328  *
// 1329  * @return  none
// 1330  */

        RSEG BANKED_CODE:CODE:NOROOT(0)
// 1331 void ZDApp_ProcessNetworkJoin( void )
ZDApp_ProcessNetworkJoin:
        CFI Block cfiBlock31 Using cfiCommon0
        CFI Function ZDApp_ProcessNetworkJoin
// 1332 {
        FUNCALL ZDApp_ProcessNetworkJoin, osal_set_event
        LOCFRAME ISTACK, 0, STACK
        LOCFRAME PSTACK, 0, STACK
        LOCFRAME XSTACK, 12, STACK
        LOCFRAME IOVERLAY, 0, STATIC
        LOCFRAME DOVERLAY, 0, STATIC
        ARGFRAME ISTACK, 0, STACK
        ARGFRAME PSTACK, 0, STACK
        ARGFRAME XSTACK, 12, STACK
        ARGFRAME IOVERLAY, 0, STATIC
        ARGFRAME DOVERLAY, 0, STATIC
        FUNCALL ZDApp_ProcessNetworkJoin, ZDApp_AnnounceNewAddress
        LOCFRAME ISTACK, 0, STACK
        LOCFRAME PSTACK, 0, STACK
        LOCFRAME XSTACK, 12, STACK
        LOCFRAME IOVERLAY, 0, STATIC
        LOCFRAME DOVERLAY, 0, STATIC
        ARGFRAME ISTACK, 0, STACK
        ARGFRAME PSTACK, 0, STACK
        ARGFRAME XSTACK, 12, STACK
        ARGFRAME IOVERLAY, 0, STATIC
        ARGFRAME DOVERLAY, 0, STATIC
        FUNCALL ZDApp_ProcessNetworkJoin, NLME_GetShortAddr
        LOCFRAME ISTACK, 0, STACK
        LOCFRAME PSTACK, 0, STACK
        LOCFRAME XSTACK, 12, STACK
        LOCFRAME IOVERLAY, 0, STATIC
        LOCFRAME DOVERLAY, 0, STATIC
        ARGFRAME ISTACK, 0, STACK
        ARGFRAME PSTACK, 0, STACK
        ARGFRAME XSTACK, 12, STACK
        ARGFRAME IOVERLAY, 0, STATIC
        ARGFRAME DOVERLAY, 0, STATIC
        FUNCALL ZDApp_ProcessNetworkJoin, ZMacSetReq
        LOCFRAME ISTACK, 0, STACK
        LOCFRAME PSTACK, 0, STACK
        LOCFRAME XSTACK, 12, STACK
        LOCFRAME IOVERLAY, 0, STATIC
        LOCFRAME DOVERLAY, 0, STATIC
        ARGFRAME ISTACK, 0, STACK
        ARGFRAME PSTACK, 0, STACK
        ARGFRAME XSTACK, 12, STACK
        ARGFRAME IOVERLAY, 0, STATIC
        ARGFRAME DOVERLAY, 0, STATIC
        FUNCALL ZDApp_ProcessNetworkJoin, nwkNeighborInitTable
        LOCFRAME ISTACK, 0, STACK
        LOCFRAME PSTACK, 0, STACK
        LOCFRAME XSTACK, 12, STACK
        LOCFRAME IOVERLAY, 0, STATIC
        LOCFRAME DOVERLAY, 0, STATIC
        ARGFRAME ISTACK, 0, STACK
        ARGFRAME PSTACK, 0, STACK
        ARGFRAME XSTACK, 12, STACK
        ARGFRAME IOVERLAY, 0, STATIC
        ARGFRAME DOVERLAY, 0, STATIC
        FUNCALL ZDApp_ProcessNetworkJoin, NLME_NwkDiscTerm
        LOCFRAME ISTACK, 0, STACK
        LOCFRAME PSTACK, 0, STACK
        LOCFRAME XSTACK, 12, STACK
        LOCFRAME IOVERLAY, 0, STATIC
        LOCFRAME DOVERLAY, 0, STATIC
        ARGFRAME ISTACK, 0, STACK
        ARGFRAME PSTACK, 0, STACK
        ARGFRAME XSTACK, 12, STACK
        ARGFRAME IOVERLAY, 0, STATIC
        ARGFRAME DOVERLAY, 0, STATIC
        FUNCALL ZDApp_ProcessNetworkJoin, osal_rand
        LOCFRAME ISTACK, 0, STACK
        LOCFRAME PSTACK, 0, STACK
        LOCFRAME XSTACK, 12, STACK
        LOCFRAME IOVERLAY, 0, STATIC
        LOCFRAME DOVERLAY, 0, STATIC
        ARGFRAME ISTACK, 0, STACK
        ARGFRAME PSTACK, 0, STACK
        ARGFRAME XSTACK, 12, STACK
        ARGFRAME IOVERLAY, 0, STATIC
        ARGFRAME DOVERLAY, 0, STATIC
        FUNCALL ZDApp_ProcessNetworkJoin, ZDApp_NetworkInit
        LOCFRAME ISTACK, 0, STACK
        LOCFRAME PSTACK, 0, STACK
        LOCFRAME XSTACK, 12, STACK
        LOCFRAME IOVERLAY, 0, STATIC
        LOCFRAME DOVERLAY, 0, STATIC
        ARGFRAME ISTACK, 0, STACK
        ARGFRAME PSTACK, 0, STACK
        ARGFRAME XSTACK, 12, STACK
        ARGFRAME IOVERLAY, 0, STATIC
        ARGFRAME DOVERLAY, 0, STATIC
        FUNCALL ZDApp_ProcessNetworkJoin, osal_set_event
        LOCFRAME ISTACK, 0, STACK
        LOCFRAME PSTACK, 0, STACK
        LOCFRAME XSTACK, 12, STACK
        LOCFRAME IOVERLAY, 0, STATIC
        LOCFRAME DOVERLAY, 0, STATIC
        ARGFRAME ISTACK, 0, STACK
        ARGFRAME PSTACK, 0, STACK
        ARGFRAME XSTACK, 12, STACK
        ARGFRAME IOVERLAY, 0, STATIC
        ARGFRAME DOVERLAY, 0, STATIC
        FUNCALL ZDApp_ProcessNetworkJoin, NLME_SetPollRate
        LOCFRAME ISTACK, 0, STACK
        LOCFRAME PSTACK, 0, STACK
        LOCFRAME XSTACK, 12, STACK
        LOCFRAME IOVERLAY, 0, STATIC
        LOCFRAME DOVERLAY, 0, STATIC
        ARGFRAME ISTACK, 0, STACK
        ARGFRAME PSTACK, 0, STACK
        ARGFRAME XSTACK, 12, STACK
        ARGFRAME IOVERLAY, 0, STATIC
        ARGFRAME DOVERLAY, 0, STATIC
        FUNCALL ZDApp_ProcessNetworkJoin, NLME_SetQueuedPollRate
        LOCFRAME ISTACK, 0, STACK
        LOCFRAME PSTACK, 0, STACK
        LOCFRAME XSTACK, 12, STACK
        LOCFRAME IOVERLAY, 0, STATIC
        LOCFRAME DOVERLAY, 0, STATIC
        ARGFRAME ISTACK, 0, STACK
        ARGFRAME PSTACK, 0, STACK
        ARGFRAME XSTACK, 12, STACK
        ARGFRAME IOVERLAY, 0, STATIC
        ARGFRAME DOVERLAY, 0, STATIC
        FUNCALL ZDApp_ProcessNetworkJoin, NLME_SetResponseRate
        LOCFRAME ISTACK, 0, STACK
        LOCFRAME PSTACK, 0, STACK
        LOCFRAME XSTACK, 12, STACK
        LOCFRAME IOVERLAY, 0, STATIC
        LOCFRAME DOVERLAY, 0, STATIC
        ARGFRAME ISTACK, 0, STACK
        ARGFRAME PSTACK, 0, STACK
        ARGFRAME XSTACK, 12, STACK
        ARGFRAME IOVERLAY, 0, STATIC
        ARGFRAME DOVERLAY, 0, STATIC
        FUNCALL ZDApp_ProcessNetworkJoin, ZDApp_AnnounceNewAddress
        LOCFRAME ISTACK, 0, STACK
        LOCFRAME PSTACK, 0, STACK
        LOCFRAME XSTACK, 12, STACK
        LOCFRAME IOVERLAY, 0, STATIC
        LOCFRAME DOVERLAY, 0, STATIC
        ARGFRAME ISTACK, 0, STACK
        ARGFRAME PSTACK, 0, STACK
        ARGFRAME XSTACK, 12, STACK
        ARGFRAME IOVERLAY, 0, STATIC
        ARGFRAME DOVERLAY, 0, STATIC
        FUNCALL ZDApp_ProcessNetworkJoin, nwkNeighborInitTable
        LOCFRAME ISTACK, 0, STACK
        LOCFRAME PSTACK, 0, STACK
        LOCFRAME XSTACK, 12, STACK
        LOCFRAME IOVERLAY, 0, STATIC
        LOCFRAME DOVERLAY, 0, STATIC
        ARGFRAME ISTACK, 0, STACK
        ARGFRAME PSTACK, 0, STACK
        ARGFRAME XSTACK, 12, STACK
        ARGFRAME IOVERLAY, 0, STATIC
        ARGFRAME DOVERLAY, 0, STATIC
        FUNCALL ZDApp_ProcessNetworkJoin, NLME_NwkDiscTerm
        LOCFRAME ISTACK, 0, STACK
        LOCFRAME PSTACK, 0, STACK
        LOCFRAME XSTACK, 12, STACK
        LOCFRAME IOVERLAY, 0, STATIC
        LOCFRAME DOVERLAY, 0, STATIC
        ARGFRAME ISTACK, 0, STACK
        ARGFRAME PSTACK, 0, STACK
        ARGFRAME XSTACK, 12, STACK
        ARGFRAME IOVERLAY, 0, STATIC
        ARGFRAME DOVERLAY, 0, STATIC
        FUNCALL ZDApp_ProcessNetworkJoin, osal_rand
        LOCFRAME ISTACK, 0, STACK
        LOCFRAME PSTACK, 0, STACK
        LOCFRAME XSTACK, 12, STACK
        LOCFRAME IOVERLAY, 0, STATIC
        LOCFRAME DOVERLAY, 0, STATIC
        ARGFRAME ISTACK, 0, STACK
        ARGFRAME PSTACK, 0, STACK
        ARGFRAME XSTACK, 12, STACK
        ARGFRAME IOVERLAY, 0, STATIC
        ARGFRAME DOVERLAY, 0, STATIC
        FUNCALL ZDApp_ProcessNetworkJoin, ZDApp_NetworkInit
        LOCFRAME ISTACK, 0, STACK
        LOCFRAME PSTACK, 0, STACK
        LOCFRAME XSTACK, 12, STACK
        LOCFRAME IOVERLAY, 0, STATIC
        LOCFRAME DOVERLAY, 0, STATIC
        ARGFRAME ISTACK, 0, STACK
        ARGFRAME PSTACK, 0, STACK
        ARGFRAME XSTACK, 12, STACK
        ARGFRAME IOVERLAY, 0, STATIC
        ARGFRAME DOVERLAY, 0, STATIC
        MOV     A,#-0xa
        LCALL   ?BANKED_ENTER_XDATA
        CFI DPH0 load(1, XDATA, add(CFA_XSP16, literal(-1)))
        CFI DPL0 load(1, XDATA, add(CFA_XSP16, literal(-2)))
        CFI ?BRET_EXT load(1, XDATA, add(CFA_XSP16, literal(-3)))
        CFI ?RET_HIGH load(1, XDATA, add(CFA_XSP16, literal(-4)))
        CFI ?RET_LOW load(1, XDATA, add(CFA_XSP16, literal(-5)))
        CFI R7 load(1, XDATA, add(CFA_XSP16, literal(-6)))
        CFI V1 load(1, XDATA, add(CFA_XSP16, literal(-7)))
        CFI V0 load(1, XDATA, add(CFA_XSP16, literal(-8)))
        CFI VB load(1, XDATA, add(CFA_XSP16, literal(-9)))
        CFI R6 load(1, XDATA, add(CFA_XSP16, literal(-10)))
        CFI CFA_SP SP+0
        CFI CFA_XSP16 add(XSP16, 10)
        ; Saved register size: 10
        ; Auto size: 2
        MOV     A,#-0x2
        LCALL   ?ALLOC_XSTACK8
        CFI CFA_XSP16 add(XSP16, 12)
// 1333   if ( (devState == DEV_NWK_JOINING) ||
// 1334       ((devState == DEV_NWK_ORPHAN)  &&
// 1335        (ZDO_Config_Node_Descriptor.LogicalType == NODETYPE_ROUTER)) )
        MOV     DPTR,#devState
        MOVX    A,@DPTR
        XRL     A,#0x3
        JZ      ??ZDApp_ProcessNetworkJoin_0
        MOVX    A,@DPTR
        XRL     A,#0xa
        JZ      $+5
        LJMP    ??ZDApp_ProcessNetworkJoin_1 & 0xFFFF
        MOV     DPTR,#ZDO_Config_Node_Descriptor
        MOVX    A,@DPTR
        ANL     A,#0x7
        XRL     A,#0x1
        JZ      $+5
        LJMP    ??ZDApp_ProcessNetworkJoin_2 & 0xFFFF
// 1336   {
// 1337     // Result of a Join attempt by this device.
// 1338     if ( nwkStatus == ZSuccess )
??ZDApp_ProcessNetworkJoin_0:
        MOV     DPTR,#nwkStatus
        MOVX    A,@DPTR
        JNZ     ??ZDApp_ProcessNetworkJoin_3
// 1339     {
// 1340       osal_set_event( ZDAppTaskID, ZDO_STATE_CHANGE_EVT );
        ; Setup parameters for call to function osal_set_event
        LCALL   ?Subroutine4 & 0xFFFF
// 1341 
// 1342 #if defined ( POWER_SAVING )
// 1343       osal_pwrmgr_device( PWRMGR_BATTERY );
// 1344 #endif
// 1345 
// 1346       if ( ZG_SECURE_ENABLED && ( ZDApp_RestoreNwkKey() == false ) )
// 1347       {
// 1348         // wait for auth from trust center!!
// 1349         devState = DEV_END_DEVICE_UNAUTH;
// 1350 
// 1351         // Start the reset timer for MAX UNAUTH time
// 1352         ZDApp_ResetTimerStart( 10000 );//MAX_DEVICE_UNAUTH_TIMEOUT );
// 1353       }
// 1354       else
// 1355       {
// 1356         if ( ZSTACK_ROUTER_BUILD )
// 1357         {
// 1358           if ( devState == DEV_NWK_ORPHAN
// 1359             && ZDO_Config_Node_Descriptor.LogicalType != NODETYPE_DEVICE )
// 1360           {
// 1361             // Change NIB state to router for restore
// 1362             _NIB.nwkState = NWK_ROUTER;
// 1363           }
// 1364         }
// 1365 
// 1366         if ( devState == DEV_NWK_JOINING )
??CrossCallReturnLabel_22:
        MOV     DPTR,#devState
        MOVX    A,@DPTR
        XRL     A,#0x3
        JNZ     ??ZDApp_ProcessNetworkJoin_4
// 1367         {
// 1368           ZDApp_AnnounceNewAddress();
        ; Setup parameters for call to function ZDApp_AnnounceNewAddress
        LCALL   ??ZDApp_AnnounceNewAddress?relay
// 1369         }
// 1370 
// 1371         devState = DEV_END_DEVICE;
??ZDApp_ProcessNetworkJoin_4:
        MOV     A,#0x6
        MOV     DPTR,#devState
        MOVX    @DPTR,A
// 1372         if ( ZSTACK_ROUTER_BUILD )
        LJMP    ??CrossCallReturnLabel_11 & 0xFFFF
// 1373         {
// 1374           // NOTE: first two parameters are not used, see NLMEDE.h for details
// 1375           if ( ZDO_Config_Node_Descriptor.LogicalType != NODETYPE_DEVICE )
// 1376           {
// 1377             NLME_StartRouterRequest( 0, 0, false );
// 1378           }
// 1379         }
// 1380       }
// 1381     }
// 1382     else
// 1383     {
// 1384       if ( (devStartMode == MODE_RESUME) && (++retryCnt >= MAX_RESUME_RETRY) )
??ZDApp_ProcessNetworkJoin_3:
        MOV     DPTR,#devStartMode
        MOVX    A,@DPTR
        XRL     A,#0x1
        JNZ     ??ZDApp_ProcessNetworkJoin_5
        MOV     DPTR,#retryCnt
        MOVX    A,@DPTR
        INC     A
        MOVX    @DPTR,A
        CLR     C
        SUBB    A,#0x3
        JC      ??ZDApp_ProcessNetworkJoin_5
// 1385       {
// 1386         if ( _NIB.nwkPanId == 0xFFFF || _NIB.nwkPanId == INVALID_PAN_ID )
        LCALL   ?Subroutine8 & 0xFFFF
??CrossCallReturnLabel_4:
        JNZ     ??ZDApp_ProcessNetworkJoin_6
        MOV     A,#-0x1
        XRL     A,R1
??ZDApp_ProcessNetworkJoin_6:
        JZ      ??ZDApp_ProcessNetworkJoin_7
        MOV     A,#-0x2
        XRL     A,R0
        JNZ     ??ZDApp_ProcessNetworkJoin_8
        MOV     A,#-0x1
        XRL     A,R1
??ZDApp_ProcessNetworkJoin_8:
        JNZ     ??ZDApp_ProcessNetworkJoin_9
// 1387           devStartMode = MODE_JOIN;
??ZDApp_ProcessNetworkJoin_7:
        CLR     A
        MOV     DPTR,#devStartMode
        SJMP    ??ZDApp_ProcessNetworkJoin_10
// 1388         else
// 1389         {
// 1390           devStartMode = MODE_REJOIN;
??ZDApp_ProcessNetworkJoin_9:
        MOV     A,#0x3
        MOV     DPTR,#devStartMode
        MOVX    @DPTR,A
// 1391           _tmpRejoinState = true;
        MOV     A,#0x1
        MOV     DPTR,#_tmpRejoinState
??ZDApp_ProcessNetworkJoin_10:
        MOVX    @DPTR,A
// 1392         }
// 1393       }
// 1394 
// 1395       if ( (NLME_GetShortAddr() != INVALID_NODE_ADDR) ||
// 1396            (_NIB.nwkDevAddress != INVALID_NODE_ADDR) )
??ZDApp_ProcessNetworkJoin_5:
        ; Setup parameters for call to function NLME_GetShortAddr
        LCALL   ??NLME_GetShortAddr?relay
        MOV     ?V0 + 0,R2
        MOV     ?V0 + 1,R3
        MOV     A,#-0x2
        XRL     A,?V0 + 0
        JNZ     ??ZDApp_ProcessNetworkJoin_11
        MOV     A,#-0x1
        XRL     A,?V0 + 1
??ZDApp_ProcessNetworkJoin_11:
        JNZ     ??ZDApp_ProcessNetworkJoin_12
        MOV     DPTR,#(_NIB + 20)
        MOVX    A,@DPTR
        XRL     A,#0xfe
        JNZ     ??ZDApp_ProcessNetworkJoin_13
        INC     DPTR
        MOVX    A,@DPTR
        XRL     A,#0xff
??ZDApp_ProcessNetworkJoin_13:
        JZ      ??ZDApp_ProcessNetworkJoin_14
// 1397       {
// 1398         uint16 addr = INVALID_NODE_ADDR;
??ZDApp_ProcessNetworkJoin_12:
        MOV     DPL,?XSP + 0
        MOV     DPH,?XSP + 1
        MOV     A,#-0x2
        MOVX    @DPTR,A
        INC     DPTR
        MOV     A,#-0x1
        MOVX    @DPTR,A
// 1399         // Invalidate nwk addr so end device does not use in its data reqs.
// 1400         _NIB.nwkDevAddress = INVALID_NODE_ADDR;
        MOV     DPTR,#(_NIB + 20)
        MOV     A,#-0x2
        MOVX    @DPTR,A
        INC     DPTR
        MOV     A,#-0x1
        MOVX    @DPTR,A
// 1401         ZMacSetReq( ZMacShortAddress, (uint8 *)&addr );
        ; Setup parameters for call to function ZMacSetReq
        MOV     DPL,?XSP + 0
        MOV     DPH,?XSP + 1
        MOV     R2,DPL
        MOV     R3,DPH
        MOV     R1,#0x53
        LCALL   ??ZMacSetReq?relay
// 1402       }
// 1403 
// 1404       // Clear the neighbor Table and network discovery tables.
// 1405       nwkNeighborInitTable();
??ZDApp_ProcessNetworkJoin_14:
        ; Setup parameters for call to function nwkNeighborInitTable
        LCALL   ??nwkNeighborInitTable?relay
// 1406       NLME_NwkDiscTerm();
        ; Setup parameters for call to function NLME_NwkDiscTerm
        LCALL   ??NLME_NwkDiscTerm?relay
// 1407 
// 1408       zdoDiscCounter = 1;
        MOV     A,#0x1
        MOV     DPTR,#zdoDiscCounter
        MOVX    @DPTR,A
// 1409 
// 1410 //      ZDApp_NetworkInit( (uint16)
// 1411 //                         ((NWK_START_DELAY * (osal_rand() & 0x0F)) +
// 1412 //                          (NWK_START_DELAY * 5)) );
// 1413       ZDApp_NetworkInit( (uint16)(NWK_START_DELAY
// 1414            + ((uint16)(osal_rand()& EXTENDED_JOINING_RANDOM_MASK))) );
        ; Setup parameters for call to function ZDApp_NetworkInit
        ; Setup parameters for call to function osal_rand
        SJMP    ??ZDApp_ProcessNetworkJoin_15
// 1415     }
// 1416   }
// 1417   else if ( devState == DEV_NWK_ORPHAN || devState == DEV_NWK_REJOIN )
??ZDApp_ProcessNetworkJoin_1:
        MOVX    A,@DPTR
        XRL     A,#0x4
        JNZ     ??CrossCallReturnLabel_11
// 1418   {
// 1419     // results of an orphaning attempt by this device
// 1420     if (nwkStatus == ZSuccess)
??ZDApp_ProcessNetworkJoin_2:
        MOV     DPTR,#nwkStatus
        MOVX    A,@DPTR
        JNZ     ??ZDApp_ProcessNetworkJoin_16
// 1421     {
// 1422       if ( ZG_SECURE_ENABLED )
// 1423       {
// 1424         ZDApp_RestoreNwkKey();
// 1425       }
// 1426 
// 1427       devState = DEV_END_DEVICE;
        LCALL   ?Subroutine0 & 0xFFFF
// 1428       osal_set_event( ZDAppTaskID, ZDO_STATE_CHANGE_EVT );
// 1429       // setup Power Manager Device
// 1430 #if defined ( POWER_SAVING )
// 1431       osal_pwrmgr_device( PWRMGR_BATTERY );
// 1432 #endif
// 1433 
// 1434       if ( ZDO_Config_Node_Descriptor.CapabilityFlags & CAPINFO_RCVR_ON_IDLE )
??CrossCallReturnLabel_27:
        MOV     DPTR,#(ZDO_Config_Node_Descriptor + 2)
        MOVX    A,@DPTR
        MOV     C,0xE0 /* A   */.3
        JNC     ??CrossCallReturnLabel_15
// 1435       {
// 1436         // The receiver is on, turn network layer polling off.
// 1437         NLME_SetPollRate( 0 );
        ; Setup parameters for call to function NLME_SetPollRate
        LCALL   ?Subroutine13 & 0xFFFF
// 1438         NLME_SetQueuedPollRate( 0 );
// 1439         NLME_SetResponseRate( 0 );
// 1440       }
// 1441 
// 1442       if ( ZSTACK_ROUTER_BUILD )
// 1443       {
// 1444         // NOTE: first two parameters are not used, see NLMEDE.h for details
// 1445         if ( ZDO_Config_Node_Descriptor.LogicalType != NODETYPE_DEVICE )
// 1446         {
// 1447           NLME_StartRouterRequest( 0, 0, false );
// 1448         }
// 1449       }
// 1450 
// 1451       ZDApp_AnnounceNewAddress();
??CrossCallReturnLabel_15:
        ; Setup parameters for call to function ZDApp_AnnounceNewAddress
        LCALL   ??ZDApp_AnnounceNewAddress?relay
        SJMP    ??CrossCallReturnLabel_11
// 1452     }
// 1453     else
// 1454     {
// 1455       if ( devStartMode == MODE_RESUME )
??ZDApp_ProcessNetworkJoin_16:
        MOV     DPTR,#devStartMode
        MOVX    A,@DPTR
        XRL     A,#0x1
        JNZ     ??ZDApp_ProcessNetworkJoin_17
// 1456       {
// 1457         if ( ++retryCnt <= MAX_RESUME_RETRY )
        MOV     DPTR,#retryCnt
        MOVX    A,@DPTR
        INC     A
        MOVX    @DPTR,A
        CLR     C
        SUBB    A,#0x4
        JNC     ??ZDApp_ProcessNetworkJoin_18
// 1458         {
// 1459           if ( _NIB.nwkPanId == 0xFFFF || _NIB.nwkPanId == INVALID_PAN_ID )
        LCALL   ?Subroutine8 & 0xFFFF
??CrossCallReturnLabel_5:
        JNZ     ??ZDApp_ProcessNetworkJoin_19
        MOV     A,#-0x1
        XRL     A,R1
??ZDApp_ProcessNetworkJoin_19:
        JZ      ??ZDApp_ProcessNetworkJoin_20
        MOV     A,#-0x2
        XRL     A,R0
        JNZ     ??ZDApp_ProcessNetworkJoin_21
        MOV     A,#-0x1
        XRL     A,R1
??ZDApp_ProcessNetworkJoin_21:
        JNZ     ??ZDApp_ProcessNetworkJoin_22
// 1460             devStartMode = MODE_JOIN;
??ZDApp_ProcessNetworkJoin_20:
        CLR     A
        MOV     DPTR,#devStartMode
??ZDApp_ProcessNetworkJoin_23:
        MOVX    @DPTR,A
        SJMP    ??ZDApp_ProcessNetworkJoin_17
// 1461           else
// 1462           {
// 1463             devStartMode = MODE_REJOIN;
??ZDApp_ProcessNetworkJoin_22:
        MOV     A,#0x3
        MOV     DPTR,#devStartMode
        MOVX    @DPTR,A
// 1464             _tmpRejoinState = true;
        MOV     A,#0x1
        MOV     DPTR,#_tmpRejoinState
        SJMP    ??ZDApp_ProcessNetworkJoin_23
// 1465           }
// 1466         }
// 1467         // Do a normal join to the network after certain times of rejoin retries
// 1468         else if( AIB_apsUseInsecureJoin == true )
??ZDApp_ProcessNetworkJoin_18:
        MOV     DPTR,#AIB_apsUseInsecureJoin
        MOVX    A,@DPTR
        XRL     A,#0x1
        JZ      ??ZDApp_ProcessNetworkJoin_20
// 1469         {
// 1470           devStartMode = MODE_JOIN;
// 1471         }
// 1472       }
// 1473 
// 1474       // Clear the neighbor Table and network discovery tables.
// 1475       nwkNeighborInitTable();
??ZDApp_ProcessNetworkJoin_17:
        ; Setup parameters for call to function nwkNeighborInitTable
        LCALL   ??nwkNeighborInitTable?relay
// 1476       NLME_NwkDiscTerm();
        ; Setup parameters for call to function NLME_NwkDiscTerm
        LCALL   ??NLME_NwkDiscTerm?relay
// 1477 
// 1478       // setup a retry for later...
// 1479       ZDApp_NetworkInit( (uint16)(NWK_START_DELAY
// 1480            + (osal_rand()& EXTENDED_JOINING_RANDOM_MASK)) );
        ; Setup parameters for call to function ZDApp_NetworkInit
        ; Setup parameters for call to function osal_rand
// 1481     }
// 1482   }
??ZDApp_ProcessNetworkJoin_15:
        LCALL   ?Subroutine10 & 0xFFFF
// 1483 #if defined ( ZIGBEE_STOCHASTIC_ADDRESSING )
// 1484   else
// 1485   {
// 1486     // Assume from address conflict
// 1487     if ( _NIB.nwkAddrAlloc == NWK_ADDRESSING_STOCHASTIC )
// 1488     {
// 1489       // Notify the network
// 1490       ZDApp_AnnounceNewAddress();
// 1491 
// 1492       // Notify apps
// 1493       osal_set_event( ZDAppTaskID, ZDO_STATE_CHANGE_EVT );
// 1494     }
// 1495   }
// 1496 #endif
// 1497 }
??CrossCallReturnLabel_11:
        LJMP    ?Subroutine19 & 0xFFFF
        CFI EndBlock cfiBlock31

        RSEG BANKED_CODE:CODE:NOROOT(0)
?Subroutine13:
        CFI Block cfiCond32 Using cfiCommon0
        CFI NoFunction
        CFI Conditional ??CrossCallReturnLabel_14
        CFI R6 load(1, XDATA, add(CFA_XSP16, literal(-15)))
        CFI VB load(1, XDATA, add(CFA_XSP16, literal(-14)))
        CFI V0 load(1, XDATA, add(CFA_XSP16, literal(-13)))
        CFI V1 load(1, XDATA, add(CFA_XSP16, literal(-12)))
        CFI V2 load(1, XDATA, add(CFA_XSP16, literal(-11)))
        CFI V3 load(1, XDATA, add(CFA_XSP16, literal(-10)))
        CFI V4 load(1, XDATA, add(CFA_XSP16, literal(-9)))
        CFI V5 load(1, XDATA, add(CFA_XSP16, literal(-8)))
        CFI V6 load(1, XDATA, add(CFA_XSP16, literal(-7)))
        CFI R7 load(1, XDATA, add(CFA_XSP16, literal(-6)))
        CFI ?RET_LOW load(1, XDATA, add(CFA_XSP16, literal(-5)))
        CFI ?RET_HIGH load(1, XDATA, add(CFA_XSP16, literal(-4)))
        CFI ?BRET_EXT load(1, XDATA, add(CFA_XSP16, literal(-3)))
        CFI DPL0 load(1, XDATA, add(CFA_XSP16, literal(-2)))
        CFI DPH0 load(1, XDATA, add(CFA_XSP16, literal(-1)))
        CFI CFA_SP SP+0
        CFI CFA_XSP16 add(XSP16, 16)
        CFI Block cfiCond33 Using cfiCommon0
        CFI (cfiCond33) NoFunction
        CFI (cfiCond33) Conditional ??CrossCallReturnLabel_15
        CFI (cfiCond33) R6 load(1, XDATA, add(CFA_XSP16, literal(-10)))
        CFI (cfiCond33) VB load(1, XDATA, add(CFA_XSP16, literal(-9)))
        CFI (cfiCond33) V0 load(1, XDATA, add(CFA_XSP16, literal(-8)))
        CFI (cfiCond33) V1 load(1, XDATA, add(CFA_XSP16, literal(-7)))
        CFI (cfiCond33) R7 load(1, XDATA, add(CFA_XSP16, literal(-6)))
        CFI (cfiCond33) ?RET_LOW load(1, XDATA, add(CFA_XSP16, literal(-5)))
        CFI (cfiCond33) ?RET_HIGH load(1, XDATA, add(CFA_XSP16, literal(-4)))
        CFI (cfiCond33) ?BRET_EXT load(1, XDATA, add(CFA_XSP16, literal(-3)))
        CFI (cfiCond33) DPL0 load(1, XDATA, add(CFA_XSP16, literal(-2)))
        CFI (cfiCond33) DPH0 load(1, XDATA, add(CFA_XSP16, literal(-1)))
        CFI (cfiCond33) CFA_SP SP+0
        CFI (cfiCond33) CFA_XSP16 add(XSP16, 12)
        CFI Block cfiPicker34 Using cfiCommon1
        CFI (cfiPicker34) NoFunction
        CFI (cfiPicker34) Picker
        MOV     R2,#0x0
        MOV     R3,#0x0
        LCALL   ??NLME_SetPollRate?relay
        ; Setup parameters for call to function NLME_SetQueuedPollRate
        ; Setup parameters for call to function NLME_SetQueuedPollRate
        MOV     R2,#0x0
        MOV     R3,#0x0
        LCALL   ??NLME_SetQueuedPollRate?relay
        ; Setup parameters for call to function NLME_SetResponseRate
        ; Setup parameters for call to function NLME_SetResponseRate
        MOV     R2,#0x0
        MOV     R3,#0x0
        LCALL   ??NLME_SetResponseRate?relay
        RET
        CFI EndBlock cfiCond32
        CFI EndBlock cfiCond33
        CFI EndBlock cfiPicker34

        RSEG BANKED_CODE:CODE:NOROOT(0)
?Subroutine10:
        CFI Block cfiCond35 Using cfiCommon0
        CFI NoFunction
        CFI Conditional ??CrossCallReturnLabel_10
        CFI R6 load(1, XDATA, add(CFA_XSP16, literal(-15)))
        CFI VB load(1, XDATA, add(CFA_XSP16, literal(-14)))
        CFI V0 load(1, XDATA, add(CFA_XSP16, literal(-13)))
        CFI V1 load(1, XDATA, add(CFA_XSP16, literal(-12)))
        CFI V2 load(1, XDATA, add(CFA_XSP16, literal(-11)))
        CFI V3 load(1, XDATA, add(CFA_XSP16, literal(-10)))
        CFI V4 load(1, XDATA, add(CFA_XSP16, literal(-9)))
        CFI V5 load(1, XDATA, add(CFA_XSP16, literal(-8)))
        CFI V6 load(1, XDATA, add(CFA_XSP16, literal(-7)))
        CFI R7 load(1, XDATA, add(CFA_XSP16, literal(-6)))
        CFI ?RET_LOW load(1, XDATA, add(CFA_XSP16, literal(-5)))
        CFI ?RET_HIGH load(1, XDATA, add(CFA_XSP16, literal(-4)))
        CFI ?BRET_EXT load(1, XDATA, add(CFA_XSP16, literal(-3)))
        CFI DPL0 load(1, XDATA, add(CFA_XSP16, literal(-2)))
        CFI DPH0 load(1, XDATA, add(CFA_XSP16, literal(-1)))
        CFI CFA_SP SP+0
        CFI CFA_XSP16 add(XSP16, 16)
        CFI Block cfiCond36 Using cfiCommon0
        CFI (cfiCond36) NoFunction
        CFI (cfiCond36) Conditional ??CrossCallReturnLabel_11
        CFI (cfiCond36) R6 load(1, XDATA, add(CFA_XSP16, literal(-10)))
        CFI (cfiCond36) VB load(1, XDATA, add(CFA_XSP16, literal(-9)))
        CFI (cfiCond36) V0 load(1, XDATA, add(CFA_XSP16, literal(-8)))
        CFI (cfiCond36) V1 load(1, XDATA, add(CFA_XSP16, literal(-7)))
        CFI (cfiCond36) R7 load(1, XDATA, add(CFA_XSP16, literal(-6)))
        CFI (cfiCond36) ?RET_LOW load(1, XDATA, add(CFA_XSP16, literal(-5)))
        CFI (cfiCond36) ?RET_HIGH load(1, XDATA, add(CFA_XSP16, literal(-4)))
        CFI (cfiCond36) ?BRET_EXT load(1, XDATA, add(CFA_XSP16, literal(-3)))
        CFI (cfiCond36) DPL0 load(1, XDATA, add(CFA_XSP16, literal(-2)))
        CFI (cfiCond36) DPH0 load(1, XDATA, add(CFA_XSP16, literal(-1)))
        CFI (cfiCond36) CFA_SP SP+0
        CFI (cfiCond36) CFA_XSP16 add(XSP16, 12)
        CFI Block cfiPicker37 Using cfiCommon1
        CFI (cfiPicker37) NoFunction
        CFI (cfiPicker37) Picker
        LCALL   ??osal_rand?relay
        MOV     ?V0 + 0,R2
        MOV     A,#0x7f
        ANL     A,?V0 + 0
        MOV     R0,A
        MOV     A,#0x64
        ADD     A,R0
        MOV     R2,A
        MOV     R3,#0x0
        LCALL   ??ZDApp_NetworkInit?relay
        RET
        CFI EndBlock cfiCond35
        CFI EndBlock cfiCond36
        CFI EndBlock cfiPicker37

        RSEG BANKED_CODE:CODE:NOROOT(0)
?Subroutine8:
        CFI Block cfiCond38 Using cfiCommon0
        CFI NoFunction
        CFI Conditional ??CrossCallReturnLabel_4
        CFI R6 load(1, XDATA, add(CFA_XSP16, literal(-10)))
        CFI VB load(1, XDATA, add(CFA_XSP16, literal(-9)))
        CFI V0 load(1, XDATA, add(CFA_XSP16, literal(-8)))
        CFI V1 load(1, XDATA, add(CFA_XSP16, literal(-7)))
        CFI R7 load(1, XDATA, add(CFA_XSP16, literal(-6)))
        CFI ?RET_LOW load(1, XDATA, add(CFA_XSP16, literal(-5)))
        CFI ?RET_HIGH load(1, XDATA, add(CFA_XSP16, literal(-4)))
        CFI ?BRET_EXT load(1, XDATA, add(CFA_XSP16, literal(-3)))
        CFI DPL0 load(1, XDATA, add(CFA_XSP16, literal(-2)))
        CFI DPH0 load(1, XDATA, add(CFA_XSP16, literal(-1)))
        CFI CFA_SP SP+0
        CFI CFA_XSP16 add(XSP16, 12)
        CFI Block cfiCond39 Using cfiCommon0
        CFI (cfiCond39) NoFunction
        CFI (cfiCond39) Conditional ??CrossCallReturnLabel_5
        CFI (cfiCond39) R6 load(1, XDATA, add(CFA_XSP16, literal(-10)))
        CFI (cfiCond39) VB load(1, XDATA, add(CFA_XSP16, literal(-9)))
        CFI (cfiCond39) V0 load(1, XDATA, add(CFA_XSP16, literal(-8)))
        CFI (cfiCond39) V1 load(1, XDATA, add(CFA_XSP16, literal(-7)))
        CFI (cfiCond39) R7 load(1, XDATA, add(CFA_XSP16, literal(-6)))
        CFI (cfiCond39) ?RET_LOW load(1, XDATA, add(CFA_XSP16, literal(-5)))
        CFI (cfiCond39) ?RET_HIGH load(1, XDATA, add(CFA_XSP16, literal(-4)))
        CFI (cfiCond39) ?BRET_EXT load(1, XDATA, add(CFA_XSP16, literal(-3)))
        CFI (cfiCond39) DPL0 load(1, XDATA, add(CFA_XSP16, literal(-2)))
        CFI (cfiCond39) DPH0 load(1, XDATA, add(CFA_XSP16, literal(-1)))
        CFI (cfiCond39) CFA_SP SP+0
        CFI (cfiCond39) CFA_XSP16 add(XSP16, 12)
        CFI Block cfiPicker40 Using cfiCommon1
        CFI (cfiPicker40) NoFunction
        CFI (cfiPicker40) Picker
        MOV     DPTR,#(_NIB + 33)
        MOVX    A,@DPTR
        MOV     R0,A
        INC     DPTR
        MOVX    A,@DPTR
        MOV     R1,A
        MOV     A,#-0x1
        XRL     A,R0
        RET
        CFI EndBlock cfiCond38
        CFI EndBlock cfiCond39
        CFI EndBlock cfiPicker40

        RSEG BANKED_CODE:CODE:NOROOT(0)
?Subroutine0:
        CFI Block cfiCond41 Using cfiCommon0
        CFI NoFunction
        CFI Conditional ??CrossCallReturnLabel_26
        CFI DPL0 Frame(CFA_SP, 4)
        CFI DPH0 Frame(CFA_SP, 5)
        CFI CFA_SP SP+-5
        CFI Block cfiCond42 Using cfiCommon0
        CFI (cfiCond42) NoFunction
        CFI (cfiCond42) Conditional ??CrossCallReturnLabel_27
        CFI (cfiCond42) R6 load(1, XDATA, add(CFA_XSP16, literal(-10)))
        CFI (cfiCond42) VB load(1, XDATA, add(CFA_XSP16, literal(-9)))
        CFI (cfiCond42) V0 load(1, XDATA, add(CFA_XSP16, literal(-8)))
        CFI (cfiCond42) V1 load(1, XDATA, add(CFA_XSP16, literal(-7)))
        CFI (cfiCond42) R7 load(1, XDATA, add(CFA_XSP16, literal(-6)))
        CFI (cfiCond42) ?RET_LOW load(1, XDATA, add(CFA_XSP16, literal(-5)))
        CFI (cfiCond42) ?RET_HIGH load(1, XDATA, add(CFA_XSP16, literal(-4)))
        CFI (cfiCond42) ?BRET_EXT load(1, XDATA, add(CFA_XSP16, literal(-3)))
        CFI (cfiCond42) DPL0 load(1, XDATA, add(CFA_XSP16, literal(-2)))
        CFI (cfiCond42) DPH0 load(1, XDATA, add(CFA_XSP16, literal(-1)))
        CFI (cfiCond42) CFA_SP SP+0
        CFI (cfiCond42) CFA_XSP16 add(XSP16, 12)
        CFI Block cfiPicker43 Using cfiCommon1
        CFI (cfiPicker43) NoFunction
        CFI (cfiPicker43) Picker
        MOV     A,#0x6
        MOV     DPTR,#devState
        MOVX    @DPTR,A
        ; Setup parameters for call to function osal_set_event
        ; Setup parameters for call to function osal_set_event
        MOV     R2,#0x10
        CFI EndBlock cfiCond41
        CFI EndBlock cfiCond42
        CFI EndBlock cfiPicker43
        REQUIRE ?Subroutine21
        ; // Fall through to label ?Subroutine21

        RSEG BANKED_CODE:CODE:NOROOT(0)
?Subroutine21:
        CFI Block cfiCond44 Using cfiCommon0
        CFI NoFunction
        CFI Conditional ??CrossCallReturnLabel_26
        CFI DPL0 Frame(CFA_SP, 4)
        CFI DPH0 Frame(CFA_SP, 5)
        CFI CFA_SP SP+-5
        CFI Block cfiCond45 Using cfiCommon0
        CFI (cfiCond45) NoFunction
        CFI (cfiCond45) Conditional ??CrossCallReturnLabel_27
        CFI (cfiCond45) R6 load(1, XDATA, add(CFA_XSP16, literal(-10)))
        CFI (cfiCond45) VB load(1, XDATA, add(CFA_XSP16, literal(-9)))
        CFI (cfiCond45) V0 load(1, XDATA, add(CFA_XSP16, literal(-8)))
        CFI (cfiCond45) V1 load(1, XDATA, add(CFA_XSP16, literal(-7)))
        CFI (cfiCond45) R7 load(1, XDATA, add(CFA_XSP16, literal(-6)))
        CFI (cfiCond45) ?RET_LOW load(1, XDATA, add(CFA_XSP16, literal(-5)))
        CFI (cfiCond45) ?RET_HIGH load(1, XDATA, add(CFA_XSP16, literal(-4)))
        CFI (cfiCond45) ?BRET_EXT load(1, XDATA, add(CFA_XSP16, literal(-3)))
        CFI (cfiCond45) DPL0 load(1, XDATA, add(CFA_XSP16, literal(-2)))
        CFI (cfiCond45) DPH0 load(1, XDATA, add(CFA_XSP16, literal(-1)))
        CFI (cfiCond45) CFA_SP SP+0
        CFI (cfiCond45) CFA_XSP16 add(XSP16, 12)
        CFI Block cfiCond46 Using cfiCommon0
        CFI (cfiCond46) NoFunction
        CFI (cfiCond46) Conditional ??CrossCallReturnLabel_21
        CFI (cfiCond46) R6 load(1, XDATA, add(CFA_XSP16, literal(-10)))
        CFI (cfiCond46) VB load(1, XDATA, add(CFA_XSP16, literal(-9)))
        CFI (cfiCond46) V0 load(1, XDATA, add(CFA_XSP16, literal(-8)))
        CFI (cfiCond46) V1 load(1, XDATA, add(CFA_XSP16, literal(-7)))
        CFI (cfiCond46) R7 load(1, XDATA, add(CFA_XSP16, literal(-6)))
        CFI (cfiCond46) ?RET_LOW load(1, XDATA, add(CFA_XSP16, literal(-5)))
        CFI (cfiCond46) ?RET_HIGH load(1, XDATA, add(CFA_XSP16, literal(-4)))
        CFI (cfiCond46) ?BRET_EXT load(1, XDATA, add(CFA_XSP16, literal(-3)))
        CFI (cfiCond46) DPL0 load(1, XDATA, add(CFA_XSP16, literal(-2)))
        CFI (cfiCond46) DPH0 load(1, XDATA, add(CFA_XSP16, literal(-1)))
        CFI (cfiCond46) CFA_SP SP+0
        CFI (cfiCond46) CFA_XSP16 add(XSP16, 12)
        CFI Block cfiCond47 Using cfiCommon0
        CFI (cfiCond47) NoFunction
        CFI (cfiCond47) Conditional ??CrossCallReturnLabel_22
        CFI (cfiCond47) R6 load(1, XDATA, add(CFA_XSP16, literal(-10)))
        CFI (cfiCond47) VB load(1, XDATA, add(CFA_XSP16, literal(-9)))
        CFI (cfiCond47) V0 load(1, XDATA, add(CFA_XSP16, literal(-8)))
        CFI (cfiCond47) V1 load(1, XDATA, add(CFA_XSP16, literal(-7)))
        CFI (cfiCond47) R7 load(1, XDATA, add(CFA_XSP16, literal(-6)))
        CFI (cfiCond47) ?RET_LOW load(1, XDATA, add(CFA_XSP16, literal(-5)))
        CFI (cfiCond47) ?RET_HIGH load(1, XDATA, add(CFA_XSP16, literal(-4)))
        CFI (cfiCond47) ?BRET_EXT load(1, XDATA, add(CFA_XSP16, literal(-3)))
        CFI (cfiCond47) DPL0 load(1, XDATA, add(CFA_XSP16, literal(-2)))
        CFI (cfiCond47) DPH0 load(1, XDATA, add(CFA_XSP16, literal(-1)))
        CFI (cfiCond47) CFA_SP SP+0
        CFI (cfiCond47) CFA_XSP16 add(XSP16, 12)
        CFI Block cfiCond48 Using cfiCommon0
        CFI (cfiCond48) NoFunction
        CFI (cfiCond48) Conditional ??CrossCallReturnLabel_23
        CFI (cfiCond48) DPL0 Frame(CFA_SP, 4)
        CFI (cfiCond48) DPH0 Frame(CFA_SP, 5)
        CFI (cfiCond48) CFA_SP SP+-5
        CFI Block cfiCond49 Using cfiCommon0
        CFI (cfiCond49) NoFunction
        CFI (cfiCond49) Conditional ??CrossCallReturnLabel_24
        CFI (cfiCond49) DPL0 Frame(CFA_SP, 4)
        CFI (cfiCond49) DPH0 Frame(CFA_SP, 5)
        CFI (cfiCond49) CFA_SP SP+-5
        CFI Block cfiCond50 Using cfiCommon0
        CFI (cfiCond50) NoFunction
        CFI (cfiCond50) Conditional ??CrossCallReturnLabel_24
        CFI (cfiCond50) DPL0 Frame(CFA_SP, 4)
        CFI (cfiCond50) DPH0 Frame(CFA_SP, 5)
        CFI (cfiCond50) CFA_SP SP+-5
        CFI Block cfiCond51 Using cfiCommon0
        CFI (cfiCond51) NoFunction
        CFI (cfiCond51) Conditional ??CrossCallReturnLabel_24
        CFI (cfiCond51) DPL0 Frame(CFA_SP, 4)
        CFI (cfiCond51) DPH0 Frame(CFA_SP, 5)
        CFI (cfiCond51) CFA_SP SP+-5
        CFI Block cfiCond52 Using cfiCommon0
        CFI (cfiCond52) NoFunction
        CFI (cfiCond52) Conditional ??CrossCallReturnLabel_25
        CFI (cfiCond52) DPL0 Frame(CFA_SP, 4)
        CFI (cfiCond52) DPH0 Frame(CFA_SP, 5)
        CFI (cfiCond52) CFA_SP SP+-5
        CFI Block cfiPicker53 Using cfiCommon1
        CFI (cfiPicker53) NoFunction
        CFI (cfiPicker53) Picker
        MOV     R3,#0x0
        MOV     DPTR,#ZDAppTaskID
        MOVX    A,@DPTR
        MOV     R1,A
        LCALL   ??osal_set_event?relay
        RET
        CFI EndBlock cfiCond44
        CFI EndBlock cfiCond45
        CFI EndBlock cfiCond46
        CFI EndBlock cfiCond47
        CFI EndBlock cfiCond48
        CFI EndBlock cfiCond49
        CFI EndBlock cfiCond50
        CFI EndBlock cfiCond51
        CFI EndBlock cfiCond52
        CFI EndBlock cfiPicker53
// 1498 
// 1499 /*********************************************************************
// 1500  * @fn      ZDApp_SaveNwkKey()
// 1501  *
// 1502  * @brief   Save off the Network key information.
// 1503  *
// 1504  * @param   none
// 1505  *
// 1506  * @return  none
// 1507  */

        RSEG BANKED_CODE:CODE:NOROOT(0)
// 1508 void ZDApp_SaveNwkKey( void )
ZDApp_SaveNwkKey:
        CFI Block cfiBlock54 Using cfiCommon0
        CFI Function ZDApp_SaveNwkKey
// 1509 {
        FUNCALL ZDApp_SaveNwkKey, SSP_ReadNwkActiveKey
        LOCFRAME ISTACK, 0, STACK
        LOCFRAME PSTACK, 0, STACK
        LOCFRAME XSTACK, 33, STACK
        LOCFRAME IOVERLAY, 0, STATIC
        LOCFRAME DOVERLAY, 0, STATIC
        ARGFRAME ISTACK, 0, STACK
        ARGFRAME PSTACK, 0, STACK
        ARGFRAME XSTACK, 33, STACK
        ARGFRAME IOVERLAY, 0, STATIC
        ARGFRAME DOVERLAY, 0, STATIC
        FUNCALL ZDApp_SaveNwkKey, osal_nv_write
        LOCFRAME ISTACK, 0, STACK
        LOCFRAME PSTACK, 0, STACK
        LOCFRAME XSTACK, 37, STACK
        LOCFRAME IOVERLAY, 0, STATIC
        LOCFRAME DOVERLAY, 0, STATIC
        ARGFRAME ISTACK, 0, STACK
        ARGFRAME PSTACK, 0, STACK
        ARGFRAME XSTACK, 37, STACK
        ARGFRAME IOVERLAY, 0, STATIC
        ARGFRAME DOVERLAY, 0, STATIC
        FUNCALL ZDApp_SaveNwkKey, osal_memset
        LOCFRAME ISTACK, 0, STACK
        LOCFRAME PSTACK, 0, STACK
        LOCFRAME XSTACK, 33, STACK
        LOCFRAME IOVERLAY, 0, STATIC
        LOCFRAME DOVERLAY, 0, STATIC
        ARGFRAME ISTACK, 0, STACK
        ARGFRAME PSTACK, 0, STACK
        ARGFRAME XSTACK, 33, STACK
        ARGFRAME IOVERLAY, 0, STATIC
        ARGFRAME DOVERLAY, 0, STATIC
        MOV     A,#-0xc
        LCALL   ?BANKED_ENTER_XDATA
        CFI DPH0 load(1, XDATA, add(CFA_XSP16, literal(-1)))
        CFI DPL0 load(1, XDATA, add(CFA_XSP16, literal(-2)))
        CFI ?BRET_EXT load(1, XDATA, add(CFA_XSP16, literal(-3)))
        CFI ?RET_HIGH load(1, XDATA, add(CFA_XSP16, literal(-4)))
        CFI ?RET_LOW load(1, XDATA, add(CFA_XSP16, literal(-5)))
        CFI R7 load(1, XDATA, add(CFA_XSP16, literal(-6)))
        CFI V3 load(1, XDATA, add(CFA_XSP16, literal(-7)))
        CFI V2 load(1, XDATA, add(CFA_XSP16, literal(-8)))
        CFI V1 load(1, XDATA, add(CFA_XSP16, literal(-9)))
        CFI V0 load(1, XDATA, add(CFA_XSP16, literal(-10)))
        CFI VB load(1, XDATA, add(CFA_XSP16, literal(-11)))
        CFI R6 load(1, XDATA, add(CFA_XSP16, literal(-12)))
        CFI CFA_SP SP+0
        CFI CFA_XSP16 add(XSP16, 12)
        ; Saved register size: 12
        ; Auto size: 21
        MOV     A,#-0x15
        LCALL   ?ALLOC_XSTACK8
        CFI CFA_XSP16 add(XSP16, 33)
// 1510   nwkActiveKeyItems keyItems;
// 1511 
// 1512   SSP_ReadNwkActiveKey( &keyItems );
        ; Setup parameters for call to function SSP_ReadNwkActiveKey
        MOV     DPL,?XSP + 0
        MOV     DPH,?XSP + 1
        MOV     R2,DPL
        MOV     R3,DPH
        LCALL   ??SSP_ReadNwkActiveKey?relay
// 1513   keyItems.frameCounter++;
        MOV     DPTR,#__Constant_1
        MOV     R0,#?V0 + 0
        LCALL   ?L_MOV_X
        MOV     A,#0x11
        LCALL   ?XSTACK_DISP0_8
        MOV     R0,#?V0 + 0
        LCALL   ?L_ADD_TO_X
// 1514 
// 1515   osal_nv_write( ZCD_NV_NWKKEY, 0, sizeof( nwkActiveKeyItems ),
// 1516                 (void *)&keyItems );
        ; Setup parameters for call to function osal_nv_write
        MOV     DPL,?XSP + 0
        MOV     DPH,?XSP + 1
        MOV     ?V0 + 0,DPL
        MOV     ?V0 + 1,DPH
        MOV     R0,#?V0 + 0
        LCALL   ?PUSH_XSTACK_I_TWO
        CFI CFA_XSP16 add(XSP16, 35)
        MOV     ?V0 + 0,#0x15
        MOV     ?V0 + 1,#0x0
        MOV     R0,#?V0 + 0
        LCALL   ?PUSH_XSTACK_I_TWO
        CFI CFA_XSP16 add(XSP16, 37)
        LCALL   ?Subroutine16 & 0xFFFF
??CrossCallReturnLabel_35:
        LCALL   ?DEALLOC_XSTACK8
        CFI CFA_XSP16 add(XSP16, 33)
// 1517 
// 1518   nwkFrameCounterChanges = 0;
        MOV     DPTR,#nwkFrameCounterChanges
        CLR     A
        MOVX    @DPTR,A
        INC     DPTR
        MOVX    @DPTR,A
// 1519 
// 1520   // Clear copy in RAM before return.
// 1521   osal_memset( &keyItems, 0x00, sizeof(keyItems) );
        ; Setup parameters for call to function osal_memset
        MOV     R4,#0x15
        MOV     R5,A
        MOV     R1,A
        MOV     DPL,?XSP + 0
        MOV     DPH,?XSP + 1
        MOV     R2,DPL
        MOV     R3,DPH
        LCALL   ??osal_memset?relay
        CFI EndBlock cfiBlock54
// 1522 
// 1523 }
        REQUIRE ?Subroutine22
        ; // Fall through to label ?Subroutine22

        RSEG BANKED_CODE:CODE:NOROOT(0)
?Subroutine22:
        CFI Block cfiBlock55 Using cfiCommon0
        CFI NoFunction
        CFI CFA_SP SP+0
        CFI CFA_XSP16 add(XSP16, 33)
        CFI VB load(1, XDATA, add(CFA_XSP16, literal(-11)))
        CFI DPL0 load(1, XDATA, add(CFA_XSP16, literal(-2)))
        CFI DPH0 load(1, XDATA, add(CFA_XSP16, literal(-1)))
        CFI R6 load(1, XDATA, add(CFA_XSP16, literal(-12)))
        CFI R7 load(1, XDATA, add(CFA_XSP16, literal(-6)))
        CFI V0 load(1, XDATA, add(CFA_XSP16, literal(-10)))
        CFI V1 load(1, XDATA, add(CFA_XSP16, literal(-9)))
        CFI V2 load(1, XDATA, add(CFA_XSP16, literal(-8)))
        CFI V3 load(1, XDATA, add(CFA_XSP16, literal(-7)))
        CFI ?BRET_EXT load(1, XDATA, add(CFA_XSP16, literal(-3)))
        CFI ?RET_HIGH load(1, XDATA, add(CFA_XSP16, literal(-4)))
        CFI ?RET_LOW load(1, XDATA, add(CFA_XSP16, literal(-5)))
        MOV     A,#0x15
        LCALL   ?DEALLOC_XSTACK8
        CFI CFA_XSP16 add(XSP16, 12)
        MOV     R7,#0x4
        LJMP    ?BANKED_LEAVE_XDATA
        CFI EndBlock cfiBlock55

        RSEG BANKED_CODE:CODE:NOROOT(0)
?Subroutine16:
        CFI Block cfiCond56 Using cfiCommon0
        CFI NoFunction
        CFI Conditional ??CrossCallReturnLabel_35
        CFI R6 load(1, XDATA, add(CFA_XSP16, literal(-12)))
        CFI VB load(1, XDATA, add(CFA_XSP16, literal(-11)))
        CFI V0 load(1, XDATA, add(CFA_XSP16, literal(-10)))
        CFI V1 load(1, XDATA, add(CFA_XSP16, literal(-9)))
        CFI V2 load(1, XDATA, add(CFA_XSP16, literal(-8)))
        CFI V3 load(1, XDATA, add(CFA_XSP16, literal(-7)))
        CFI R7 load(1, XDATA, add(CFA_XSP16, literal(-6)))
        CFI ?RET_LOW load(1, XDATA, add(CFA_XSP16, literal(-5)))
        CFI ?RET_HIGH load(1, XDATA, add(CFA_XSP16, literal(-4)))
        CFI ?BRET_EXT load(1, XDATA, add(CFA_XSP16, literal(-3)))
        CFI DPL0 load(1, XDATA, add(CFA_XSP16, literal(-2)))
        CFI DPH0 load(1, XDATA, add(CFA_XSP16, literal(-1)))
        CFI CFA_SP SP+0
        CFI CFA_XSP16 add(XSP16, 37)
        CFI Block cfiCond57 Using cfiCommon0
        CFI (cfiCond57) NoFunction
        CFI (cfiCond57) Conditional ??CrossCallReturnLabel_36
        CFI (cfiCond57) R6 load(1, XDATA, add(CFA_XSP16, literal(-10)))
        CFI (cfiCond57) VB load(1, XDATA, add(CFA_XSP16, literal(-9)))
        CFI (cfiCond57) V0 load(1, XDATA, add(CFA_XSP16, literal(-8)))
        CFI (cfiCond57) V1 load(1, XDATA, add(CFA_XSP16, literal(-7)))
        CFI (cfiCond57) R7 load(1, XDATA, add(CFA_XSP16, literal(-6)))
        CFI (cfiCond57) ?RET_LOW load(1, XDATA, add(CFA_XSP16, literal(-5)))
        CFI (cfiCond57) ?RET_HIGH load(1, XDATA, add(CFA_XSP16, literal(-4)))
        CFI (cfiCond57) ?BRET_EXT load(1, XDATA, add(CFA_XSP16, literal(-3)))
        CFI (cfiCond57) DPL0 load(1, XDATA, add(CFA_XSP16, literal(-2)))
        CFI (cfiCond57) DPH0 load(1, XDATA, add(CFA_XSP16, literal(-1)))
        CFI (cfiCond57) CFA_SP SP+0
        CFI (cfiCond57) CFA_XSP16 add(XSP16, 35)
        CFI Block cfiPicker58 Using cfiCommon1
        CFI (cfiPicker58) NoFunction
        CFI (cfiPicker58) Picker
        MOV     R4,#0x0
        MOV     R5,#0x0
        MOV     R2,#-0x7e
        CFI EndBlock cfiCond56
        CFI EndBlock cfiCond57
        CFI EndBlock cfiPicker58
        REQUIRE ??Subroutine27_0
        ; // Fall through to label ??Subroutine27_0

        RSEG BANKED_CODE:CODE:NOROOT(0)
??Subroutine27_0:
        CFI Block cfiCond59 Using cfiCommon0
        CFI NoFunction
        CFI Conditional ??CrossCallReturnLabel_37
        CFI R6 load(1, XDATA, add(CFA_XSP16, literal(-10)))
        CFI VB load(1, XDATA, add(CFA_XSP16, literal(-9)))
        CFI V0 load(1, XDATA, add(CFA_XSP16, literal(-8)))
        CFI V1 load(1, XDATA, add(CFA_XSP16, literal(-7)))
        CFI R7 load(1, XDATA, add(CFA_XSP16, literal(-6)))
        CFI ?RET_LOW load(1, XDATA, add(CFA_XSP16, literal(-5)))
        CFI ?RET_HIGH load(1, XDATA, add(CFA_XSP16, literal(-4)))
        CFI ?BRET_EXT load(1, XDATA, add(CFA_XSP16, literal(-3)))
        CFI DPL0 load(1, XDATA, add(CFA_XSP16, literal(-2)))
        CFI DPH0 load(1, XDATA, add(CFA_XSP16, literal(-1)))
        CFI CFA_SP SP+0
        CFI CFA_XSP16 add(XSP16, 14)
        CFI Block cfiCond60 Using cfiCommon0
        CFI (cfiCond60) NoFunction
        CFI (cfiCond60) Conditional ??CrossCallReturnLabel_38
        CFI (cfiCond60) R6 load(1, XDATA, add(CFA_XSP16, literal(-10)))
        CFI (cfiCond60) VB load(1, XDATA, add(CFA_XSP16, literal(-9)))
        CFI (cfiCond60) V0 load(1, XDATA, add(CFA_XSP16, literal(-8)))
        CFI (cfiCond60) V1 load(1, XDATA, add(CFA_XSP16, literal(-7)))
        CFI (cfiCond60) R7 load(1, XDATA, add(CFA_XSP16, literal(-6)))
        CFI (cfiCond60) ?RET_LOW load(1, XDATA, add(CFA_XSP16, literal(-5)))
        CFI (cfiCond60) ?RET_HIGH load(1, XDATA, add(CFA_XSP16, literal(-4)))
        CFI (cfiCond60) ?BRET_EXT load(1, XDATA, add(CFA_XSP16, literal(-3)))
        CFI (cfiCond60) DPL0 load(1, XDATA, add(CFA_XSP16, literal(-2)))
        CFI (cfiCond60) DPH0 load(1, XDATA, add(CFA_XSP16, literal(-1)))
        CFI (cfiCond60) CFA_SP SP+0
        CFI (cfiCond60) CFA_XSP16 add(XSP16, 14)
        CFI Block cfiCond61 Using cfiCommon0
        CFI (cfiCond61) NoFunction
        CFI (cfiCond61) Conditional ??CrossCallReturnLabel_35
        CFI (cfiCond61) R6 load(1, XDATA, add(CFA_XSP16, literal(-12)))
        CFI (cfiCond61) VB load(1, XDATA, add(CFA_XSP16, literal(-11)))
        CFI (cfiCond61) V0 load(1, XDATA, add(CFA_XSP16, literal(-10)))
        CFI (cfiCond61) V1 load(1, XDATA, add(CFA_XSP16, literal(-9)))
        CFI (cfiCond61) V2 load(1, XDATA, add(CFA_XSP16, literal(-8)))
        CFI (cfiCond61) V3 load(1, XDATA, add(CFA_XSP16, literal(-7)))
        CFI (cfiCond61) R7 load(1, XDATA, add(CFA_XSP16, literal(-6)))
        CFI (cfiCond61) ?RET_LOW load(1, XDATA, add(CFA_XSP16, literal(-5)))
        CFI (cfiCond61) ?RET_HIGH load(1, XDATA, add(CFA_XSP16, literal(-4)))
        CFI (cfiCond61) ?BRET_EXT load(1, XDATA, add(CFA_XSP16, literal(-3)))
        CFI (cfiCond61) DPL0 load(1, XDATA, add(CFA_XSP16, literal(-2)))
        CFI (cfiCond61) DPH0 load(1, XDATA, add(CFA_XSP16, literal(-1)))
        CFI (cfiCond61) CFA_SP SP+0
        CFI (cfiCond61) CFA_XSP16 add(XSP16, 37)
        CFI Block cfiCond62 Using cfiCommon0
        CFI (cfiCond62) NoFunction
        CFI (cfiCond62) Conditional ??CrossCallReturnLabel_36
        CFI (cfiCond62) R6 load(1, XDATA, add(CFA_XSP16, literal(-10)))
        CFI (cfiCond62) VB load(1, XDATA, add(CFA_XSP16, literal(-9)))
        CFI (cfiCond62) V0 load(1, XDATA, add(CFA_XSP16, literal(-8)))
        CFI (cfiCond62) V1 load(1, XDATA, add(CFA_XSP16, literal(-7)))
        CFI (cfiCond62) R7 load(1, XDATA, add(CFA_XSP16, literal(-6)))
        CFI (cfiCond62) ?RET_LOW load(1, XDATA, add(CFA_XSP16, literal(-5)))
        CFI (cfiCond62) ?RET_HIGH load(1, XDATA, add(CFA_XSP16, literal(-4)))
        CFI (cfiCond62) ?BRET_EXT load(1, XDATA, add(CFA_XSP16, literal(-3)))
        CFI (cfiCond62) DPL0 load(1, XDATA, add(CFA_XSP16, literal(-2)))
        CFI (cfiCond62) DPH0 load(1, XDATA, add(CFA_XSP16, literal(-1)))
        CFI (cfiCond62) CFA_SP SP+0
        CFI (cfiCond62) CFA_XSP16 add(XSP16, 35)
        CFI Block cfiPicker63 Using cfiCommon1
        CFI (cfiPicker63) NoFunction
        CFI (cfiPicker63) Picker
        MOV     R3,#0x0
        LCALL   ??osal_nv_write?relay
        MOV     A,#0x4
        RET
        CFI EndBlock cfiCond59
        CFI EndBlock cfiCond60
        CFI EndBlock cfiCond61
        CFI EndBlock cfiCond62
        CFI EndBlock cfiPicker63
// 1524 
// 1525 /*********************************************************************
// 1526  * @fn      ZDApp_ResetNwkKey()
// 1527  *
// 1528  * @brief   Reset the Network key information in NV.
// 1529  *
// 1530  * @param   none
// 1531  *
// 1532  * @return  none
// 1533  */

        RSEG BANKED_CODE:CODE:NOROOT(0)
// 1534 void ZDApp_ResetNwkKey( void )
ZDApp_ResetNwkKey:
        CFI Block cfiBlock64 Using cfiCommon0
        CFI Function ZDApp_ResetNwkKey
// 1535 {
        FUNCALL ZDApp_ResetNwkKey, osal_memset
        LOCFRAME ISTACK, 0, STACK
        LOCFRAME PSTACK, 0, STACK
        LOCFRAME XSTACK, 31, STACK
        LOCFRAME IOVERLAY, 0, STATIC
        LOCFRAME DOVERLAY, 0, STATIC
        ARGFRAME ISTACK, 0, STACK
        ARGFRAME PSTACK, 0, STACK
        ARGFRAME XSTACK, 31, STACK
        ARGFRAME IOVERLAY, 0, STATIC
        ARGFRAME DOVERLAY, 0, STATIC
        FUNCALL ZDApp_ResetNwkKey, osal_nv_write
        LOCFRAME ISTACK, 0, STACK
        LOCFRAME PSTACK, 0, STACK
        LOCFRAME XSTACK, 35, STACK
        LOCFRAME IOVERLAY, 0, STATIC
        LOCFRAME DOVERLAY, 0, STATIC
        ARGFRAME ISTACK, 0, STACK
        ARGFRAME PSTACK, 0, STACK
        ARGFRAME XSTACK, 35, STACK
        ARGFRAME IOVERLAY, 0, STATIC
        ARGFRAME DOVERLAY, 0, STATIC
        MOV     A,#-0xa
        LCALL   ?BANKED_ENTER_XDATA
        CFI DPH0 load(1, XDATA, add(CFA_XSP16, literal(-1)))
        CFI DPL0 load(1, XDATA, add(CFA_XSP16, literal(-2)))
        CFI ?BRET_EXT load(1, XDATA, add(CFA_XSP16, literal(-3)))
        CFI ?RET_HIGH load(1, XDATA, add(CFA_XSP16, literal(-4)))
        CFI ?RET_LOW load(1, XDATA, add(CFA_XSP16, literal(-5)))
        CFI R7 load(1, XDATA, add(CFA_XSP16, literal(-6)))
        CFI V1 load(1, XDATA, add(CFA_XSP16, literal(-7)))
        CFI V0 load(1, XDATA, add(CFA_XSP16, literal(-8)))
        CFI VB load(1, XDATA, add(CFA_XSP16, literal(-9)))
        CFI R6 load(1, XDATA, add(CFA_XSP16, literal(-10)))
        CFI CFA_SP SP+0
        CFI CFA_XSP16 add(XSP16, 10)
        ; Saved register size: 10
        ; Auto size: 21
        MOV     A,#-0x15
        LCALL   ?ALLOC_XSTACK8
        CFI CFA_XSP16 add(XSP16, 31)
// 1536   nwkActiveKeyItems keyItems;
// 1537 
// 1538   osal_memset( &keyItems, 0, sizeof( nwkActiveKeyItems ) );
        ; Setup parameters for call to function osal_memset
        MOV     R4,#0x15
        LCALL   ?Subroutine14 & 0xFFFF
// 1539   osal_nv_write( ZCD_NV_NWKKEY, 0, sizeof( nwkActiveKeyItems ),
// 1540                 (void *)&keyItems );
??CrossCallReturnLabel_17:
        LCALL   ?PUSH_XSTACK_I_TWO
        CFI CFA_XSP16 add(XSP16, 33)
        MOV     ?V0 + 0,#0x15
        MOV     ?V0 + 1,#0x0
        MOV     R0,#?V0 + 0
        LCALL   ?PUSH_XSTACK_I_TWO
        CFI CFA_XSP16 add(XSP16, 35)
        LCALL   ?Subroutine16 & 0xFFFF
??CrossCallReturnLabel_36:
        LCALL   ?DEALLOC_XSTACK8
        CFI CFA_XSP16 add(XSP16, 31)
// 1541 }
        LJMP    ?Subroutine25 & 0xFFFF
        CFI EndBlock cfiBlock64

        RSEG BANKED_CODE:CODE:NOROOT(0)
?Subroutine14:
        CFI Block cfiCond65 Using cfiCommon0
        CFI NoFunction
        CFI Conditional ??CrossCallReturnLabel_16
        CFI R6 load(1, XDATA, add(CFA_XSP16, literal(-10)))
        CFI VB load(1, XDATA, add(CFA_XSP16, literal(-9)))
        CFI V0 load(1, XDATA, add(CFA_XSP16, literal(-8)))
        CFI V1 load(1, XDATA, add(CFA_XSP16, literal(-7)))
        CFI R7 load(1, XDATA, add(CFA_XSP16, literal(-6)))
        CFI ?RET_LOW load(1, XDATA, add(CFA_XSP16, literal(-5)))
        CFI ?RET_HIGH load(1, XDATA, add(CFA_XSP16, literal(-4)))
        CFI ?BRET_EXT load(1, XDATA, add(CFA_XSP16, literal(-3)))
        CFI DPL0 load(1, XDATA, add(CFA_XSP16, literal(-2)))
        CFI DPH0 load(1, XDATA, add(CFA_XSP16, literal(-1)))
        CFI CFA_SP SP+0
        CFI CFA_XSP16 add(XSP16, 27)
        CFI Block cfiCond66 Using cfiCommon0
        CFI (cfiCond66) NoFunction
        CFI (cfiCond66) Conditional ??CrossCallReturnLabel_17
        CFI (cfiCond66) R6 load(1, XDATA, add(CFA_XSP16, literal(-10)))
        CFI (cfiCond66) VB load(1, XDATA, add(CFA_XSP16, literal(-9)))
        CFI (cfiCond66) V0 load(1, XDATA, add(CFA_XSP16, literal(-8)))
        CFI (cfiCond66) V1 load(1, XDATA, add(CFA_XSP16, literal(-7)))
        CFI (cfiCond66) R7 load(1, XDATA, add(CFA_XSP16, literal(-6)))
        CFI (cfiCond66) ?RET_LOW load(1, XDATA, add(CFA_XSP16, literal(-5)))
        CFI (cfiCond66) ?RET_HIGH load(1, XDATA, add(CFA_XSP16, literal(-4)))
        CFI (cfiCond66) ?BRET_EXT load(1, XDATA, add(CFA_XSP16, literal(-3)))
        CFI (cfiCond66) DPL0 load(1, XDATA, add(CFA_XSP16, literal(-2)))
        CFI (cfiCond66) DPH0 load(1, XDATA, add(CFA_XSP16, literal(-1)))
        CFI (cfiCond66) CFA_SP SP+0
        CFI (cfiCond66) CFA_XSP16 add(XSP16, 31)
        CFI Block cfiPicker67 Using cfiCommon1
        CFI (cfiPicker67) NoFunction
        CFI (cfiPicker67) Picker
        MOV     R5,#0x0
        MOV     R1,#0x0
        MOV     DPL,?XSP + 0
        MOV     DPH,?XSP + 1
        MOV     R2,DPL
        MOV     R3,DPH
        LCALL   ??osal_memset?relay
        ; Setup parameters for call to function osal_nv_item_init
        ; Setup parameters for call to function osal_nv_write
        MOV     DPL,?XSP + 0
        MOV     DPH,?XSP + 1
        MOV     ?V0 + 0,DPL
        MOV     ?V0 + 1,DPH
        MOV     R0,#?V0 + 0
        RET
        CFI EndBlock cfiCond65
        CFI EndBlock cfiCond66
        CFI EndBlock cfiPicker67
// 1542 
// 1543 /*********************************************************************
// 1544  * @fn      ZDApp_RestoreNwkKey()
// 1545  *
// 1546  * @brief
// 1547  *
// 1548  *   Save off the Network key information.
// 1549  *
// 1550  * @param   none
// 1551  *
// 1552  * @return  true if restored from NV, false if not
// 1553  */

        RSEG BANKED_CODE:CODE:NOROOT(0)
// 1554 uint8 ZDApp_RestoreNwkKey( void )
ZDApp_RestoreNwkKey:
        CFI Block cfiBlock68 Using cfiCommon0
        CFI Function ZDApp_RestoreNwkKey
// 1555 {
        FUNCALL ZDApp_RestoreNwkKey, osal_nv_read
        LOCFRAME ISTACK, 0, STACK
        LOCFRAME PSTACK, 0, STACK
        LOCFRAME XSTACK, 37, STACK
        LOCFRAME IOVERLAY, 0, STATIC
        LOCFRAME DOVERLAY, 0, STATIC
        ARGFRAME ISTACK, 0, STACK
        ARGFRAME PSTACK, 0, STACK
        ARGFRAME XSTACK, 37, STACK
        ARGFRAME IOVERLAY, 0, STATIC
        ARGFRAME DOVERLAY, 0, STATIC
        FUNCALL ZDApp_RestoreNwkKey, osal_memset
        LOCFRAME ISTACK, 0, STACK
        LOCFRAME PSTACK, 0, STACK
        LOCFRAME XSTACK, 33, STACK
        LOCFRAME IOVERLAY, 0, STATIC
        LOCFRAME DOVERLAY, 0, STATIC
        ARGFRAME ISTACK, 0, STACK
        ARGFRAME PSTACK, 0, STACK
        ARGFRAME XSTACK, 33, STACK
        ARGFRAME IOVERLAY, 0, STATIC
        ARGFRAME DOVERLAY, 0, STATIC
        MOV     A,#-0xc
        LCALL   ?BANKED_ENTER_XDATA
        CFI DPH0 load(1, XDATA, add(CFA_XSP16, literal(-1)))
        CFI DPL0 load(1, XDATA, add(CFA_XSP16, literal(-2)))
        CFI ?BRET_EXT load(1, XDATA, add(CFA_XSP16, literal(-3)))
        CFI ?RET_HIGH load(1, XDATA, add(CFA_XSP16, literal(-4)))
        CFI ?RET_LOW load(1, XDATA, add(CFA_XSP16, literal(-5)))
        CFI R7 load(1, XDATA, add(CFA_XSP16, literal(-6)))
        CFI V3 load(1, XDATA, add(CFA_XSP16, literal(-7)))
        CFI V2 load(1, XDATA, add(CFA_XSP16, literal(-8)))
        CFI V1 load(1, XDATA, add(CFA_XSP16, literal(-9)))
        CFI V0 load(1, XDATA, add(CFA_XSP16, literal(-10)))
        CFI VB load(1, XDATA, add(CFA_XSP16, literal(-11)))
        CFI R6 load(1, XDATA, add(CFA_XSP16, literal(-12)))
        CFI CFA_SP SP+0
        CFI CFA_XSP16 add(XSP16, 12)
        ; Saved register size: 12
        ; Auto size: 21
        MOV     A,#-0x15
        LCALL   ?ALLOC_XSTACK8
        CFI CFA_XSP16 add(XSP16, 33)
// 1556   nwkActiveKeyItems keyItems;
// 1557   uint8 ret = false;
        MOV     R6,#0x0
// 1558 
// 1559   if ( osal_nv_read( ZCD_NV_NWKKEY, 0, sizeof(nwkActiveKeyItems), (void*)&keyItems )
// 1560       == ZSUCCESS )
        ; Setup parameters for call to function osal_nv_read
        MOV     DPL,?XSP + 0
        MOV     DPH,?XSP + 1
        MOV     ?V0 + 0,DPL
        MOV     ?V0 + 1,DPH
        MOV     R0,#?V0 + 0
        LCALL   ?PUSH_XSTACK_I_TWO
        CFI CFA_XSP16 add(XSP16, 35)
        MOV     ?V0 + 0,#0x15
        MOV     ?V0 + 1,R6
        MOV     R0,#?V0 + 0
        LCALL   ?PUSH_XSTACK_I_TWO
        CFI CFA_XSP16 add(XSP16, 37)
        MOV     R4,#0x0
        MOV     R5,#0x0
        MOV     R2,#-0x7e
        MOV     R3,#0x0
        LCALL   ??osal_nv_read?relay
        MOV     A,#0x4
        LCALL   ?DEALLOC_XSTACK8
        CFI CFA_XSP16 add(XSP16, 33)
        MOV     A,R1
        JNZ     ??ZDApp_RestoreNwkKey_0
// 1561   {
// 1562     if ( keyItems.frameCounter > 0 )
        MOV     A,#0x11
        LCALL   ?XSTACK_DISP0_8
        PUSH    DPL
        CFI CFA_SP SP+-1
        PUSH    DPH
        CFI CFA_SP SP+-2
        MOV     DPTR,#__Constant_0
        MOV     R0,#?V0 + 0
        LCALL   ?L_MOV_X
        POP     DPH
        CFI CFA_SP SP+-1
        POP     DPL
        CFI CFA_SP SP+0
        MOV     R0,#?V0 + 0
        LCALL   ?L_EQ_X
        JZ      ??ZDApp_RestoreNwkKey_1
// 1563     {
// 1564       // Restore the key information
// 1565       keyItems.frameCounter += MAX_NWK_FRAMECOUNTER_CHANGES;
        MOV     DPTR,#__Constant_3e8
        MOV     R0,#?V0 + 0
        LCALL   ?L_MOV_X
        MOV     A,#0x11
        LCALL   ?XSTACK_DISP0_8
        MOV     R0,#?V0 + 0
        LCALL   ?L_ADD_TO_X
// 1566       nwkFrameCounter = keyItems.frameCounter;
        MOV     A,#0x11
        LCALL   ?XSTACK_DISP0_8
        MOV     R0,#?V0 + 0
        LCALL   ?L_MOV_X
        MOV     DPTR,#nwkFrameCounter
        MOV     R0,#?V0 + 0
        LCALL   ?L_MOV_TO_X
// 1567       ret = true;
        INC     R6
// 1568     }
// 1569 
// 1570     // Force a save for the first frame counter increment
// 1571     nwkFrameCounterChanges = MAX_NWK_FRAMECOUNTER_CHANGES + 1;
??ZDApp_RestoreNwkKey_1:
        MOV     DPTR,#nwkFrameCounterChanges
        MOV     A,#-0x17
        MOVX    @DPTR,A
        INC     DPTR
        MOV     A,#0x3
        MOVX    @DPTR,A
// 1572   }
// 1573   // Clear copy in RAM before return.
// 1574   osal_memset( &keyItems, 0x00, sizeof(keyItems) );
??ZDApp_RestoreNwkKey_0:
        ; Setup parameters for call to function osal_memset
        MOV     R4,#0x15
        MOV     R5,#0x0
        MOV     R1,#0x0
        MOV     DPL,?XSP + 0
        MOV     DPH,?XSP + 1
        MOV     R2,DPL
        MOV     R3,DPH
        LCALL   ??osal_memset?relay
// 1575 
// 1576   return ( ret );
        MOV     A,R6
        MOV     R1,A
        LJMP    ?Subroutine22 & 0xFFFF
        CFI EndBlock cfiBlock68
// 1577 }
// 1578 
// 1579 /*********************************************************************
// 1580  * @fn      ZDApp_ResetTimerStart
// 1581  *
// 1582  * @brief   Start the reset timer.
// 1583  *
// 1584  * @param   delay - delay time(ms) before reset
// 1585  *
// 1586  * @return  none
// 1587  */

        RSEG BANKED_CODE:CODE:NOROOT(0)
// 1588 void ZDApp_ResetTimerStart( uint16 delay )
ZDApp_ResetTimerStart:
        CFI Block cfiBlock69 Using cfiCommon0
        CFI Function ZDApp_ResetTimerStart
// 1589 {
        FUNCALL ZDApp_ResetTimerStart, osal_start_timerEx
        LOCFRAME ISTACK, 2, STACK
        LOCFRAME PSTACK, 0, STACK
        LOCFRAME XSTACK, 0, STACK
        LOCFRAME IOVERLAY, 0, STATIC
        LOCFRAME DOVERLAY, 0, STATIC
        ARGFRAME ISTACK, 2, STACK
        ARGFRAME PSTACK, 0, STACK
        ARGFRAME XSTACK, 0, STACK
        ARGFRAME IOVERLAY, 0, STATIC
        ARGFRAME DOVERLAY, 0, STATIC
        PUSH    DPL
        CFI DPL0 Frame(CFA_SP, 4)
        CFI CFA_SP SP+-4
        PUSH    DPH
        CFI DPH0 Frame(CFA_SP, 5)
        CFI CFA_SP SP+-5
        ; Saved register size: 2
        ; Auto size: 0
// 1590   // Start the rest timer
// 1591   osal_start_timerEx( ZDAppTaskID, ZDO_DEVICE_RESET, delay );
        ; Setup parameters for call to function osal_start_timerEx
        MOV     A,R2
        MOV     R4,A
        MOV     A,R3
        MOV     R5,A
        MOV     R2,#0x4
        LCALL   ?Subroutine7 & 0xFFFF
// 1592 }
??CrossCallReturnLabel_39:
        LJMP    ??Subroutine29_0 & 0xFFFF
        CFI EndBlock cfiBlock69

        RSEG BANKED_CODE:CODE:NOROOT(0)
?Subroutine7:
        CFI Block cfiCond70 Using cfiCommon0
        CFI NoFunction
        CFI Conditional ??CrossCallReturnLabel_39
        CFI DPL0 Frame(CFA_SP, 4)
        CFI DPH0 Frame(CFA_SP, 5)
        CFI CFA_SP SP+-5
        CFI Block cfiCond71 Using cfiCommon0
        CFI (cfiCond71) NoFunction
        CFI (cfiCond71) Conditional ??CrossCallReturnLabel_40
        CFI (cfiCond71) DPL0 Frame(CFA_SP, 4)
        CFI (cfiCond71) DPH0 Frame(CFA_SP, 5)
        CFI (cfiCond71) CFA_SP SP+-5
        CFI Block cfiPicker72 Using cfiCommon1
        CFI (cfiPicker72) NoFunction
        CFI (cfiPicker72) Picker
        MOV     R3,#0x0
        MOV     DPTR,#ZDAppTaskID
        CFI EndBlock cfiCond70
        CFI EndBlock cfiCond71
        CFI EndBlock cfiPicker72
        REQUIRE ??Subroutine28_0
        ; // Fall through to label ??Subroutine28_0

        RSEG BANKED_CODE:CODE:NOROOT(0)
??Subroutine28_0:
        CFI Block cfiCond73 Using cfiCommon0
        CFI NoFunction
        CFI Conditional ??CrossCallReturnLabel_41
        CFI R6 load(1, XDATA, add(CFA_XSP16, literal(-10)))
        CFI VB load(1, XDATA, add(CFA_XSP16, literal(-9)))
        CFI V0 load(1, XDATA, add(CFA_XSP16, literal(-8)))
        CFI V1 load(1, XDATA, add(CFA_XSP16, literal(-7)))
        CFI R7 load(1, XDATA, add(CFA_XSP16, literal(-6)))
        CFI ?RET_LOW load(1, XDATA, add(CFA_XSP16, literal(-5)))
        CFI ?RET_HIGH load(1, XDATA, add(CFA_XSP16, literal(-4)))
        CFI ?BRET_EXT load(1, XDATA, add(CFA_XSP16, literal(-3)))
        CFI DPL0 load(1, XDATA, add(CFA_XSP16, literal(-2)))
        CFI DPH0 load(1, XDATA, add(CFA_XSP16, literal(-1)))
        CFI CFA_SP SP+0
        CFI CFA_XSP16 add(XSP16, 10)
        CFI Block cfiCond74 Using cfiCommon0
        CFI (cfiCond74) NoFunction
        CFI (cfiCond74) Conditional ??CrossCallReturnLabel_39
        CFI (cfiCond74) DPL0 Frame(CFA_SP, 4)
        CFI (cfiCond74) DPH0 Frame(CFA_SP, 5)
        CFI (cfiCond74) CFA_SP SP+-5
        CFI Block cfiCond75 Using cfiCommon0
        CFI (cfiCond75) NoFunction
        CFI (cfiCond75) Conditional ??CrossCallReturnLabel_40
        CFI (cfiCond75) DPL0 Frame(CFA_SP, 4)
        CFI (cfiCond75) DPH0 Frame(CFA_SP, 5)
        CFI (cfiCond75) CFA_SP SP+-5
        CFI Block cfiPicker76 Using cfiCommon1
        CFI (cfiPicker76) NoFunction
        CFI (cfiPicker76) Picker
        MOVX    A,@DPTR
        MOV     R1,A
        LCALL   ??osal_start_timerEx?relay
        RET
        CFI EndBlock cfiCond73
        CFI EndBlock cfiCond74
        CFI EndBlock cfiCond75
        CFI EndBlock cfiPicker76
// 1593 
// 1594 /*********************************************************************
// 1595  * @fn      ZDApp_ResetTimerCancel
// 1596  *
// 1597  * @brief   Cancel the reset timer.
// 1598  *
// 1599  * @param   none
// 1600  *
// 1601  * @return  none
// 1602  */

        RSEG BANKED_CODE:CODE:NOROOT(0)
// 1603 void ZDApp_ResetTimerCancel( void )
ZDApp_ResetTimerCancel:
        CFI Block cfiBlock77 Using cfiCommon0
        CFI Function ZDApp_ResetTimerCancel
// 1604 {
        FUNCALL ZDApp_ResetTimerCancel, osal_stop_timerEx
        LOCFRAME ISTACK, 2, STACK
        LOCFRAME PSTACK, 0, STACK
        LOCFRAME XSTACK, 0, STACK
        LOCFRAME IOVERLAY, 0, STATIC
        LOCFRAME DOVERLAY, 0, STATIC
        ARGFRAME ISTACK, 2, STACK
        ARGFRAME PSTACK, 0, STACK
        ARGFRAME XSTACK, 0, STACK
        ARGFRAME IOVERLAY, 0, STATIC
        ARGFRAME DOVERLAY, 0, STATIC
        PUSH    DPL
        CFI DPL0 Frame(CFA_SP, 4)
        CFI CFA_SP SP+-4
        PUSH    DPH
        CFI DPH0 Frame(CFA_SP, 5)
        CFI CFA_SP SP+-5
        ; Saved register size: 2
        ; Auto size: 0
// 1605   // Cancel the reset timer
// 1606   osal_stop_timerEx( ZDAppTaskID, ZDO_DEVICE_RESET );
        ; Setup parameters for call to function osal_stop_timerEx
        MOV     R2,#0x4
        MOV     R3,#0x0
        MOV     DPTR,#ZDAppTaskID
        MOVX    A,@DPTR
        MOV     R1,A
        LCALL   ??osal_stop_timerEx?relay
// 1607 }
        LJMP    ??Subroutine29_0 & 0xFFFF
        CFI EndBlock cfiBlock77
// 1608 
// 1609 /*********************************************************************
// 1610  * @fn      ZDApp_LeaveCtrlInit
// 1611  *
// 1612  * @brief   Initialize the leave control logic.
// 1613  *
// 1614  * @param   none
// 1615  *
// 1616  * @return  none
// 1617  */

        RSEG BANKED_CODE:CODE:NOROOT(0)
// 1618 void ZDApp_LeaveCtrlInit( void )
ZDApp_LeaveCtrlInit:
        CFI Block cfiBlock78 Using cfiCommon0
        CFI Function ZDApp_LeaveCtrlInit
// 1619 {
        FUNCALL ZDApp_LeaveCtrlInit, osal_nv_item_init
        LOCFRAME ISTACK, 0, STACK
        LOCFRAME PSTACK, 0, STACK
        LOCFRAME XSTACK, 12, STACK
        LOCFRAME IOVERLAY, 0, STATIC
        LOCFRAME DOVERLAY, 0, STATIC
        ARGFRAME ISTACK, 0, STACK
        ARGFRAME PSTACK, 0, STACK
        ARGFRAME XSTACK, 12, STACK
        ARGFRAME IOVERLAY, 0, STATIC
        ARGFRAME DOVERLAY, 0, STATIC
        FUNCALL ZDApp_LeaveCtrlInit, osal_nv_read
        LOCFRAME ISTACK, 0, STACK
        LOCFRAME PSTACK, 0, STACK
        LOCFRAME XSTACK, 14, STACK
        LOCFRAME IOVERLAY, 0, STATIC
        LOCFRAME DOVERLAY, 0, STATIC
        ARGFRAME ISTACK, 0, STACK
        ARGFRAME PSTACK, 0, STACK
        ARGFRAME XSTACK, 14, STACK
        ARGFRAME IOVERLAY, 0, STATIC
        ARGFRAME DOVERLAY, 0, STATIC
        MOV     A,#-0xa
        LCALL   ?BANKED_ENTER_XDATA
        CFI DPH0 load(1, XDATA, add(CFA_XSP16, literal(-1)))
        CFI DPL0 load(1, XDATA, add(CFA_XSP16, literal(-2)))
        CFI ?BRET_EXT load(1, XDATA, add(CFA_XSP16, literal(-3)))
        CFI ?RET_HIGH load(1, XDATA, add(CFA_XSP16, literal(-4)))
        CFI ?RET_LOW load(1, XDATA, add(CFA_XSP16, literal(-5)))
        CFI R7 load(1, XDATA, add(CFA_XSP16, literal(-6)))
        CFI V1 load(1, XDATA, add(CFA_XSP16, literal(-7)))
        CFI V0 load(1, XDATA, add(CFA_XSP16, literal(-8)))
        CFI VB load(1, XDATA, add(CFA_XSP16, literal(-9)))
        CFI R6 load(1, XDATA, add(CFA_XSP16, literal(-10)))
        CFI CFA_SP SP+0
        CFI CFA_XSP16 add(XSP16, 10)
        ; Saved register size: 10
        ; Auto size: 0
// 1620   uint8 status;
// 1621 
// 1622 
// 1623   // Initialize control state
// 1624   ZDApp_LeaveCtrl = ZDAPP_LEAVE_CTRL_INIT;
        LCALL   ?Subroutine3 & 0xFFFF
// 1625 
// 1626   status = osal_nv_item_init( ZCD_NV_LEAVE_CTRL,
// 1627                               sizeof(ZDApp_LeaveCtrl),
// 1628                               &ZDApp_LeaveCtrl );
// 1629 
// 1630   if ( status == ZSUCCESS )
??CrossCallReturnLabel_2:
        LCALL   ?PUSH_XSTACK_I_TWO
        CFI CFA_XSP16 add(XSP16, 12)
        MOV     R4,#0x1
        MOV     R5,#0x0
        MOV     R2,#-0x7b
        MOV     R3,#0x0
        LCALL   ??osal_nv_item_init?relay
        MOV     A,#0x2
        LCALL   ?DEALLOC_XSTACK8
        CFI CFA_XSP16 add(XSP16, 10)
        MOV     A,R1
        JNZ     ??ZDApp_LeaveCtrlInit_0
// 1631   {
// 1632     // Read saved control
// 1633     osal_nv_read( ZCD_NV_LEAVE_CTRL,
// 1634                   0,
// 1635                   sizeof( uint8 ),
// 1636                   &ZDApp_LeaveCtrl);
        ; Setup parameters for call to function osal_nv_read
        MOV     R0,#?V0 + 0
        LCALL   ?PUSH_XSTACK_I_TWO
        CFI CFA_XSP16 add(XSP16, 12)
        MOV     ?V0 + 0,#0x1
        MOV     ?V0 + 1,#0x0
        MOV     R0,#?V0 + 0
        LCALL   ?PUSH_XSTACK_I_TWO
        CFI CFA_XSP16 add(XSP16, 14)
        MOV     R4,#0x0
        MOV     R5,#0x0
        MOV     R2,#-0x7b
        MOV     R3,#0x0
        LCALL   ??osal_nv_read?relay
        MOV     A,#0x4
        LCALL   ?DEALLOC_XSTACK8
        CFI CFA_XSP16 add(XSP16, 10)
// 1637   }
// 1638 }
??ZDApp_LeaveCtrlInit_0:
        LJMP    ??Subroutine32_0 & 0xFFFF
        CFI EndBlock cfiBlock78
// 1639 
// 1640 /*********************************************************************
// 1641  * @fn      ZDApp_LeaveCtrlSet
// 1642  *
// 1643  * @brief   Set the leave control logic.
// 1644  *
// 1645  * @param   ra - reassociate flag
// 1646  *
// 1647  * @return  none
// 1648  */

        RSEG BANKED_CODE:CODE:NOROOT(0)
// 1649 void ZDApp_LeaveCtrlSet( uint8 ra )
ZDApp_LeaveCtrlSet:
        CFI Block cfiBlock79 Using cfiCommon0
        CFI Function ZDApp_LeaveCtrlSet
// 1650 {
        FUNCALL ZDApp_LeaveCtrlSet, osal_nv_write
        LOCFRAME ISTACK, 0, STACK
        LOCFRAME PSTACK, 0, STACK
        LOCFRAME XSTACK, 14, STACK
        LOCFRAME IOVERLAY, 0, STATIC
        LOCFRAME DOVERLAY, 0, STATIC
        ARGFRAME ISTACK, 0, STACK
        ARGFRAME PSTACK, 0, STACK
        ARGFRAME XSTACK, 14, STACK
        ARGFRAME IOVERLAY, 0, STATIC
        ARGFRAME DOVERLAY, 0, STATIC
        MOV     A,#-0xa
        LCALL   ?BANKED_ENTER_XDATA
        CFI DPH0 load(1, XDATA, add(CFA_XSP16, literal(-1)))
        CFI DPL0 load(1, XDATA, add(CFA_XSP16, literal(-2)))
        CFI ?BRET_EXT load(1, XDATA, add(CFA_XSP16, literal(-3)))
        CFI ?RET_HIGH load(1, XDATA, add(CFA_XSP16, literal(-4)))
        CFI ?RET_LOW load(1, XDATA, add(CFA_XSP16, literal(-5)))
        CFI R7 load(1, XDATA, add(CFA_XSP16, literal(-6)))
        CFI V1 load(1, XDATA, add(CFA_XSP16, literal(-7)))
        CFI V0 load(1, XDATA, add(CFA_XSP16, literal(-8)))
        CFI VB load(1, XDATA, add(CFA_XSP16, literal(-9)))
        CFI R6 load(1, XDATA, add(CFA_XSP16, literal(-10)))
        CFI CFA_SP SP+0
        CFI CFA_XSP16 add(XSP16, 10)
        ; Saved register size: 10
        ; Auto size: 0
// 1651   ZDApp_LeaveCtrl = ZDAPP_LEAVE_CTRL_SET;
        MOV     A,#0x1
        MOV     DPTR,#ZDApp_LeaveCtrl
        MOVX    @DPTR,A
// 1652 
// 1653   if ( ra == TRUE )
        XRL     A,R1
        JNZ     ??ZDApp_LeaveCtrlSet_0
// 1654   {
// 1655     ZDApp_LeaveCtrl |= ZDAPP_LEAVE_CTRL_RA;
        MOV     A,#0x3
        MOVX    @DPTR,A
// 1656   }
// 1657 
// 1658   // Write the leave control
// 1659   osal_nv_write( ZCD_NV_LEAVE_CTRL,
// 1660                  0,
// 1661                  sizeof( uint8 ),
// 1662                  &ZDApp_LeaveCtrl);
??ZDApp_LeaveCtrlSet_0:
        ; Setup parameters for call to function osal_nv_write
        MOV     ?V0 + 0,#(ZDApp_LeaveCtrl & 0xff)
        MOV     ?V0 + 1,#((ZDApp_LeaveCtrl >> 8) & 0xff)
        MOV     R0,#?V0 + 0
        LCALL   ?PUSH_XSTACK_I_TWO
        CFI CFA_XSP16 add(XSP16, 12)
        MOV     ?V0 + 0,#0x1
        MOV     ?V0 + 1,#0x0
        MOV     R0,#?V0 + 0
        LCALL   ?PUSH_XSTACK_I_TWO
        CFI CFA_XSP16 add(XSP16, 14)
        MOV     R4,#0x0
        MOV     R5,#0x0
        MOV     R2,#-0x7b
        LCALL   ??Subroutine27_0 & 0xFFFF
??CrossCallReturnLabel_37:
        LJMP    ??Subroutine31_0 & 0xFFFF
        CFI EndBlock cfiBlock79
// 1663 }
// 1664 
// 1665 /*********************************************************************
// 1666  * @fn      ZDApp_LeaveCtrlBypass
// 1667  *
// 1668  * @brief   Check if NV restore should be skipped during a leave reset.
// 1669  *
// 1670  * @param   none
// 1671  *
// 1672  * @return  uint8 - (TRUE bypass:FALSE do not bypass)
// 1673  */

        RSEG BANKED_CODE:CODE:NOROOT(0)
// 1674 uint8 ZDApp_LeaveCtrlBypass( void )
ZDApp_LeaveCtrlBypass:
        CFI Block cfiBlock80 Using cfiCommon0
        CFI Function ZDApp_LeaveCtrlBypass
// 1675 {
        PUSH    DPL
        CFI DPL0 Frame(CFA_SP, 4)
        CFI CFA_SP SP+-4
        PUSH    DPH
        CFI DPH0 Frame(CFA_SP, 5)
        CFI CFA_SP SP+-5
        ; Saved register size: 2
        ; Auto size: 0
// 1676   uint8 bypass;
// 1677 
// 1678   if ( ZDApp_LeaveCtrl & ZDAPP_LEAVE_CTRL_SET )
// 1679   {
// 1680     bypass = TRUE;
// 1681   }
// 1682   else
// 1683   {
// 1684     bypass = FALSE;
// 1685   }
// 1686 
// 1687   return bypass;
        MOV     DPTR,#ZDApp_LeaveCtrl
        MOVX    A,@DPTR
        MOV     C,0xE0 /* A   */.0
        CLR     A
        MOV     0xE0 /* A   */.0,C
        MOV     R1,A
        SJMP    ??Subroutine29_0
        CFI EndBlock cfiBlock80
// 1688 }
// 1689 
// 1690 /*********************************************************************
// 1691  * @fn      ZDApp_LeaveCtrlStartup
// 1692  *
// 1693  * @brief   Check for startup conditions during a leave reset.
// 1694  *
// 1695  * @param   state      - devState_t determined by leave control logic
// 1696  * @param   startDelay - startup delay
// 1697  *
// 1698  * @return  none
// 1699  */

        RSEG BANKED_CODE:CODE:NOROOT(0)
// 1700 void ZDApp_LeaveCtrlStartup( devStates_t* state, uint16* startDelay )
ZDApp_LeaveCtrlStartup:
        CFI Block cfiBlock81 Using cfiCommon0
        CFI Function ZDApp_LeaveCtrlStartup
// 1701 {
        FUNCALL ZDApp_LeaveCtrlStartup, osal_nv_write
        LOCFRAME ISTACK, 0, STACK
        LOCFRAME PSTACK, 0, STACK
        LOCFRAME XSTACK, 14, STACK
        LOCFRAME IOVERLAY, 0, STATIC
        LOCFRAME DOVERLAY, 0, STATIC
        ARGFRAME ISTACK, 0, STACK
        ARGFRAME PSTACK, 0, STACK
        ARGFRAME XSTACK, 14, STACK
        ARGFRAME IOVERLAY, 0, STATIC
        ARGFRAME DOVERLAY, 0, STATIC
        MOV     A,#-0xa
        LCALL   ?BANKED_ENTER_XDATA
        CFI DPH0 load(1, XDATA, add(CFA_XSP16, literal(-1)))
        CFI DPL0 load(1, XDATA, add(CFA_XSP16, literal(-2)))
        CFI ?BRET_EXT load(1, XDATA, add(CFA_XSP16, literal(-3)))
        CFI ?RET_HIGH load(1, XDATA, add(CFA_XSP16, literal(-4)))
        CFI ?RET_LOW load(1, XDATA, add(CFA_XSP16, literal(-5)))
        CFI R7 load(1, XDATA, add(CFA_XSP16, literal(-6)))
        CFI V1 load(1, XDATA, add(CFA_XSP16, literal(-7)))
        CFI V0 load(1, XDATA, add(CFA_XSP16, literal(-8)))
        CFI VB load(1, XDATA, add(CFA_XSP16, literal(-9)))
        CFI R6 load(1, XDATA, add(CFA_XSP16, literal(-10)))
        CFI CFA_SP SP+0
        CFI CFA_XSP16 add(XSP16, 10)
        ; Saved register size: 10
        ; Auto size: 0
// 1702   *startDelay = 0;
        MOV     DPL,R4
        MOV     DPH,R5
        CLR     A
        MOVX    @DPTR,A
        INC     DPTR
        MOVX    @DPTR,A
// 1703 
// 1704   if ( ZDApp_LeaveCtrl & ZDAPP_LEAVE_CTRL_SET )
        MOV     DPTR,#ZDApp_LeaveCtrl
        MOVX    A,@DPTR
        MOV     C,0xE0 /* A   */.0
        JNC     ??ZDApp_LeaveCtrlStartup_0
// 1705   {
// 1706     if ( ZDApp_LeaveCtrl & ZDAPP_LEAVE_CTRL_RA )
        MOV     C,0xE0 /* A   */.1
        JNC     ??ZDApp_LeaveCtrlStartup_1
// 1707     {
// 1708       *startDelay = 5000;
        MOV     DPL,R4
        MOV     DPH,R5
        MOV     A,#-0x78
        MOVX    @DPTR,A
        INC     DPTR
        MOV     A,#0x13
        SJMP    ??ZDApp_LeaveCtrlStartup_2
// 1709     }
// 1710     else
// 1711     {
// 1712       *state = DEV_HOLD;
??ZDApp_LeaveCtrlStartup_1:
        CLR     A
        MOV     DPL,R2
        MOV     DPH,R3
??ZDApp_LeaveCtrlStartup_2:
        MOVX    @DPTR,A
// 1713     }
// 1714 
// 1715     // Set leave control to initialized state
// 1716     ZDApp_LeaveCtrl = ZDAPP_LEAVE_CTRL_INIT;
        LCALL   ?Subroutine3 & 0xFFFF
// 1717 
// 1718     // Write initialized control
// 1719     osal_nv_write( ZCD_NV_LEAVE_CTRL,
// 1720                   0,
// 1721                   sizeof( uint8 ),
// 1722                   &ZDApp_LeaveCtrl);
// 1723   }
??CrossCallReturnLabel_3:
        LCALL   ?PUSH_XSTACK_I_TWO
        CFI CFA_XSP16 add(XSP16, 12)
        MOV     ?V0 + 0,#0x1
        MOV     ?V0 + 1,#0x0
        MOV     R0,#?V0 + 0
        LCALL   ?PUSH_XSTACK_I_TWO
        CFI CFA_XSP16 add(XSP16, 14)
        MOV     R4,#0x0
        MOV     R5,#0x0
        MOV     R2,#-0x7b
        LCALL   ??Subroutine27_0 & 0xFFFF
??CrossCallReturnLabel_38:
        LCALL   ?DEALLOC_XSTACK8
        CFI CFA_XSP16 add(XSP16, 10)
// 1724 }
??ZDApp_LeaveCtrlStartup_0:
        LJMP    ??Subroutine32_0 & 0xFFFF
        CFI EndBlock cfiBlock81

        RSEG BANKED_CODE:CODE:NOROOT(0)
?Subroutine3:
        CFI Block cfiCond82 Using cfiCommon0
        CFI NoFunction
        CFI Conditional ??CrossCallReturnLabel_2
        CFI R6 load(1, XDATA, add(CFA_XSP16, literal(-10)))
        CFI VB load(1, XDATA, add(CFA_XSP16, literal(-9)))
        CFI V0 load(1, XDATA, add(CFA_XSP16, literal(-8)))
        CFI V1 load(1, XDATA, add(CFA_XSP16, literal(-7)))
        CFI R7 load(1, XDATA, add(CFA_XSP16, literal(-6)))
        CFI ?RET_LOW load(1, XDATA, add(CFA_XSP16, literal(-5)))
        CFI ?RET_HIGH load(1, XDATA, add(CFA_XSP16, literal(-4)))
        CFI ?BRET_EXT load(1, XDATA, add(CFA_XSP16, literal(-3)))
        CFI DPL0 load(1, XDATA, add(CFA_XSP16, literal(-2)))
        CFI DPH0 load(1, XDATA, add(CFA_XSP16, literal(-1)))
        CFI CFA_SP SP+0
        CFI CFA_XSP16 add(XSP16, 10)
        CFI Block cfiCond83 Using cfiCommon0
        CFI (cfiCond83) NoFunction
        CFI (cfiCond83) Conditional ??CrossCallReturnLabel_3
        CFI (cfiCond83) R6 load(1, XDATA, add(CFA_XSP16, literal(-10)))
        CFI (cfiCond83) VB load(1, XDATA, add(CFA_XSP16, literal(-9)))
        CFI (cfiCond83) V0 load(1, XDATA, add(CFA_XSP16, literal(-8)))
        CFI (cfiCond83) V1 load(1, XDATA, add(CFA_XSP16, literal(-7)))
        CFI (cfiCond83) R7 load(1, XDATA, add(CFA_XSP16, literal(-6)))
        CFI (cfiCond83) ?RET_LOW load(1, XDATA, add(CFA_XSP16, literal(-5)))
        CFI (cfiCond83) ?RET_HIGH load(1, XDATA, add(CFA_XSP16, literal(-4)))
        CFI (cfiCond83) ?BRET_EXT load(1, XDATA, add(CFA_XSP16, literal(-3)))
        CFI (cfiCond83) DPL0 load(1, XDATA, add(CFA_XSP16, literal(-2)))
        CFI (cfiCond83) DPH0 load(1, XDATA, add(CFA_XSP16, literal(-1)))
        CFI (cfiCond83) CFA_SP SP+0
        CFI (cfiCond83) CFA_XSP16 add(XSP16, 10)
        CFI Block cfiPicker84 Using cfiCommon1
        CFI (cfiPicker84) NoFunction
        CFI (cfiPicker84) Picker
        CLR     A
        MOV     DPTR,#ZDApp_LeaveCtrl
        MOVX    @DPTR,A
        ; Setup parameters for call to function osal_nv_item_init
        ; Setup parameters for call to function osal_nv_write
        MOV     ?V0 + 0,#(ZDApp_LeaveCtrl & 0xff)
        MOV     ?V0 + 1,#((ZDApp_LeaveCtrl >> 8) & 0xff)
        MOV     R0,#?V0 + 0
        RET
        CFI EndBlock cfiCond82
        CFI EndBlock cfiCond83
        CFI EndBlock cfiPicker84
// 1725 
// 1726 /*********************************************************************
// 1727  * @fn      ZDApp_LeaveReset
// 1728  *
// 1729  * @brief   Setup a device reset due to a leave indication/confirm.
// 1730  *
// 1731  * @param   ra - reassociate flag
// 1732  *
// 1733  * @return  none
// 1734  */

        RSEG BANKED_CODE:CODE:NOROOT(0)
// 1735 void ZDApp_LeaveReset( uint8 ra )
ZDApp_LeaveReset:
        CFI Block cfiBlock85 Using cfiCommon0
        CFI Function ZDApp_LeaveReset
// 1736 {
        FUNCALL ZDApp_LeaveReset, ZDApp_LeaveCtrlSet
        LOCFRAME ISTACK, 2, STACK
        LOCFRAME PSTACK, 0, STACK
        LOCFRAME XSTACK, 0, STACK
        LOCFRAME IOVERLAY, 0, STATIC
        LOCFRAME DOVERLAY, 0, STATIC
        ARGFRAME ISTACK, 2, STACK
        ARGFRAME PSTACK, 0, STACK
        ARGFRAME XSTACK, 0, STACK
        ARGFRAME IOVERLAY, 0, STATIC
        ARGFRAME DOVERLAY, 0, STATIC
        FUNCALL ZDApp_LeaveReset, ZDApp_ResetTimerStart
        LOCFRAME ISTACK, 2, STACK
        LOCFRAME PSTACK, 0, STACK
        LOCFRAME XSTACK, 0, STACK
        LOCFRAME IOVERLAY, 0, STATIC
        LOCFRAME DOVERLAY, 0, STATIC
        ARGFRAME ISTACK, 2, STACK
        ARGFRAME PSTACK, 0, STACK
        ARGFRAME XSTACK, 0, STACK
        ARGFRAME IOVERLAY, 0, STATIC
        ARGFRAME DOVERLAY, 0, STATIC
        PUSH    DPL
        CFI DPL0 Frame(CFA_SP, 4)
        CFI CFA_SP SP+-4
        PUSH    DPH
        CFI DPH0 Frame(CFA_SP, 5)
        CFI CFA_SP SP+-5
        ; Saved register size: 2
        ; Auto size: 0
// 1737   ZDApp_LeaveCtrlSet( ra );
        ; Setup parameters for call to function ZDApp_LeaveCtrlSet
        LCALL   ??ZDApp_LeaveCtrlSet?relay
// 1738 
// 1739   ZDApp_ResetTimerStart( 5000 );
        ; Setup parameters for call to function ZDApp_ResetTimerStart
        MOV     R2,#-0x78
        MOV     R3,#0x13
        LCALL   ??ZDApp_ResetTimerStart?relay
// 1740 }
        SJMP    ??Subroutine29_0
        CFI EndBlock cfiBlock85
// 1741 
// 1742 /*********************************************************************
// 1743  * @fn      ZDApp_LeaveUpdate
// 1744  *
// 1745  * @brief   Update local device data related to leaving device.
// 1746  *
// 1747  * @param   nwkAddr        - NWK address of leaving device
// 1748  * @param   extAddr        - EXT address of leaving device
// 1749  * @param   removeChildren - remove children of leaving device
// 1750  *
// 1751  * @return  none
// 1752  */
// 1753 void ZDApp_LeaveUpdate( uint16 nwkAddr, uint8* extAddr,
// 1754                         uint8 removeChildren )
// 1755 {
// 1756   /*
// 1757   AddrMgrEntry_t entry;
// 1758   */
// 1759   (void)nwkAddr;  // Intentionally unreferenced parameter
// 1760 
// 1761   // Remove if child
// 1762   if ( ZSTACK_ROUTER_BUILD )
// 1763   {
// 1764     NLME_RemoveChild( extAddr, removeChildren );
// 1765   }
// 1766 
// 1767   /*
// 1768   // Set NWK address to invalid
// 1769   entry.user    = ADDRMGR_USER_DEFAULT;
// 1770   entry.nwkAddr = INVALID_NODE_ADDR;
// 1771   AddrMgrExtAddrSet( entry.extAddr, extAddr );
// 1772   AddrMgrEntryUpdate( &entry );
// 1773 
// 1774   // Check
// 1775   if ( removeChildren == TRUE )
// 1776   {
// 1777     // Set index to INVALID_NODE_ADDR to start search
// 1778     entry.index = INVALID_NODE_ADDR;
// 1779 
// 1780     // Get first entry
// 1781     AddrMgrEntryGetNext( &entry );
// 1782 
// 1783     // Remove all descendents
// 1784     while ( entry.index != INVALID_NODE_ADDR )
// 1785     {
// 1786       // Check NWK address allocation algorithm
// 1787       if ( RTG_ANCESTOR( entry.nwkAddr, thisAddr ) != 0 )
// 1788       {
// 1789         // Set NWK address to invalid
// 1790         entry.nwkAddr = INVALID_NODE_ADDR;
// 1791         AddrMgrEntryUpdate( &entry );
// 1792       }
// 1793 
// 1794       // Get next entry
// 1795       AddrMgrEntryGetNext( &entry );
// 1796     }
// 1797   }
// 1798   */
// 1799 }
// 1800 
// 1801 /*********************************************************************
// 1802  * CALLBACK FUNCTIONS
// 1803  */
// 1804 
// 1805 
// 1806 /*********************************************************************
// 1807  * @fn      ZDApp_SendEventMsg()
// 1808  *
// 1809  * @brief
// 1810  *
// 1811  *   Sends a Network Join message
// 1812  *
// 1813  * @param  cmd - command ID
// 1814  * @param  len - length (in bytes) of the buf field
// 1815  * @param  buf - buffer for the rest of the message.
// 1816  *
// 1817  * @return  none
// 1818  */
// 1819 void ZDApp_SendEventMsg( uint8 cmd, uint8 len, uint8 *buf )
// 1820 {
// 1821   ZDApp_SendMsg( ZDAppTaskID, cmd, len, buf );
// 1822 }
// 1823 
// 1824 /*********************************************************************
// 1825  * @fn      ZDApp_SendMsg()
// 1826  *
// 1827  * @brief   Sends a OSAL message
// 1828  *
// 1829  * @param  taskID - Where to send the message
// 1830  * @param  cmd - command ID
// 1831  * @param  len - length (in bytes) of the buf field
// 1832  * @param  buf - buffer for the rest of the message.
// 1833  *
// 1834  * @return  none
// 1835  */
// 1836 void ZDApp_SendMsg( uint8 taskID, uint8 cmd, uint8 len, uint8 *buf )
// 1837 {
// 1838   osal_event_hdr_t *msgPtr;
// 1839 
// 1840   // Send the address to the task
// 1841   msgPtr = (osal_event_hdr_t *)osal_msg_allocate( len );
// 1842   if ( msgPtr )
// 1843   {
// 1844     if ( (len > 0) && (buf != NULL) )
// 1845       osal_memcpy( msgPtr, buf, len );
// 1846 
// 1847     msgPtr->event = cmd;
// 1848     osal_msg_send( taskID, (uint8 *)msgPtr );
// 1849   }
// 1850 }
// 1851 
// 1852 /*********************************************************************
// 1853  * Call Back Functions from NWK  - API
// 1854  */
// 1855 
// 1856 /*********************************************************************
// 1857  * @fn          ZDO_NetworkDiscoveryConfirmCB
// 1858  *
// 1859  * @brief       This function returns a choice of PAN to join.
// 1860  *
// 1861  * @param       ResultCount - Number of routers discovered
// 1862  * @param               NetworkList - Pointer to list of network descriptors
// 1863  *
// 1864  * @return      ZStatus_t
// 1865  */
// 1866 #define STACK_PROFILE_MAX 2
// 1867 ZStatus_t ZDO_NetworkDiscoveryConfirmCB( uint8 ResultCount,
// 1868                                          networkDesc_t *NetworkList )
// 1869 {
// 1870   networkDesc_t *pNwkDesc = NetworkList;
// 1871   ZDO_NetworkDiscoveryCfm_t msg;
// 1872   uint8 i = ResultCount;
// 1873   uint8 stackProfile;
// 1874   uint8 stackProfilePro;
// 1875   uint8 selected;
// 1876 
// 1877 #if defined ( ZDO_MGMT_NWKDISC_RESPONSE )
// 1878   if ( zdappMgmtNwkDiscReqInProgress )
// 1879   {
// 1880     zdappMgmtNwkDiscReqInProgress = false;
// 1881     ZDO_FinishProcessingMgmtNwkDiscReq( ResultCount, NetworkList );
// 1882     return ( ZSuccess );
// 1883   }
// 1884 #endif
// 1885 
// 1886   // process discovery results
// 1887   stackProfilePro = FALSE;
// 1888   selected = FALSE;
// 1889 
// 1890   for ( stackProfile = 0; stackProfile < STACK_PROFILE_MAX; stackProfile++ )
// 1891   {
// 1892     pNwkDesc = NetworkList;
// 1893     for ( i = 0; i < ResultCount; i++, pNwkDesc = pNwkDesc->nextDesc )
// 1894     {
// 1895       if ( zgConfigPANID != 0xFFFF )
// 1896       {
// 1897         // PAN Id is preconfigured. check if it matches
// 1898         if ( pNwkDesc->panId != zgConfigPANID )
// 1899           continue;
// 1900       }
// 1901 
// 1902 
// 1903       if ( nwk_ExtPANIDValid( ZDO_UseExtendedPANID) == true )
// 1904       {
// 1905         // If the extended Pan ID is commissioned to a non zero value
// 1906         // Only join the Pan that has match EPID
// 1907         if ( osal_ExtAddrEqual( ZDO_UseExtendedPANID, pNwkDesc->extendedPANID) == false )
// 1908           continue;
// 1909 
// 1910       }
// 1911 
// 1912 
// 1913         // check that network is allowing joining
// 1914         if ( ZSTACK_ROUTER_BUILD )
// 1915         {
// 1916           if ( stackProfilePro == FALSE )
// 1917           {
// 1918             if ( !pNwkDesc->routerCapacity )
// 1919             {
// 1920               continue;
// 1921             }
// 1922           }
// 1923           else
// 1924           {
// 1925             if ( !pNwkDesc->deviceCapacity )
// 1926             {
// 1927               continue;
// 1928             }
// 1929           }
// 1930         }
// 1931         else if ( ZSTACK_END_DEVICE_BUILD )
// 1932         {
// 1933           if ( !pNwkDesc->deviceCapacity )
// 1934           {
// 1935             continue;
// 1936           }
// 1937         }
// 1938 
// 1939         // check version of zigbee protocol
// 1940         if ( pNwkDesc->version != _NIB.nwkProtocolVersion )
// 1941           continue;
// 1942 
// 1943         // check version of stack profile
// 1944         if ( pNwkDesc->stackProfile != zgStackProfile  )
// 1945         {
// 1946           if ( ((zgStackProfile == HOME_CONTROLS) && (pNwkDesc->stackProfile == ZIGBEEPRO_PROFILE))
// 1947               || ((zgStackProfile == ZIGBEEPRO_PROFILE) && (pNwkDesc->stackProfile == HOME_CONTROLS))  )
// 1948             stackProfilePro = TRUE;
// 1949 
// 1950           if ( stackProfile == 0 )
// 1951           {
// 1952             continue;
// 1953           }
// 1954         }
// 1955 
// 1956       // check if beacon order is the right value..
// 1957       //  if ( pNwkDesc->beaconOrder < ZDO_CONFIG_MAX_BO )
// 1958       //    continue;
// 1959 
// 1960       // choose this pan for joining
// 1961       break;
// 1962     }
// 1963     if (i < ResultCount)
// 1964     {
// 1965      selected = TRUE;
// 1966       break;
// 1967     }
// 1968 
// 1969     // break if selected or stack profile pro wasn't found
// 1970     if ( (selected == TRUE) || (stackProfilePro == FALSE) )
// 1971     {
// 1972       break;
// 1973     }
// 1974   }
// 1975 
// 1976   if ( i == ResultCount )
// 1977   {
// 1978     msg.hdr.status = ZDO_FAIL;   // couldn't find appropriate PAN to join !
// 1979   }
// 1980   else
// 1981   {
// 1982     msg.hdr.status = ZDO_SUCCESS;
// 1983     msg.panIdLSB = LO_UINT16( pNwkDesc->panId );
// 1984     msg.panIdMSB = HI_UINT16( pNwkDesc->panId );
// 1985     msg.logicalChannel = pNwkDesc->logicalChannel;
// 1986     msg.version = pNwkDesc->version;
// 1987     osal_cpyExtAddr( msg.extendedPANID, pNwkDesc->extendedPANID );
// 1988   }
// 1989 
// 1990   ZDApp_SendMsg( ZDAppTaskID, ZDO_NWK_DISC_CNF, sizeof(ZDO_NetworkDiscoveryCfm_t), (uint8 *)&msg );
// 1991 
// 1992   return (ZSuccess);
// 1993 }  // ZDO_NetworkDiscoveryConfirmCB
// 1994 
// 1995 /*********************************************************************
// 1996  * @fn          ZDO_NetworkFormationConfirmCB
// 1997  *
// 1998  * @brief       This function reports the results of the request to
// 1999  *              initialize a coordinator in a network.
// 2000  *
// 2001  * @param       Status - Result of NLME_NetworkFormationRequest()
// 2002  *
// 2003  * @return      none
// 2004  */
// 2005 void ZDO_NetworkFormationConfirmCB( ZStatus_t Status )
// 2006 {
// 2007   nwkStatus = (byte)Status;
// 2008 
// 2009   if ( Status == ZSUCCESS )
// 2010   {
// 2011     // LED on shows Coordinator started
// 2012     HalLedSet ( HAL_LED_3, HAL_LED_MODE_ON );
// 2013 
// 2014     // LED off forgets HOLD_AUTO_START
// 2015     HalLedSet (HAL_LED_4, HAL_LED_MODE_OFF);
// 2016 
// 2017 #if defined ( ZBIT )
// 2018     SIM_SetColor(0xd0ffd0);
// 2019 #endif
// 2020 
// 2021     if ( devState == DEV_HOLD )
// 2022     {
// 2023       // Began with HOLD_AUTO_START
// 2024       devState = DEV_COORD_STARTING;
// 2025     }
// 2026   }
// 2027 #if defined(BLINK_LEDS)
// 2028   else
// 2029   {
// 2030     HalLedSet ( HAL_LED_3, HAL_LED_MODE_FLASH );  // Flash LED to show failure
// 2031   }
// 2032 #endif
// 2033 
// 2034   osal_set_event( ZDAppTaskID, ZDO_NETWORK_START );
// 2035 }
// 2036 
// 2037 /*********************************************************************
// 2038  * @fn          ZDO_StartRouterConfirmCB
// 2039  *
// 2040  * @brief       This function reports the results of the request to
// 2041  *              start functioning as a router in a network.
// 2042  *
// 2043  * @param       Status - Result of NLME_StartRouterRequest()
// 2044  *
// 2045  * @return      none
// 2046  */
// 2047 void ZDO_StartRouterConfirmCB( ZStatus_t Status )
// 2048 {
// 2049   nwkStatus = (byte)Status;
// 2050 
// 2051   if ( Status == ZSUCCESS )
// 2052   {
// 2053     // LED on shows Router started
// 2054     HalLedSet ( HAL_LED_3, HAL_LED_MODE_ON );
// 2055     // LED off forgets HOLD_AUTO_START
// 2056     HalLedSet ( HAL_LED_4, HAL_LED_MODE_OFF);
// 2057     if ( devState == DEV_HOLD )
// 2058     {
// 2059       // Began with HOLD_AUTO_START
// 2060       devState = DEV_END_DEVICE;
// 2061     }
// 2062   }
// 2063 #if defined(BLINK_LEDS)
// 2064   else
// 2065   {
// 2066     HalLedSet( HAL_LED_3, HAL_LED_MODE_FLASH );  // Flash LED to show failure
// 2067   }
// 2068 #endif
// 2069 
// 2070   osal_set_event( ZDAppTaskID, ZDO_ROUTER_START );
// 2071 }
// 2072 
// 2073 /*********************************************************************
// 2074  * @fn          ZDO_JoinConfirmCB
// 2075  *
// 2076  * @brief       This function allows the next hight layer to be notified
// 2077  *              of the results of its request to join itself or another
// 2078  *              device to a network.
// 2079  *
// 2080  * @param       Status - Result of NLME_JoinRequest()
// 2081  *
// 2082  * @return      none
// 2083  */
// 2084 void ZDO_JoinConfirmCB( uint16 PanId, ZStatus_t Status )
// 2085 {
// 2086   (void)PanId;  // remove if this parameter is used.
// 2087 
// 2088   nwkStatus = (byte)Status;
// 2089 
// 2090   if ( Status == ZSUCCESS )
// 2091   {
// 2092     // LED on shows device joined
// 2093     HalLedSet ( HAL_LED_3, HAL_LED_MODE_ON );
// 2094     // LED off forgets HOLD_AUTO_START
// 2095     HalLedSet ( HAL_LED_4, HAL_LED_MODE_OFF);
// 2096     if ( (devState == DEV_HOLD) )
// 2097     {
// 2098       // Began with HOLD_AUTO_START
// 2099       devState = DEV_NWK_JOINING;
// 2100     }
// 2101 
// 2102     if ( !ZG_SECURE_ENABLED )
// 2103     {
// 2104       // Notify to save info into NV
// 2105       ZDApp_NVUpdate();
// 2106     }
// 2107   }
// 2108   else
// 2109   {
// 2110 #if defined(BLINK_LEDS)
// 2111     HalLedSet ( HAL_LED_3, HAL_LED_MODE_FLASH );  // Flash LED to show failure
// 2112 #endif
// 2113   }
// 2114 
// 2115   // Notify ZDApp
// 2116   ZDApp_SendMsg( ZDAppTaskID, ZDO_NWK_JOIN_IND, sizeof(osal_event_hdr_t), (byte*)NULL );
// 2117 }
// 2118 
// 2119 /*********************************************************************
// 2120  * @fn          ZDO_AddrChangeIndicationCB
// 2121  *
// 2122  * @brief       This function notifies the application that this
// 2123  *              device's address has changed.  Could happen in
// 2124  *              a network with stochastic addressing (PRO).
// 2125  *
// 2126  * @param       newAddr - the new address
// 2127  *
// 2128  * @return      none
// 2129  */
// 2130 void ZDO_AddrChangeIndicationCB( uint16 newAddr )
// 2131 {
// 2132   (void)newAddr;  // remove if this parameter is used
// 2133 
// 2134   // Notify to save info into NV
// 2135   ZDApp_NVUpdate();
// 2136 
// 2137   // Notify the applications
// 2138   osal_set_event( ZDAppTaskID, ZDO_STATE_CHANGE_EVT );
// 2139 
// 2140   // Send out a device announce
// 2141   ZDApp_AnnounceNewAddress();
// 2142 }
// 2143 
// 2144 /*********************************************************************
// 2145  * @fn          ZDO_JoinIndicationCB
// 2146  *
// 2147  * @brief       This function allows the next higher layer of a
// 2148  *              coordinator to be notified of a remote join request.
// 2149  *
// 2150  * @param       ShortAddress - 16-bit address
// 2151  * @param       ExtendedAddress - IEEE (64-bit) address
// 2152  * @param       CapabilityFlags - Association Capability Flags
// 2153  * @param       type - of joining -
// 2154  *                          NWK_ASSOC_JOIN
// 2155  *                          NWK_ASSOC_REJOIN_UNSECURE
// 2156  *                          NWK_ASSOC_REJOIN_SECURE
// 2157  *
// 2158  * @return      ZStatus_t
// 2159  */
// 2160 ZStatus_t ZDO_JoinIndicationCB(uint16 ShortAddress, uint8 *ExtendedAddress,
// 2161                                 uint8 CapabilityFlags, uint8 type)
// 2162 {
// 2163   (void)ShortAddress;
// 2164   (void)ExtendedAddress;
// 2165 #if ZDO_NV_SAVE_RFDs
// 2166   (void)CapabilityFlags;
// 2167 
// 2168 #else  // if !ZDO_NV_SAVE_RFDs
// 2169   if (CapabilityFlags & CAPINFO_DEVICETYPE_FFD)
// 2170 #endif
// 2171   {
// 2172     ZDApp_NVUpdate();  // Notify to save info into NV.
// 2173   }
// 2174 
// 2175   if (ZG_SECURE_ENABLED)  // Send notification to TC of new device.
// 2176   {
// 2177     if (type == NWK_ASSOC_JOIN || type == NWK_ASSOC_REJOIN_UNSECURE)
// 2178     {
// 2179       osal_start_timerEx( ZDAppTaskID, ZDO_NEW_DEVICE, 600 );
// 2180     }
// 2181   }
// 2182 
// 2183   return ZSuccess;
// 2184 }
// 2185 
// 2186 /*********************************************************************
// 2187  * @fn          ZDO_ConcentratorIndicationCB
// 2188  *
// 2189  * @brief       This function allows the next higher layer of a
// 2190  *              device to be notified of existence of the concentrator.
// 2191  *
// 2192  * @param       nwkAddr - 16-bit NWK address of the concentrator
// 2193  * @param       extAddr - pointer to extended Address
// 2194  *                        NULL if not available
// 2195  * @param       pktCost - PktCost from RREQ
// 2196  *
// 2197  * @return      void
// 2198  */

        RSEG BANKED_CODE:CODE:NOROOT(0)
?Subroutine17:
        CFI Block cfiBlock86 Using cfiCommon0
        CFI NoFunction
        CFI CFA_SP SP+-5
        CFI CFA_XSP16 add(XSP16, 5)
        CFI DPL0 Frame(CFA_SP, 4)
        CFI DPH0 Frame(CFA_SP, 5)
        MOV     A,#0x5
        LCALL   ?DEALLOC_XSTACK8
        CFI EndBlock cfiBlock86
        REQUIRE ??Subroutine29_0
        ; // Fall through to label ??Subroutine29_0

        RSEG BANKED_CODE:CODE:NOROOT(0)
??Subroutine29_0:
        CFI Block cfiBlock87 Using cfiCommon0
        CFI NoFunction
        CFI CFA_SP SP+-5
        CFI DPL0 Frame(CFA_SP, 4)
        CFI DPH0 Frame(CFA_SP, 5)
        POP     DPH
        CFI CFA_SP SP+-4
        CFI DPH0 SameValue
        POP     DPL
        CFI CFA_SP SP+-3
        CFI DPL0 SameValue
        LJMP    ?BRET
        CFI EndBlock cfiBlock87

        RSEG BANKED_CODE:CODE:NOROOT(0)
ZDApp_LeaveUpdate:
        CFI Block cfiBlock88 Using cfiCommon0
        CFI Function ZDApp_LeaveUpdate
        ; Saved register size: 0
        ; Auto size: 0
        LJMP    ?BRET
        CFI EndBlock cfiBlock88

        RSEG BANKED_CODE:CODE:NOROOT(0)
ZDApp_SendEventMsg:
        CFI Block cfiBlock89 Using cfiCommon0
        CFI Function ZDApp_SendEventMsg
        FUNCALL ZDApp_SendEventMsg, ZDApp_SendMsg
        LOCFRAME ISTACK, 2, STACK
        LOCFRAME PSTACK, 0, STACK
        LOCFRAME XSTACK, 0, STACK
        LOCFRAME IOVERLAY, 0, STATIC
        LOCFRAME DOVERLAY, 0, STATIC
        ARGFRAME ISTACK, 2, STACK
        ARGFRAME PSTACK, 0, STACK
        ARGFRAME XSTACK, 0, STACK
        ARGFRAME IOVERLAY, 0, STATIC
        ARGFRAME DOVERLAY, 0, STATIC
        PUSH    DPL
        CFI DPL0 Frame(CFA_SP, 4)
        CFI CFA_SP SP+-4
        PUSH    DPH
        CFI DPH0 Frame(CFA_SP, 5)
        CFI CFA_SP SP+-5
        ; Saved register size: 2
        ; Auto size: 0
        ; Setup parameters for call to function ZDApp_SendMsg
        MOV     A,R2
        MOV     R3,A
        MOV     A,R1
        MOV     R2,A
        CFI EndBlock cfiBlock89
        REQUIRE ?Subroutine24
        ; // Fall through to label ?Subroutine24

        RSEG BANKED_CODE:CODE:NOROOT(0)
?Subroutine24:
        CFI Block cfiBlock90 Using cfiCommon0
        CFI NoFunction
        CFI CFA_SP SP+-5
        CFI DPL0 Frame(CFA_SP, 4)
        CFI DPH0 Frame(CFA_SP, 5)
        LCALL   ?Subroutine6 & 0xFFFF
??CrossCallReturnLabel_28:
        SJMP    ??Subroutine29_0
        CFI EndBlock cfiBlock90

        RSEG BANKED_CODE:CODE:NOROOT(0)
ZDApp_SendMsg:
        CFI Block cfiBlock91 Using cfiCommon0
        CFI Function ZDApp_SendMsg
        FUNCALL ZDApp_SendMsg, osal_msg_allocate
        LOCFRAME ISTACK, 0, STACK
        LOCFRAME PSTACK, 0, STACK
        LOCFRAME XSTACK, 20, STACK
        LOCFRAME IOVERLAY, 0, STATIC
        LOCFRAME DOVERLAY, 0, STATIC
        ARGFRAME ISTACK, 0, STACK
        ARGFRAME PSTACK, 0, STACK
        ARGFRAME XSTACK, 20, STACK
        ARGFRAME IOVERLAY, 0, STATIC
        ARGFRAME DOVERLAY, 0, STATIC
        FUNCALL ZDApp_SendMsg, osal_memcpy
        LOCFRAME ISTACK, 0, STACK
        LOCFRAME PSTACK, 0, STACK
        LOCFRAME XSTACK, 23, STACK
        LOCFRAME IOVERLAY, 0, STATIC
        LOCFRAME DOVERLAY, 0, STATIC
        ARGFRAME ISTACK, 0, STACK
        ARGFRAME PSTACK, 0, STACK
        ARGFRAME XSTACK, 23, STACK
        ARGFRAME IOVERLAY, 0, STATIC
        ARGFRAME DOVERLAY, 0, STATIC
        FUNCALL ZDApp_SendMsg, osal_msg_send
        LOCFRAME ISTACK, 0, STACK
        LOCFRAME PSTACK, 0, STACK
        LOCFRAME XSTACK, 20, STACK
        LOCFRAME IOVERLAY, 0, STATIC
        LOCFRAME DOVERLAY, 0, STATIC
        ARGFRAME ISTACK, 0, STACK
        ARGFRAME PSTACK, 0, STACK
        ARGFRAME XSTACK, 20, STACK
        ARGFRAME IOVERLAY, 0, STATIC
        ARGFRAME DOVERLAY, 0, STATIC
        MOV     A,#-0x14
        LCALL   ?BANKED_ENTER_XDATA
        CFI DPH0 load(1, XDATA, add(CFA_XSP16, literal(-1)))
        CFI DPL0 load(1, XDATA, add(CFA_XSP16, literal(-2)))
        CFI ?BRET_EXT load(1, XDATA, add(CFA_XSP16, literal(-3)))
        CFI ?RET_HIGH load(1, XDATA, add(CFA_XSP16, literal(-4)))
        CFI ?RET_LOW load(1, XDATA, add(CFA_XSP16, literal(-5)))
        CFI R7 load(1, XDATA, add(CFA_XSP16, literal(-6)))
        CFI V11 load(1, XDATA, add(CFA_XSP16, literal(-7)))
        CFI V10 load(1, XDATA, add(CFA_XSP16, literal(-8)))
        CFI V9 load(1, XDATA, add(CFA_XSP16, literal(-9)))
        CFI V8 load(1, XDATA, add(CFA_XSP16, literal(-10)))
        CFI V7 load(1, XDATA, add(CFA_XSP16, literal(-11)))
        CFI V6 load(1, XDATA, add(CFA_XSP16, literal(-12)))
        CFI V5 load(1, XDATA, add(CFA_XSP16, literal(-13)))
        CFI V4 load(1, XDATA, add(CFA_XSP16, literal(-14)))
        CFI V3 load(1, XDATA, add(CFA_XSP16, literal(-15)))
        CFI V2 load(1, XDATA, add(CFA_XSP16, literal(-16)))
        CFI V1 load(1, XDATA, add(CFA_XSP16, literal(-17)))
        CFI V0 load(1, XDATA, add(CFA_XSP16, literal(-18)))
        CFI VB load(1, XDATA, add(CFA_XSP16, literal(-19)))
        CFI R6 load(1, XDATA, add(CFA_XSP16, literal(-20)))
        CFI CFA_SP SP+0
        CFI CFA_XSP16 add(XSP16, 20)
        ; Saved register size: 20
        ; Auto size: 0
        MOV     ?V0 + 7,R1
        MOV     ?V0 + 8,R2
        MOV     ?V0 + 4,R3
        MOV     ?V0 + 2,R4
        MOV     ?V0 + 3,R5
        MOV     DPL,R3
        MOV     ?V0 + 0,DPL
        ; Setup parameters for call to function osal_msg_allocate
        MOV     R2,?V0 + 0
        MOV     R3,#0x0
        LCALL   ??osal_msg_allocate?relay
        MOV     ?V0 + 10,R2
        MOV     ?V0 + 11,R3
        MOV     R6,?V0 + 10
        MOV     R7,?V0 + 11
        MOV     A,R6
        JNZ     ??ZDApp_SendMsg_0
        MOV     A,R7
??ZDApp_SendMsg_0:
        JZ      ??ZDApp_SendMsg_1
        MOV     A,?V0 + 4
        JZ      ??ZDApp_SendMsg_2
        MOV     A,?V0 + 2
        JNZ     ??ZDApp_SendMsg_3
        MOV     A,?V0 + 3
??ZDApp_SendMsg_3:
        JZ      ??ZDApp_SendMsg_2
        ; Setup parameters for call to function osal_memcpy
        MOV     ?V0 + 4,?V0 + 2
        MOV     ?V0 + 5,?V0 + 3
        MOV     ?V0 + 6,#0x0
        MOV     R0,#?V0 + 4
        LCALL   ?PUSH_XSTACK_I_THREE
        CFI CFA_XSP16 add(XSP16, 23)
        MOV     R4,?V0 + 0
        MOV     R5,#0x0
        LCALL   ??osal_memcpy?relay
        MOV     A,#0x3
        LCALL   ?DEALLOC_XSTACK8
        CFI CFA_XSP16 add(XSP16, 20)
??ZDApp_SendMsg_2:
        MOV     DPL,R6
        MOV     DPH,R7
        MOV     A,?V0 + 8
        MOVX    @DPTR,A
        ; Setup parameters for call to function osal_msg_send
        MOV     A,R6
        MOV     R2,A
        MOV     A,R7
        MOV     R3,A
        MOV     R1,?V0 + 7
        LCALL   ??osal_msg_send?relay
??ZDApp_SendMsg_1:
        MOV     R7,#0xc
        LJMP    ?BANKED_LEAVE_XDATA
        CFI EndBlock cfiBlock91

        RSEG BANKED_CODE:CODE:NOROOT(0)
ZDO_NetworkDiscoveryConfirmCB:
        CFI Block cfiBlock92 Using cfiCommon0
        CFI Function ZDO_NetworkDiscoveryConfirmCB
        FUNCALL ZDO_NetworkDiscoveryConfirmCB, nwk_ExtPANIDValid
        LOCFRAME ISTACK, 0, STACK
        LOCFRAME PSTACK, 0, STACK
        LOCFRAME XSTACK, 32, STACK
        LOCFRAME IOVERLAY, 0, STATIC
        LOCFRAME DOVERLAY, 0, STATIC
        ARGFRAME ISTACK, 0, STACK
        ARGFRAME PSTACK, 0, STACK
        ARGFRAME XSTACK, 32, STACK
        ARGFRAME IOVERLAY, 0, STATIC
        ARGFRAME DOVERLAY, 0, STATIC
        FUNCALL ZDO_NetworkDiscoveryConfirmCB, sAddrExtCmp
        LOCFRAME ISTACK, 0, STACK
        LOCFRAME PSTACK, 0, STACK
        LOCFRAME XSTACK, 32, STACK
        LOCFRAME IOVERLAY, 0, STATIC
        LOCFRAME DOVERLAY, 0, STATIC
        ARGFRAME ISTACK, 0, STACK
        ARGFRAME PSTACK, 0, STACK
        ARGFRAME XSTACK, 32, STACK
        ARGFRAME IOVERLAY, 0, STATIC
        ARGFRAME DOVERLAY, 0, STATIC
        FUNCALL ZDO_NetworkDiscoveryConfirmCB, sAddrExtCpy
        LOCFRAME ISTACK, 0, STACK
        LOCFRAME PSTACK, 0, STACK
        LOCFRAME XSTACK, 32, STACK
        LOCFRAME IOVERLAY, 0, STATIC
        LOCFRAME DOVERLAY, 0, STATIC
        ARGFRAME ISTACK, 0, STACK
        ARGFRAME PSTACK, 0, STACK
        ARGFRAME XSTACK, 32, STACK
        ARGFRAME IOVERLAY, 0, STATIC
        ARGFRAME DOVERLAY, 0, STATIC
        FUNCALL ZDO_NetworkDiscoveryConfirmCB, ZDApp_SendMsg
        LOCFRAME ISTACK, 0, STACK
        LOCFRAME PSTACK, 0, STACK
        LOCFRAME XSTACK, 32, STACK
        LOCFRAME IOVERLAY, 0, STATIC
        LOCFRAME DOVERLAY, 0, STATIC
        ARGFRAME ISTACK, 0, STACK
        ARGFRAME PSTACK, 0, STACK
        ARGFRAME XSTACK, 32, STACK
        ARGFRAME IOVERLAY, 0, STATIC
        ARGFRAME DOVERLAY, 0, STATIC
        MOV     A,#-0x12
        LCALL   ?BANKED_ENTER_XDATA
        CFI DPH0 load(1, XDATA, add(CFA_XSP16, literal(-1)))
        CFI DPL0 load(1, XDATA, add(CFA_XSP16, literal(-2)))
        CFI ?BRET_EXT load(1, XDATA, add(CFA_XSP16, literal(-3)))
        CFI ?RET_HIGH load(1, XDATA, add(CFA_XSP16, literal(-4)))
        CFI ?RET_LOW load(1, XDATA, add(CFA_XSP16, literal(-5)))
        CFI R7 load(1, XDATA, add(CFA_XSP16, literal(-6)))
        CFI V9 load(1, XDATA, add(CFA_XSP16, literal(-7)))
        CFI V8 load(1, XDATA, add(CFA_XSP16, literal(-8)))
        CFI V7 load(1, XDATA, add(CFA_XSP16, literal(-9)))
        CFI V6 load(1, XDATA, add(CFA_XSP16, literal(-10)))
        CFI V5 load(1, XDATA, add(CFA_XSP16, literal(-11)))
        CFI V4 load(1, XDATA, add(CFA_XSP16, literal(-12)))
        CFI V3 load(1, XDATA, add(CFA_XSP16, literal(-13)))
        CFI V2 load(1, XDATA, add(CFA_XSP16, literal(-14)))
        CFI V1 load(1, XDATA, add(CFA_XSP16, literal(-15)))
        CFI V0 load(1, XDATA, add(CFA_XSP16, literal(-16)))
        CFI VB load(1, XDATA, add(CFA_XSP16, literal(-17)))
        CFI R6 load(1, XDATA, add(CFA_XSP16, literal(-18)))
        CFI CFA_SP SP+0
        CFI CFA_XSP16 add(XSP16, 18)
        ; Saved register size: 18
        ; Auto size: 14
        MOV     A,#-0xe
        LCALL   ?ALLOC_XSTACK8
        CFI CFA_XSP16 add(XSP16, 32)
        MOV     ?V0 + 7,R1
        MOV     ?V0 + 4,R2
        MOV     ?V0 + 5,R3
        MOV     ?V0 + 8,#0x0
        MOV     ?V0 + 6,#0x0
??ZDO_NetworkDiscoveryConfirmCB_0:
        MOV     R6,?V0 + 4
        MOV     R7,?V0 + 5
        MOV     ?V0 + 9,#0x0
        SJMP    ??ZDO_NetworkDiscoveryConfirmCB_1
??ZDO_NetworkDiscoveryConfirmCB_2:
        MOVX    A,@DPTR
        XRL     A,#0x2
        JNZ     ??ZDO_NetworkDiscoveryConfirmCB_3
        MOV     A,#0x1
        XRL     A,R2
        JNZ     ??ZDO_NetworkDiscoveryConfirmCB_3
??ZDO_NetworkDiscoveryConfirmCB_4:
        MOV     ?V0 + 8,#0x1
??ZDO_NetworkDiscoveryConfirmCB_3:
        MOV     A,?V0 + 6
        JZ      $+5
        LJMP    ??ZDO_NetworkDiscoveryConfirmCB_5 & 0xFFFF
??ZDO_NetworkDiscoveryConfirmCB_6:
        INC     ?V0 + 9
        MOV     A,R6
        ADD     A,#0x16
        LCALL   ??Subroutine30_0 & 0xFFFF
??CrossCallReturnLabel_43:
        MOV     R6,A
        INC     DPTR
        MOVX    A,@DPTR
        MOV     R7,A
??ZDO_NetworkDiscoveryConfirmCB_1:
        MOV     A,R6
        ADD     A,#0x7
        MOV     ?V0 + 0,A
        MOV     A,R7
        ADDC    A,#0x0
        MOV     ?V0 + 1,A
        MOV     A,R6
        ADD     A,#0xd
        MOV     ?V0 + 2,A
        MOV     A,R7
        ADDC    A,#0x0
        MOV     ?V0 + 3,A
        MOV     A,?V0 + 9
        CLR     C
        SUBB    A,?V0 + 7
        JNC     ??ZDO_NetworkDiscoveryConfirmCB_7
        MOV     DPTR,#zgConfigPANID
        MOVX    A,@DPTR
        XRL     A,#0xff
        JNZ     ??ZDO_NetworkDiscoveryConfirmCB_8
        INC     DPTR
        MOVX    A,@DPTR
        XRL     A,#0xff
??ZDO_NetworkDiscoveryConfirmCB_8:
        JZ      ??ZDO_NetworkDiscoveryConfirmCB_9
        MOV     DPL,R6
        MOV     DPH,R7
        LCALL   ?Subroutine9 & 0xFFFF
??CrossCallReturnLabel_7:
        MOV     DPTR,#zgConfigPANID
        MOVX    A,@DPTR
        XRL     A,R0
        JNZ     ??ZDO_NetworkDiscoveryConfirmCB_10
        INC     DPTR
        MOVX    A,@DPTR
        XRL     A,R1
??ZDO_NetworkDiscoveryConfirmCB_10:
        JNZ     ??ZDO_NetworkDiscoveryConfirmCB_6
??ZDO_NetworkDiscoveryConfirmCB_9:
        ; Setup parameters for call to function nwk_ExtPANIDValid
        MOV     R2,#(ZDO_UseExtendedPANID & 0xff)
        MOV     R3,#((ZDO_UseExtendedPANID >> 8) & 0xff)
        LCALL   ??nwk_ExtPANIDValid?relay
        MOV     A,R1
        XRL     A,#0x1
        JNZ     ??ZDO_NetworkDiscoveryConfirmCB_11
        ; Setup parameters for call to function sAddrExtCmp
        MOV     R4,?V0 + 2
        MOV     R5,?V0 + 3
        MOV     R2,#(ZDO_UseExtendedPANID & 0xff)
        MOV     R3,#((ZDO_UseExtendedPANID >> 8) & 0xff)
        LCALL   ??sAddrExtCmp?relay
        MOV     A,R1
        JZ      ??ZDO_NetworkDiscoveryConfirmCB_6
??ZDO_NetworkDiscoveryConfirmCB_11:
        MOV     DPL,R6
        MOV     DPH,R7
        INC     DPTR
        INC     DPTR
        INC     DPTR
        INC     DPTR
        INC     DPTR
        INC     DPTR
        MOVX    A,@DPTR
        JZ      ??ZDO_NetworkDiscoveryConfirmCB_6
        MOV     DPL,?V0 + 0
        MOV     DPH,?V0 + 1
        MOVX    A,@DPTR
        MOV     R2,A
        MOV     DPTR,#(_NIB + 17)
        MOVX    A,@DPTR
        XRL     A,R2
        JNZ     ??ZDO_NetworkDiscoveryConfirmCB_6
        MOV     DPL,R6
        MOV     DPH,R7
        INC     DPTR
        INC     DPTR
        INC     DPTR
        INC     DPTR
        INC     DPTR
        INC     DPTR
        INC     DPTR
        INC     DPTR
        MOVX    A,@DPTR
        MOV     R2,A
        MOV     DPTR,#zgStackProfile
        MOVX    A,@DPTR
        XRL     A,R2
        JZ      ??ZDO_NetworkDiscoveryConfirmCB_5
        MOVX    A,@DPTR
        XRL     A,#0x1
        JZ      $+5
        LJMP    ??ZDO_NetworkDiscoveryConfirmCB_2 & 0xFFFF
        MOV     A,#0x2
        XRL     A,R2
        JZ      $+5
        LJMP    ??ZDO_NetworkDiscoveryConfirmCB_3 & 0xFFFF
        LJMP    ??ZDO_NetworkDiscoveryConfirmCB_4 & 0xFFFF
??ZDO_NetworkDiscoveryConfirmCB_7:
        MOV     A,?V0 + 8
        JZ      ??ZDO_NetworkDiscoveryConfirmCB_12
        INC     ?V0 + 6
        MOV     A,?V0 + 6
        CLR     C
        SUBB    A,#0x2
        JNC     $+5
        LJMP    ??ZDO_NetworkDiscoveryConfirmCB_0 & 0xFFFF
??ZDO_NetworkDiscoveryConfirmCB_12:
        MOV     A,?V0 + 7
        XRL     A,?V0 + 9
        JNZ     ??ZDO_NetworkDiscoveryConfirmCB_5
        MOV     A,#0x1
        LCALL   ?XSTACK_DISP0_8
        MOV     A,#0x1
        MOVX    @DPTR,A
        SJMP    ??ZDO_NetworkDiscoveryConfirmCB_13
??ZDO_NetworkDiscoveryConfirmCB_5:
        MOV     A,#0x1
        LCALL   ?XSTACK_DISP0_8
        CLR     A
        MOVX    @DPTR,A
        MOV     DPL,R6
        MOV     DPH,R7
        MOVX    A,@DPTR
        PUSH    A
        CFI CFA_SP SP+-1
        MOV     A,#0x2
        LCALL   ?XSTACK_DISP0_8
        POP     A
        CFI CFA_SP SP+0
        MOVX    @DPTR,A
        MOV     DPL,R6
        MOV     DPH,R7
        INC     DPTR
        MOVX    A,@DPTR
        PUSH    A
        CFI CFA_SP SP+-1
        MOV     A,#0x3
        LCALL   ?XSTACK_DISP0_8
        POP     A
        CFI CFA_SP SP+0
        MOVX    @DPTR,A
        MOV     DPL,R6
        MOV     DPH,R7
        INC     DPTR
        INC     DPTR
        MOVX    A,@DPTR
        PUSH    A
        CFI CFA_SP SP+-1
        MOV     A,#0x4
        LCALL   ?XSTACK_DISP0_8
        POP     A
        CFI CFA_SP SP+0
        MOVX    @DPTR,A
        MOV     DPL,?V0 + 0
        MOV     DPH,?V0 + 1
        MOVX    A,@DPTR
        PUSH    A
        CFI CFA_SP SP+-1
        MOV     A,#0x5
        LCALL   ?XSTACK_DISP0_8
        POP     A
        CFI CFA_SP SP+0
        MOVX    @DPTR,A
        ; Setup parameters for call to function sAddrExtCpy
        MOV     R4,?V0 + 2
        MOV     R5,?V0 + 3
        MOV     A,#0x6
        LCALL   ?XSTACK_DISP0_8
        MOV     R2,DPL
        MOV     R3,DPH
        LCALL   ??sAddrExtCpy?relay
??ZDO_NetworkDiscoveryConfirmCB_13:
        ; Setup parameters for call to function ZDApp_SendMsg
        MOV     DPL,?XSP + 0
        MOV     DPH,?XSP + 1
        MOV     R4,DPL
        MOV     R5,DPH
        MOV     R3,#0xe
        MOV     R2,#0x1
        LCALL   ?Subroutine6 & 0xFFFF
??CrossCallReturnLabel_29:
        MOV     R1,#0x0
        MOV     A,#0xe
        LCALL   ?DEALLOC_XSTACK8
        CFI CFA_XSP16 add(XSP16, 18)
        MOV     R7,#0xa
        LJMP    ?BANKED_LEAVE_XDATA
        CFI EndBlock cfiBlock92

        RSEG BANKED_CODE:CODE:NOROOT(0)
ZDO_NetworkFormationConfirmCB:
        CFI Block cfiBlock93 Using cfiCommon0
        CFI Function ZDO_NetworkFormationConfirmCB
        FUNCALL ZDO_NetworkFormationConfirmCB, HalLedSet
        LOCFRAME ISTACK, 2, STACK
        LOCFRAME PSTACK, 0, STACK
        LOCFRAME XSTACK, 0, STACK
        LOCFRAME IOVERLAY, 0, STATIC
        LOCFRAME DOVERLAY, 0, STATIC
        ARGFRAME ISTACK, 2, STACK
        ARGFRAME PSTACK, 0, STACK
        ARGFRAME XSTACK, 0, STACK
        ARGFRAME IOVERLAY, 0, STATIC
        ARGFRAME DOVERLAY, 0, STATIC
        FUNCALL ZDO_NetworkFormationConfirmCB, HalLedSet
        LOCFRAME ISTACK, 2, STACK
        LOCFRAME PSTACK, 0, STACK
        LOCFRAME XSTACK, 0, STACK
        LOCFRAME IOVERLAY, 0, STATIC
        LOCFRAME DOVERLAY, 0, STATIC
        ARGFRAME ISTACK, 2, STACK
        ARGFRAME PSTACK, 0, STACK
        ARGFRAME XSTACK, 0, STACK
        ARGFRAME IOVERLAY, 0, STATIC
        ARGFRAME DOVERLAY, 0, STATIC
        FUNCALL ZDO_NetworkFormationConfirmCB, HalLedSet
        LOCFRAME ISTACK, 2, STACK
        LOCFRAME PSTACK, 0, STACK
        LOCFRAME XSTACK, 0, STACK
        LOCFRAME IOVERLAY, 0, STATIC
        LOCFRAME DOVERLAY, 0, STATIC
        ARGFRAME ISTACK, 2, STACK
        ARGFRAME PSTACK, 0, STACK
        ARGFRAME XSTACK, 0, STACK
        ARGFRAME IOVERLAY, 0, STATIC
        ARGFRAME DOVERLAY, 0, STATIC
        FUNCALL ZDO_NetworkFormationConfirmCB, osal_set_event
        LOCFRAME ISTACK, 2, STACK
        LOCFRAME PSTACK, 0, STACK
        LOCFRAME XSTACK, 0, STACK
        LOCFRAME IOVERLAY, 0, STATIC
        LOCFRAME DOVERLAY, 0, STATIC
        ARGFRAME ISTACK, 2, STACK
        ARGFRAME PSTACK, 0, STACK
        ARGFRAME XSTACK, 0, STACK
        ARGFRAME IOVERLAY, 0, STATIC
        ARGFRAME DOVERLAY, 0, STATIC
        PUSH    DPL
        CFI DPL0 Frame(CFA_SP, 4)
        CFI CFA_SP SP+-4
        PUSH    DPH
        CFI DPH0 Frame(CFA_SP, 5)
        CFI CFA_SP SP+-5
        ; Saved register size: 2
        ; Auto size: 0
        MOV     A,R1
        MOV     DPTR,#nwkStatus
        MOVX    @DPTR,A
        JNZ     ??ZDO_NetworkFormationConfirmCB_0
        ; Setup parameters for call to function HalLedSet
        LCALL   ?Subroutine15 & 0xFFFF
??CrossCallReturnLabel_18:
        JNZ     ??ZDO_NetworkFormationConfirmCB_1
        MOV     A,#0x8
        MOVX    @DPTR,A
        SJMP    ??ZDO_NetworkFormationConfirmCB_1
??ZDO_NetworkFormationConfirmCB_0:
        ; Setup parameters for call to function HalLedSet
        MOV     R2,#0x4
        MOV     R1,#0x4
        LCALL   ??HalLedSet?relay
??ZDO_NetworkFormationConfirmCB_1:
        ; Setup parameters for call to function osal_set_event
        MOV     R2,#0x2
        LJMP    ?Subroutine23 & 0xFFFF
        CFI EndBlock cfiBlock93

        RSEG BANKED_CODE:CODE:NOROOT(0)
ZDO_StartRouterConfirmCB:
        CFI Block cfiBlock94 Using cfiCommon0
        CFI Function ZDO_StartRouterConfirmCB
        FUNCALL ZDO_StartRouterConfirmCB, HalLedSet
        LOCFRAME ISTACK, 2, STACK
        LOCFRAME PSTACK, 0, STACK
        LOCFRAME XSTACK, 0, STACK
        LOCFRAME IOVERLAY, 0, STATIC
        LOCFRAME DOVERLAY, 0, STATIC
        ARGFRAME ISTACK, 2, STACK
        ARGFRAME PSTACK, 0, STACK
        ARGFRAME XSTACK, 0, STACK
        ARGFRAME IOVERLAY, 0, STATIC
        ARGFRAME DOVERLAY, 0, STATIC
        FUNCALL ZDO_StartRouterConfirmCB, HalLedSet
        LOCFRAME ISTACK, 2, STACK
        LOCFRAME PSTACK, 0, STACK
        LOCFRAME XSTACK, 0, STACK
        LOCFRAME IOVERLAY, 0, STATIC
        LOCFRAME DOVERLAY, 0, STATIC
        ARGFRAME ISTACK, 2, STACK
        ARGFRAME PSTACK, 0, STACK
        ARGFRAME XSTACK, 0, STACK
        ARGFRAME IOVERLAY, 0, STATIC
        ARGFRAME DOVERLAY, 0, STATIC
        FUNCALL ZDO_StartRouterConfirmCB, HalLedSet
        LOCFRAME ISTACK, 2, STACK
        LOCFRAME PSTACK, 0, STACK
        LOCFRAME XSTACK, 0, STACK
        LOCFRAME IOVERLAY, 0, STATIC
        LOCFRAME DOVERLAY, 0, STATIC
        ARGFRAME ISTACK, 2, STACK
        ARGFRAME PSTACK, 0, STACK
        ARGFRAME XSTACK, 0, STACK
        ARGFRAME IOVERLAY, 0, STATIC
        ARGFRAME DOVERLAY, 0, STATIC
        FUNCALL ZDO_StartRouterConfirmCB, osal_set_event
        LOCFRAME ISTACK, 2, STACK
        LOCFRAME PSTACK, 0, STACK
        LOCFRAME XSTACK, 0, STACK
        LOCFRAME IOVERLAY, 0, STATIC
        LOCFRAME DOVERLAY, 0, STATIC
        ARGFRAME ISTACK, 2, STACK
        ARGFRAME PSTACK, 0, STACK
        ARGFRAME XSTACK, 0, STACK
        ARGFRAME IOVERLAY, 0, STATIC
        ARGFRAME DOVERLAY, 0, STATIC
        PUSH    DPL
        CFI DPL0 Frame(CFA_SP, 4)
        CFI CFA_SP SP+-4
        PUSH    DPH
        CFI DPH0 Frame(CFA_SP, 5)
        CFI CFA_SP SP+-5
        ; Saved register size: 2
        ; Auto size: 0
        MOV     A,R1
        MOV     DPTR,#nwkStatus
        MOVX    @DPTR,A
        JNZ     ??ZDO_StartRouterConfirmCB_0
        ; Setup parameters for call to function HalLedSet
        LCALL   ?Subroutine15 & 0xFFFF
??CrossCallReturnLabel_19:
        JNZ     ??ZDO_StartRouterConfirmCB_1
        MOV     A,#0x6
        MOVX    @DPTR,A
        SJMP    ??ZDO_StartRouterConfirmCB_1
??ZDO_StartRouterConfirmCB_0:
        ; Setup parameters for call to function HalLedSet
        MOV     R2,#0x4
        MOV     R1,#0x4
        LCALL   ??HalLedSet?relay
??ZDO_StartRouterConfirmCB_1:
        ; Setup parameters for call to function osal_set_event
        MOV     R2,#0x20
        LJMP    ?Subroutine23 & 0xFFFF
        CFI EndBlock cfiBlock94

        RSEG BANKED_CODE:CODE:NOROOT(0)
?Subroutine15:
        CFI Block cfiCond95 Using cfiCommon0
        CFI NoFunction
        CFI Conditional ??CrossCallReturnLabel_18
        CFI DPL0 Frame(CFA_SP, 4)
        CFI DPH0 Frame(CFA_SP, 5)
        CFI CFA_SP SP+-5
        CFI Block cfiCond96 Using cfiCommon0
        CFI (cfiCond96) NoFunction
        CFI (cfiCond96) Conditional ??CrossCallReturnLabel_19
        CFI (cfiCond96) DPL0 Frame(CFA_SP, 4)
        CFI (cfiCond96) DPH0 Frame(CFA_SP, 5)
        CFI (cfiCond96) CFA_SP SP+-5
        CFI Block cfiCond97 Using cfiCommon0
        CFI (cfiCond97) NoFunction
        CFI (cfiCond97) Conditional ??CrossCallReturnLabel_20
        CFI (cfiCond97) DPL0 Frame(CFA_SP, 4)
        CFI (cfiCond97) DPH0 Frame(CFA_SP, 5)
        CFI (cfiCond97) CFA_SP SP+-5
        CFI Block cfiPicker98 Using cfiCommon1
        CFI (cfiPicker98) NoFunction
        CFI (cfiPicker98) Picker
        MOV     R2,#0x1
        MOV     R1,#0x4
        LCALL   ??HalLedSet?relay
        ; Setup parameters for call to function HalLedSet
        ; Setup parameters for call to function HalLedSet
        ; Setup parameters for call to function HalLedSet
        MOV     R2,#0x0
        MOV     R1,#0x8
        LCALL   ??HalLedSet?relay
        MOV     DPTR,#devState
        MOVX    A,@DPTR
        RET
        CFI EndBlock cfiCond95
        CFI EndBlock cfiCond96
        CFI EndBlock cfiCond97
        CFI EndBlock cfiPicker98

        RSEG BANKED_CODE:CODE:NOROOT(0)
ZDO_JoinConfirmCB:
        CFI Block cfiBlock99 Using cfiCommon0
        CFI Function ZDO_JoinConfirmCB
        FUNCALL ZDO_JoinConfirmCB, HalLedSet
        LOCFRAME ISTACK, 2, STACK
        LOCFRAME PSTACK, 0, STACK
        LOCFRAME XSTACK, 0, STACK
        LOCFRAME IOVERLAY, 0, STATIC
        LOCFRAME DOVERLAY, 0, STATIC
        ARGFRAME ISTACK, 2, STACK
        ARGFRAME PSTACK, 0, STACK
        ARGFRAME XSTACK, 0, STACK
        ARGFRAME IOVERLAY, 0, STATIC
        ARGFRAME DOVERLAY, 0, STATIC
        FUNCALL ZDO_JoinConfirmCB, HalLedSet
        LOCFRAME ISTACK, 2, STACK
        LOCFRAME PSTACK, 0, STACK
        LOCFRAME XSTACK, 0, STACK
        LOCFRAME IOVERLAY, 0, STATIC
        LOCFRAME DOVERLAY, 0, STATIC
        ARGFRAME ISTACK, 2, STACK
        ARGFRAME PSTACK, 0, STACK
        ARGFRAME XSTACK, 0, STACK
        ARGFRAME IOVERLAY, 0, STATIC
        ARGFRAME DOVERLAY, 0, STATIC
        FUNCALL ZDO_JoinConfirmCB, HalLedSet
        LOCFRAME ISTACK, 2, STACK
        LOCFRAME PSTACK, 0, STACK
        LOCFRAME XSTACK, 0, STACK
        LOCFRAME IOVERLAY, 0, STATIC
        LOCFRAME DOVERLAY, 0, STATIC
        ARGFRAME ISTACK, 2, STACK
        ARGFRAME PSTACK, 0, STACK
        ARGFRAME XSTACK, 0, STACK
        ARGFRAME IOVERLAY, 0, STATIC
        ARGFRAME DOVERLAY, 0, STATIC
        FUNCALL ZDO_JoinConfirmCB, ZDApp_SendMsg
        LOCFRAME ISTACK, 2, STACK
        LOCFRAME PSTACK, 0, STACK
        LOCFRAME XSTACK, 0, STACK
        LOCFRAME IOVERLAY, 0, STATIC
        LOCFRAME DOVERLAY, 0, STATIC
        ARGFRAME ISTACK, 2, STACK
        ARGFRAME PSTACK, 0, STACK
        ARGFRAME XSTACK, 0, STACK
        ARGFRAME IOVERLAY, 0, STATIC
        ARGFRAME DOVERLAY, 0, STATIC
        PUSH    DPL
        CFI DPL0 Frame(CFA_SP, 4)
        CFI CFA_SP SP+-4
        PUSH    DPH
        CFI DPH0 Frame(CFA_SP, 5)
        CFI CFA_SP SP+-5
        ; Saved register size: 2
        ; Auto size: 0
        MOV     A,R1
        MOV     DPTR,#nwkStatus
        MOVX    @DPTR,A
        JNZ     ??ZDO_JoinConfirmCB_0
        ; Setup parameters for call to function HalLedSet
        LCALL   ?Subroutine15 & 0xFFFF
??CrossCallReturnLabel_20:
        JNZ     ??ZDO_JoinConfirmCB_1
        MOV     A,#0x3
        MOVX    @DPTR,A
        SJMP    ??ZDO_JoinConfirmCB_1
??ZDO_JoinConfirmCB_0:
        ; Setup parameters for call to function HalLedSet
        MOV     R2,#0x4
        MOV     R1,#0x4
        LCALL   ??HalLedSet?relay
??ZDO_JoinConfirmCB_1:
        ; Setup parameters for call to function ZDApp_SendMsg
        MOV     R4,#0x0
        MOV     R5,#0x0
        MOV     R3,#0x2
        MOV     R2,#0x2
        LJMP    ?Subroutine24 & 0xFFFF
        CFI EndBlock cfiBlock99

        RSEG BANKED_CODE:CODE:NOROOT(0)
?Subroutine6:
        CFI Block cfiCond100 Using cfiCommon0
        CFI NoFunction
        CFI Conditional ??CrossCallReturnLabel_28
        CFI DPL0 Frame(CFA_SP, 4)
        CFI DPH0 Frame(CFA_SP, 5)
        CFI CFA_SP SP+-5
        CFI Block cfiCond101 Using cfiCommon0
        CFI (cfiCond101) NoFunction
        CFI (cfiCond101) Conditional ??CrossCallReturnLabel_29
        CFI (cfiCond101) R6 load(1, XDATA, add(CFA_XSP16, literal(-18)))
        CFI (cfiCond101) VB load(1, XDATA, add(CFA_XSP16, literal(-17)))
        CFI (cfiCond101) V0 load(1, XDATA, add(CFA_XSP16, literal(-16)))
        CFI (cfiCond101) V1 load(1, XDATA, add(CFA_XSP16, literal(-15)))
        CFI (cfiCond101) V2 load(1, XDATA, add(CFA_XSP16, literal(-14)))
        CFI (cfiCond101) V3 load(1, XDATA, add(CFA_XSP16, literal(-13)))
        CFI (cfiCond101) V4 load(1, XDATA, add(CFA_XSP16, literal(-12)))
        CFI (cfiCond101) V5 load(1, XDATA, add(CFA_XSP16, literal(-11)))
        CFI (cfiCond101) V6 load(1, XDATA, add(CFA_XSP16, literal(-10)))
        CFI (cfiCond101) V7 load(1, XDATA, add(CFA_XSP16, literal(-9)))
        CFI (cfiCond101) V8 load(1, XDATA, add(CFA_XSP16, literal(-8)))
        CFI (cfiCond101) V9 load(1, XDATA, add(CFA_XSP16, literal(-7)))
        CFI (cfiCond101) R7 load(1, XDATA, add(CFA_XSP16, literal(-6)))
        CFI (cfiCond101) ?RET_LOW load(1, XDATA, add(CFA_XSP16, literal(-5)))
        CFI (cfiCond101) ?RET_HIGH load(1, XDATA, add(CFA_XSP16, literal(-4)))
        CFI (cfiCond101) ?BRET_EXT load(1, XDATA, add(CFA_XSP16, literal(-3)))
        CFI (cfiCond101) DPL0 load(1, XDATA, add(CFA_XSP16, literal(-2)))
        CFI (cfiCond101) DPH0 load(1, XDATA, add(CFA_XSP16, literal(-1)))
        CFI (cfiCond101) CFA_SP SP+0
        CFI (cfiCond101) CFA_XSP16 add(XSP16, 32)
        CFI Block cfiCond102 Using cfiCommon0
        CFI (cfiCond102) NoFunction
        CFI (cfiCond102) Conditional ??CrossCallReturnLabel_28
        CFI (cfiCond102) DPL0 Frame(CFA_SP, 4)
        CFI (cfiCond102) DPH0 Frame(CFA_SP, 5)
        CFI (cfiCond102) CFA_SP SP+-5
        CFI Block cfiCond103 Using cfiCommon0
        CFI (cfiCond103) NoFunction
        CFI (cfiCond103) Conditional ??CrossCallReturnLabel_30
        CFI (cfiCond103) DPL0 Frame(CFA_SP, 4)
        CFI (cfiCond103) DPH0 Frame(CFA_SP, 5)
        CFI (cfiCond103) CFA_SP SP+-5
        CFI Block cfiPicker104 Using cfiCommon1
        CFI (cfiPicker104) NoFunction
        CFI (cfiPicker104) Picker
        MOV     DPTR,#ZDAppTaskID
        MOVX    A,@DPTR
        MOV     R1,A
        LCALL   ??ZDApp_SendMsg?relay
        RET
        CFI EndBlock cfiCond100
        CFI EndBlock cfiCond101
        CFI EndBlock cfiCond102
        CFI EndBlock cfiCond103
        CFI EndBlock cfiPicker104

        RSEG BANKED_CODE:CODE:NOROOT(0)
ZDO_AddrChangeIndicationCB:
        CFI Block cfiBlock105 Using cfiCommon0
        CFI Function ZDO_AddrChangeIndicationCB
        FUNCALL ZDO_AddrChangeIndicationCB, osal_set_event
        LOCFRAME ISTACK, 2, STACK
        LOCFRAME PSTACK, 0, STACK
        LOCFRAME XSTACK, 0, STACK
        LOCFRAME IOVERLAY, 0, STATIC
        LOCFRAME DOVERLAY, 0, STATIC
        ARGFRAME ISTACK, 2, STACK
        ARGFRAME PSTACK, 0, STACK
        ARGFRAME XSTACK, 0, STACK
        ARGFRAME IOVERLAY, 0, STATIC
        ARGFRAME DOVERLAY, 0, STATIC
        FUNCALL ZDO_AddrChangeIndicationCB, ZDApp_AnnounceNewAddress
        LOCFRAME ISTACK, 2, STACK
        LOCFRAME PSTACK, 0, STACK
        LOCFRAME XSTACK, 0, STACK
        LOCFRAME IOVERLAY, 0, STATIC
        LOCFRAME DOVERLAY, 0, STATIC
        ARGFRAME ISTACK, 2, STACK
        ARGFRAME PSTACK, 0, STACK
        ARGFRAME XSTACK, 0, STACK
        ARGFRAME IOVERLAY, 0, STATIC
        ARGFRAME DOVERLAY, 0, STATIC
        PUSH    DPL
        CFI DPL0 Frame(CFA_SP, 4)
        CFI CFA_SP SP+-4
        PUSH    DPH
        CFI DPH0 Frame(CFA_SP, 5)
        CFI CFA_SP SP+-5
        ; Saved register size: 2
        ; Auto size: 0
        ; Setup parameters for call to function osal_set_event
        LCALL   ?Subroutine4 & 0xFFFF
??CrossCallReturnLabel_23:
        ; Setup parameters for call to function ZDApp_AnnounceNewAddress
        LCALL   ??ZDApp_AnnounceNewAddress?relay
        LJMP    ??Subroutine29_0 & 0xFFFF
        CFI EndBlock cfiBlock105

        RSEG BANKED_CODE:CODE:NOROOT(0)
ZDO_JoinIndicationCB:
        ; Saved register size: 0
        ; Auto size: 0
        REQUIRE ?Subroutine18
        ; // Fall through to label ?Subroutine18

        RSEG BANKED_CODE:CODE:NOROOT(0)
?Subroutine18:
        CFI Block cfiBlock106 Using cfiCommon0
        CFI NoFunction
        MOV     R1,#0x0
        LJMP    ?BRET
        CFI EndBlock cfiBlock106

        RSEG BANKED_CODE:CODE:NOROOT(0)
// 2199 void ZDO_ConcentratorIndicationCB( uint16 nwkAddr, uint8 *extAddr, uint8 pktCost )
ZDO_ConcentratorIndicationCB:
        CFI Block cfiBlock107 Using cfiCommon0
        CFI Function ZDO_ConcentratorIndicationCB
// 2200 {
        PUSH    DPL
        CFI DPL0 Frame(CFA_SP, 4)
        CFI CFA_SP SP+-4
        PUSH    DPH
        CFI DPH0 Frame(CFA_SP, 5)
        CFI CFA_SP SP+-5
        ; Saved register size: 2
        ; Auto size: 5
        MOV     A,#-0x5
        LCALL   ?ALLOC_XSTACK8
        CFI CFA_XSP16 add(XSP16, 5)
// 2201   zdoConcentratorInd_t conInd;
// 2202 
// 2203   conInd.nwkAddr = nwkAddr;
        LCALL   ?Subroutine2 & 0xFFFF
// 2204   conInd.extAddr = extAddr;
??CrossCallReturnLabel_53:
        MOV     A,#0x2
        LCALL   ?XSTACK_DISP0_8
        MOV     A,R4
        MOVX    @DPTR,A
        INC     DPTR
        MOV     A,R5
        MOVX    @DPTR,A
// 2205   conInd.pktCost = pktCost;
        MOV     A,#0x4
        LCALL   ?XSTACK_DISP0_8
        MOV     A,R1
        MOVX    @DPTR,A
// 2206 
// 2207   if( zdoCBFunc[ZDO_CONCENTRATOR_IND_CBID] != NULL )
        MOV     DPTR,#(zdoCBFunc + 2)
        LCALL   ?Subroutine9 & 0xFFFF
??CrossCallReturnLabel_8:
        MOV     A,R0
        JNZ     ??ZDO_ConcentratorIndicationCB_0
        MOV     A,R1
??ZDO_ConcentratorIndicationCB_0:
        JZ      ??ZDO_ConcentratorIndicationCB_1
// 2208 {
// 2209     zdoCBFunc[ZDO_CONCENTRATOR_IND_CBID]( (void*)&conInd );
        ; Setup parameters for indirect call
        MOV     DPL,?XSP + 0
        MOV     DPH,?XSP + 1
        MOV     R2,DPL
        MOV     R3,DPH
        MOV     DPL,R0
        MOV     DPH,R1
        LCALL   ?CALL_IND
// 2210   }
// 2211 }
??ZDO_ConcentratorIndicationCB_1:
        LJMP    ?Subroutine17 & 0xFFFF
        CFI EndBlock cfiBlock107

        RSEG BANKED_CODE:CODE:NOROOT(0)
?Subroutine9:
        CFI Block cfiCond108 Using cfiCommon0
        CFI NoFunction
        CFI Conditional ??CrossCallReturnLabel_6
        CFI R6 load(1, XDATA, add(CFA_XSP16, literal(-9)))
        CFI VB load(1, XDATA, add(CFA_XSP16, literal(-8)))
        CFI V0 load(1, XDATA, add(CFA_XSP16, literal(-7)))
        CFI R7 load(1, XDATA, add(CFA_XSP16, literal(-6)))
        CFI ?RET_LOW load(1, XDATA, add(CFA_XSP16, literal(-5)))
        CFI ?RET_HIGH load(1, XDATA, add(CFA_XSP16, literal(-4)))
        CFI ?BRET_EXT load(1, XDATA, add(CFA_XSP16, literal(-3)))
        CFI DPL0 load(1, XDATA, add(CFA_XSP16, literal(-2)))
        CFI DPH0 load(1, XDATA, add(CFA_XSP16, literal(-1)))
        CFI CFA_SP SP+0
        CFI CFA_XSP16 add(XSP16, 9)
        CFI Block cfiCond109 Using cfiCommon0
        CFI (cfiCond109) NoFunction
        CFI (cfiCond109) Conditional ??CrossCallReturnLabel_7
        CFI (cfiCond109) R6 load(1, XDATA, add(CFA_XSP16, literal(-18)))
        CFI (cfiCond109) VB load(1, XDATA, add(CFA_XSP16, literal(-17)))
        CFI (cfiCond109) V0 load(1, XDATA, add(CFA_XSP16, literal(-16)))
        CFI (cfiCond109) V1 load(1, XDATA, add(CFA_XSP16, literal(-15)))
        CFI (cfiCond109) V2 load(1, XDATA, add(CFA_XSP16, literal(-14)))
        CFI (cfiCond109) V3 load(1, XDATA, add(CFA_XSP16, literal(-13)))
        CFI (cfiCond109) V4 load(1, XDATA, add(CFA_XSP16, literal(-12)))
        CFI (cfiCond109) V5 load(1, XDATA, add(CFA_XSP16, literal(-11)))
        CFI (cfiCond109) V6 load(1, XDATA, add(CFA_XSP16, literal(-10)))
        CFI (cfiCond109) V7 load(1, XDATA, add(CFA_XSP16, literal(-9)))
        CFI (cfiCond109) V8 load(1, XDATA, add(CFA_XSP16, literal(-8)))
        CFI (cfiCond109) V9 load(1, XDATA, add(CFA_XSP16, literal(-7)))
        CFI (cfiCond109) R7 load(1, XDATA, add(CFA_XSP16, literal(-6)))
        CFI (cfiCond109) ?RET_LOW load(1, XDATA, add(CFA_XSP16, literal(-5)))
        CFI (cfiCond109) ?RET_HIGH load(1, XDATA, add(CFA_XSP16, literal(-4)))
        CFI (cfiCond109) ?BRET_EXT load(1, XDATA, add(CFA_XSP16, literal(-3)))
        CFI (cfiCond109) DPL0 load(1, XDATA, add(CFA_XSP16, literal(-2)))
        CFI (cfiCond109) DPH0 load(1, XDATA, add(CFA_XSP16, literal(-1)))
        CFI (cfiCond109) CFA_SP SP+0
        CFI (cfiCond109) CFA_XSP16 add(XSP16, 32)
        CFI Block cfiCond110 Using cfiCommon0
        CFI (cfiCond110) NoFunction
        CFI (cfiCond110) Conditional ??CrossCallReturnLabel_8
        CFI (cfiCond110) DPL0 Frame(CFA_SP, 4)
        CFI (cfiCond110) DPH0 Frame(CFA_SP, 5)
        CFI (cfiCond110) CFA_SP SP+-5
        CFI (cfiCond110) CFA_XSP16 add(XSP16, 5)
        CFI Block cfiCond111 Using cfiCommon0
        CFI (cfiCond111) NoFunction
        CFI (cfiCond111) Conditional ??CrossCallReturnLabel_9
        CFI (cfiCond111) R6 load(1, XDATA, add(CFA_XSP16, literal(-10)))
        CFI (cfiCond111) VB load(1, XDATA, add(CFA_XSP16, literal(-9)))
        CFI (cfiCond111) V0 load(1, XDATA, add(CFA_XSP16, literal(-8)))
        CFI (cfiCond111) V1 load(1, XDATA, add(CFA_XSP16, literal(-7)))
        CFI (cfiCond111) R7 load(1, XDATA, add(CFA_XSP16, literal(-6)))
        CFI (cfiCond111) ?RET_LOW load(1, XDATA, add(CFA_XSP16, literal(-5)))
        CFI (cfiCond111) ?RET_HIGH load(1, XDATA, add(CFA_XSP16, literal(-4)))
        CFI (cfiCond111) ?BRET_EXT load(1, XDATA, add(CFA_XSP16, literal(-3)))
        CFI (cfiCond111) DPL0 load(1, XDATA, add(CFA_XSP16, literal(-2)))
        CFI (cfiCond111) DPH0 load(1, XDATA, add(CFA_XSP16, literal(-1)))
        CFI (cfiCond111) CFA_SP SP+0
        CFI (cfiCond111) CFA_XSP16 add(XSP16, 10)
        CFI Block cfiPicker112 Using cfiCommon1
        CFI (cfiPicker112) NoFunction
        CFI (cfiPicker112) Picker
        MOVX    A,@DPTR
        MOV     R0,A
        INC     DPTR
        MOVX    A,@DPTR
        MOV     R1,A
        RET
        CFI EndBlock cfiCond108
        CFI EndBlock cfiCond109
        CFI EndBlock cfiCond110
        CFI EndBlock cfiCond111
        CFI EndBlock cfiPicker112
// 2212 
// 2213 /*********************************************************************
// 2214  * @fn          ZDO_LeaveCnf
// 2215  *
// 2216  * @brief       This function allows the next higher layer to be
// 2217  *              notified of the results of its request for this or
// 2218  *              a child device to leave the network.
// 2219  *
// 2220  * @param       cnf - NLME_LeaveCnf_t
// 2221  *
// 2222  * @return      none
// 2223  */

        RSEG BANKED_CODE:CODE:NOROOT(0)
// 2224 void ZDO_LeaveCnf( NLME_LeaveCnf_t* cnf )
ZDO_LeaveCnf:
        CFI Block cfiBlock113 Using cfiCommon0
        CFI Function ZDO_LeaveCnf
// 2225 {
        FUNCALL ZDO_LeaveCnf, NLME_GetExtAddr
        LOCFRAME ISTACK, 0, STACK
        LOCFRAME PSTACK, 0, STACK
        LOCFRAME XSTACK, 9, STACK
        LOCFRAME IOVERLAY, 0, STATIC
        LOCFRAME DOVERLAY, 0, STATIC
        ARGFRAME ISTACK, 0, STACK
        ARGFRAME PSTACK, 0, STACK
        ARGFRAME XSTACK, 9, STACK
        ARGFRAME IOVERLAY, 0, STATIC
        ARGFRAME DOVERLAY, 0, STATIC
        FUNCALL ZDO_LeaveCnf, sAddrExtCmp
        LOCFRAME ISTACK, 0, STACK
        LOCFRAME PSTACK, 0, STACK
        LOCFRAME XSTACK, 9, STACK
        LOCFRAME IOVERLAY, 0, STATIC
        LOCFRAME DOVERLAY, 0, STATIC
        ARGFRAME ISTACK, 0, STACK
        ARGFRAME PSTACK, 0, STACK
        ARGFRAME XSTACK, 9, STACK
        ARGFRAME IOVERLAY, 0, STATIC
        ARGFRAME DOVERLAY, 0, STATIC
        FUNCALL ZDO_LeaveCnf, ZDApp_LeaveReset
        LOCFRAME ISTACK, 0, STACK
        LOCFRAME PSTACK, 0, STACK
        LOCFRAME XSTACK, 9, STACK
        LOCFRAME IOVERLAY, 0, STATIC
        LOCFRAME DOVERLAY, 0, STATIC
        ARGFRAME ISTACK, 0, STACK
        ARGFRAME PSTACK, 0, STACK
        ARGFRAME XSTACK, 9, STACK
        ARGFRAME IOVERLAY, 0, STATIC
        ARGFRAME DOVERLAY, 0, STATIC
        MOV     A,#-0x9
        LCALL   ?BANKED_ENTER_XDATA
        CFI DPH0 load(1, XDATA, add(CFA_XSP16, literal(-1)))
        CFI DPL0 load(1, XDATA, add(CFA_XSP16, literal(-2)))
        CFI ?BRET_EXT load(1, XDATA, add(CFA_XSP16, literal(-3)))
        CFI ?RET_HIGH load(1, XDATA, add(CFA_XSP16, literal(-4)))
        CFI ?RET_LOW load(1, XDATA, add(CFA_XSP16, literal(-5)))
        CFI R7 load(1, XDATA, add(CFA_XSP16, literal(-6)))
        CFI V0 load(1, XDATA, add(CFA_XSP16, literal(-7)))
        CFI VB load(1, XDATA, add(CFA_XSP16, literal(-8)))
        CFI R6 load(1, XDATA, add(CFA_XSP16, literal(-9)))
        CFI CFA_SP SP+0
        CFI CFA_XSP16 add(XSP16, 9)
        ; Saved register size: 9
        ; Auto size: 0
        MOV     A,R2
        MOV     R6,A
        MOV     A,R3
        MOV     R7,A
// 2226   // Check for this device
// 2227   if ( osal_ExtAddrEqual( cnf->extAddr,
// 2228                           NLME_GetExtAddr() ) == TRUE )
        ; Setup parameters for call to function sAddrExtCmp
        ; Setup parameters for call to function NLME_GetExtAddr
        LCALL   ??NLME_GetExtAddr?relay
        MOV     A,R2
        MOV     R4,A
        MOV     A,R3
        MOV     R5,A
        MOV     A,R6
        ADD     A,#0x2
        MOV     R2,A
        MOV     A,R7
        ADDC    A,#0x0
        MOV     R3,A
        LCALL   ??sAddrExtCmp?relay
        MOV     A,R1
        XRL     A,#0x1
        JNZ     ??CrossCallReturnLabel_12
// 2229   {
// 2230     // Prepare to leave with reset
// 2231     ZDApp_LeaveReset( cnf->rejoin );
        ; Setup parameters for call to function ZDApp_LeaveReset
        MOV     A,R6
        ADD     A,#0xb
        LCALL   ?Subroutine11 & 0xFFFF
// 2232   }
// 2233   else if ( ZSTACK_ROUTER_BUILD )
// 2234   {
// 2235     // Remove device address(optionally descendents) from data
// 2236     ZDApp_LeaveUpdate( cnf->dstAddr,
// 2237                        cnf->extAddr,
// 2238                        cnf->removeChildren );
// 2239   }
// 2240 }
??CrossCallReturnLabel_12:
        LJMP    ?Subroutine20 & 0xFFFF
        CFI EndBlock cfiBlock113
// 2241 
// 2242 /*********************************************************************
// 2243  * @fn          ZDO_LeaveInd
// 2244  *
// 2245  * @brief       This function allows the next higher layer of a
// 2246  *              device to be notified of a remote leave request or
// 2247  *              indication.
// 2248  *
// 2249  * @param       ind - NLME_LeaveInd_t
// 2250  *
// 2251  * @return      none
// 2252  */

        RSEG BANKED_CODE:CODE:NOROOT(0)
// 2253 void ZDO_LeaveInd( NLME_LeaveInd_t* ind )
ZDO_LeaveInd:
        CFI Block cfiBlock114 Using cfiCommon0
        CFI Function ZDO_LeaveInd
// 2254 {
        FUNCALL ZDO_LeaveInd, ZDApp_LeaveReset
        LOCFRAME ISTACK, 0, STACK
        LOCFRAME PSTACK, 0, STACK
        LOCFRAME XSTACK, 10, STACK
        LOCFRAME IOVERLAY, 0, STATIC
        LOCFRAME DOVERLAY, 0, STATIC
        ARGFRAME ISTACK, 0, STACK
        ARGFRAME PSTACK, 0, STACK
        ARGFRAME XSTACK, 10, STACK
        ARGFRAME IOVERLAY, 0, STATIC
        ARGFRAME DOVERLAY, 0, STATIC
        FUNCALL ZDO_LeaveInd, NLME_GetCoordShortAddr
        LOCFRAME ISTACK, 0, STACK
        LOCFRAME PSTACK, 0, STACK
        LOCFRAME XSTACK, 10, STACK
        LOCFRAME IOVERLAY, 0, STATIC
        LOCFRAME DOVERLAY, 0, STATIC
        ARGFRAME ISTACK, 0, STACK
        ARGFRAME PSTACK, 0, STACK
        ARGFRAME XSTACK, 10, STACK
        ARGFRAME IOVERLAY, 0, STATIC
        ARGFRAME DOVERLAY, 0, STATIC
        MOV     A,#-0xa
        LCALL   ?BANKED_ENTER_XDATA
        CFI DPH0 load(1, XDATA, add(CFA_XSP16, literal(-1)))
        CFI DPL0 load(1, XDATA, add(CFA_XSP16, literal(-2)))
        CFI ?BRET_EXT load(1, XDATA, add(CFA_XSP16, literal(-3)))
        CFI ?RET_HIGH load(1, XDATA, add(CFA_XSP16, literal(-4)))
        CFI ?RET_LOW load(1, XDATA, add(CFA_XSP16, literal(-5)))
        CFI R7 load(1, XDATA, add(CFA_XSP16, literal(-6)))
        CFI V1 load(1, XDATA, add(CFA_XSP16, literal(-7)))
        CFI V0 load(1, XDATA, add(CFA_XSP16, literal(-8)))
        CFI VB load(1, XDATA, add(CFA_XSP16, literal(-9)))
        CFI R6 load(1, XDATA, add(CFA_XSP16, literal(-10)))
        CFI CFA_SP SP+0
        CFI CFA_XSP16 add(XSP16, 10)
        ; Saved register size: 10
        ; Auto size: 0
        MOV     A,R2
        MOV     R6,A
        MOV     A,R3
        MOV     R7,A
// 2255   uint8 leave;
// 2256 
// 2257 
// 2258   // Parent is requesting the leave - NWK layer filters out illegal
// 2259   // requests
// 2260   if ( ind->request == TRUE )
        MOV     DPL,R6
        MOV     DPH,R7
        INC     DPTR
        INC     DPTR
        INC     DPTR
        INC     DPTR
        INC     DPTR
        INC     DPTR
        INC     DPTR
        INC     DPTR
        INC     DPTR
        INC     DPTR
        MOVX    A,@DPTR
        XRL     A,#0x1
        JNZ     ??ZDO_LeaveInd_0
// 2261   {
// 2262     // Notify network of leave
// 2263     if ( ZSTACK_ROUTER_BUILD )
// 2264     {
// 2265       NLME_LeaveRsp_t rsp;
// 2266       rsp.rejoin         = ind->rejoin;
// 2267       rsp.removeChildren = ind->removeChildren;
// 2268       NLME_LeaveRsp( &rsp );
// 2269     }
// 2270 
// 2271     // Prepare to leave with reset
// 2272     ZDApp_LeaveReset( ind->rejoin );
??ZDO_LeaveInd_1:
        ; Setup parameters for call to function ZDApp_LeaveReset
        MOV     A,R6
        ADD     A,#0xc
        LCALL   ?Subroutine11 & 0xFFFF
// 2273   }
??CrossCallReturnLabel_13:
        SJMP    ??ZDO_LeaveInd_2
// 2274   else
// 2275   {
// 2276     leave = FALSE;
// 2277 
// 2278     // Check if this device needs to leave as a child or descendent
// 2279     if ( ind->srcAddr == NLME_GetCoordShortAddr() )
??ZDO_LeaveInd_0:
        ; Setup parameters for call to function NLME_GetCoordShortAddr
        LCALL   ??NLME_GetCoordShortAddr?relay
        MOV     ?V0 + 0,R2
        MOV     ?V0 + 1,R3
        MOV     R0,?V0 + 0
        MOV     R1,?V0 + 1
        MOV     DPL,R6
        MOV     DPH,R7
        MOVX    A,@DPTR
        XRL     A,R0
        JNZ     ??ZDO_LeaveInd_3
        INC     DPTR
        MOVX    A,@DPTR
        XRL     A,R1
??ZDO_LeaveInd_3:
        JNZ     ??ZDO_LeaveInd_2
// 2280     {
// 2281       if ( ( ind->removeChildren == TRUE               ) ||
// 2282            ( ZDO_Config_Node_Descriptor.LogicalType ==
// 2283              NODETYPE_DEVICE                           )    )
        LCALL   ?Subroutine12 & 0xFFFF
// 2284       {
// 2285         leave = TRUE;
// 2286       }
// 2287     }
// 2288     else if ( ind->removeChildren == TRUE )
// 2289     {
// 2290       // Check NWK address allocation algorithm
// 2291       //leave = RTG_ANCESTOR(nwkAddr,thisAddr);
// 2292     }
// 2293 
// 2294     if ( leave == TRUE )
// 2295     {
// 2296       // Prepare to leave with reset
// 2297       ZDApp_LeaveReset( ind->rejoin );
// 2298     }
// 2299     else
// 2300     {
// 2301       // Remove device address(optionally descendents) from data
// 2302       ZDApp_LeaveUpdate( ind->srcAddr,
// 2303                          ind->extAddr,
// 2304                          ind->removeChildren );
// 2305     }
// 2306   }
??CrossCallReturnLabel_46:
        XRL     A,#0x1
        JZ      ??ZDO_LeaveInd_1
        MOV     DPTR,#ZDO_Config_Node_Descriptor
        MOVX    A,@DPTR
        ANL     A,#0x7
        XRL     A,#0x2
        JZ      ??ZDO_LeaveInd_1
// 2307 }
??ZDO_LeaveInd_2:
        LJMP    ??Subroutine32_0 & 0xFFFF
        CFI EndBlock cfiBlock114

        RSEG BANKED_CODE:CODE:NOROOT(0)
?Subroutine11:
        CFI Block cfiCond115 Using cfiCommon0
        CFI NoFunction
        CFI Conditional ??CrossCallReturnLabel_12
        CFI R6 load(1, XDATA, add(CFA_XSP16, literal(-9)))
        CFI VB load(1, XDATA, add(CFA_XSP16, literal(-8)))
        CFI V0 load(1, XDATA, add(CFA_XSP16, literal(-7)))
        CFI R7 load(1, XDATA, add(CFA_XSP16, literal(-6)))
        CFI ?RET_LOW load(1, XDATA, add(CFA_XSP16, literal(-5)))
        CFI ?RET_HIGH load(1, XDATA, add(CFA_XSP16, literal(-4)))
        CFI ?BRET_EXT load(1, XDATA, add(CFA_XSP16, literal(-3)))
        CFI DPL0 load(1, XDATA, add(CFA_XSP16, literal(-2)))
        CFI DPH0 load(1, XDATA, add(CFA_XSP16, literal(-1)))
        CFI CFA_SP SP+0
        CFI CFA_XSP16 add(XSP16, 9)
        CFI Block cfiCond116 Using cfiCommon0
        CFI (cfiCond116) NoFunction
        CFI (cfiCond116) Conditional ??CrossCallReturnLabel_13
        CFI (cfiCond116) R6 load(1, XDATA, add(CFA_XSP16, literal(-10)))
        CFI (cfiCond116) VB load(1, XDATA, add(CFA_XSP16, literal(-9)))
        CFI (cfiCond116) V0 load(1, XDATA, add(CFA_XSP16, literal(-8)))
        CFI (cfiCond116) V1 load(1, XDATA, add(CFA_XSP16, literal(-7)))
        CFI (cfiCond116) R7 load(1, XDATA, add(CFA_XSP16, literal(-6)))
        CFI (cfiCond116) ?RET_LOW load(1, XDATA, add(CFA_XSP16, literal(-5)))
        CFI (cfiCond116) ?RET_HIGH load(1, XDATA, add(CFA_XSP16, literal(-4)))
        CFI (cfiCond116) ?BRET_EXT load(1, XDATA, add(CFA_XSP16, literal(-3)))
        CFI (cfiCond116) DPL0 load(1, XDATA, add(CFA_XSP16, literal(-2)))
        CFI (cfiCond116) DPH0 load(1, XDATA, add(CFA_XSP16, literal(-1)))
        CFI (cfiCond116) CFA_SP SP+0
        CFI (cfiCond116) CFA_XSP16 add(XSP16, 10)
        CFI Block cfiPicker117 Using cfiCommon1
        CFI (cfiPicker117) NoFunction
        CFI (cfiPicker117) Picker
        MOV     DPL,A
        MOV     A,R7
        ADDC    A,#0x0
        MOV     DPH,A
        MOVX    A,@DPTR
        MOV     R1,A
        LCALL   ??ZDApp_LeaveReset?relay
        RET
        CFI EndBlock cfiCond115
        CFI EndBlock cfiCond116
        CFI EndBlock cfiPicker117
// 2308 
// 2309 /*********************************************************************
// 2310  * @fn          ZDO_SyncIndicationCB
// 2311  *
// 2312  * @brief       This function allows the next higher layer of a
// 2313  *              coordinator to be notified of a loss of synchronization
// 2314  *                          with the parent/child device.
// 2315  *
// 2316  * @param       type: 0 - child; 1 - parent
// 2317  *
// 2318  *
// 2319  * @return      none
// 2320  */

        RSEG BANKED_CODE:CODE:NOROOT(0)
// 2321 void ZDO_SyncIndicationCB( uint8 type, uint16 shortAddr )
ZDO_SyncIndicationCB:
        CFI Block cfiBlock118 Using cfiCommon0
        CFI Function ZDO_SyncIndicationCB
// 2322 {
        FUNCALL ZDO_SyncIndicationCB, nwkNeighborInitTable
        LOCFRAME ISTACK, 2, STACK
        LOCFRAME PSTACK, 0, STACK
        LOCFRAME XSTACK, 0, STACK
        LOCFRAME IOVERLAY, 0, STATIC
        LOCFRAME DOVERLAY, 0, STATIC
        ARGFRAME ISTACK, 2, STACK
        ARGFRAME PSTACK, 0, STACK
        ARGFRAME XSTACK, 0, STACK
        ARGFRAME IOVERLAY, 0, STATIC
        ARGFRAME DOVERLAY, 0, STATIC
        FUNCALL ZDO_SyncIndicationCB, ZDApp_SendMsg
        LOCFRAME ISTACK, 2, STACK
        LOCFRAME PSTACK, 0, STACK
        LOCFRAME XSTACK, 0, STACK
        LOCFRAME IOVERLAY, 0, STATIC
        LOCFRAME DOVERLAY, 0, STATIC
        ARGFRAME ISTACK, 2, STACK
        ARGFRAME PSTACK, 0, STACK
        ARGFRAME XSTACK, 0, STACK
        ARGFRAME IOVERLAY, 0, STATIC
        ARGFRAME DOVERLAY, 0, STATIC
        PUSH    DPL
        CFI DPL0 Frame(CFA_SP, 4)
        CFI CFA_SP SP+-4
        PUSH    DPH
        CFI DPH0 Frame(CFA_SP, 5)
        CFI CFA_SP SP+-5
        ; Saved register size: 2
        ; Auto size: 0
// 2323   (void)shortAddr;  // Remove this line if this parameter is used.
// 2324 
// 2325   if ( ZSTACK_END_DEVICE_BUILD
// 2326     || (ZSTACK_ROUTER_BUILD && ((_NIB.CapabilityFlags & ZMAC_ASSOC_CAPINFO_FFD_TYPE) == 0)))
// 2327   {
// 2328     if ( type == 1 )
        MOV     A,#0x1
        XRL     A,R1
        JNZ     ??CrossCallReturnLabel_30
// 2329     {
// 2330       // We lost contact with our parent.  Clear the neighbor Table.
// 2331       nwkNeighborInitTable();
        ; Setup parameters for call to function nwkNeighborInitTable
        LCALL   ??nwkNeighborInitTable?relay
// 2332 
// 2333       // Start the rejoin process.
// 2334       ZDApp_SendMsg( ZDAppTaskID, ZDO_NWK_JOIN_REQ, sizeof(osal_event_hdr_t), NULL );
        ; Setup parameters for call to function ZDApp_SendMsg
        MOV     R4,#0x0
        MOV     R5,#0x0
        MOV     R3,#0x2
        MOV     R2,#0x3
        LCALL   ?Subroutine6 & 0xFFFF
// 2335     }
// 2336   }
// 2337 }
??CrossCallReturnLabel_30:
        LJMP    ??Subroutine29_0 & 0xFFFF
        CFI EndBlock cfiBlock118
// 2338 
// 2339 /*********************************************************************
// 2340  * @fn          ZDO_ManytoOneFailureIndicationCB
// 2341  *
// 2342  * @brief       This function allows the next higher layer of a
// 2343  *              concentrator to be notified of a many-to-one route
// 2344  *              failure.
// 2345  *
// 2346  * @param       none
// 2347  *
// 2348  *
// 2349  * @return      none
// 2350  */

        RSEG BANKED_CODE:CODE:NOROOT(0)
// 2351 void ZDO_ManytoOneFailureIndicationCB()
ZDO_ManytoOneFailureIndicationCB:
        CFI Block cfiBlock119 Using cfiCommon0
        CFI Function ZDO_ManytoOneFailureIndicationCB
// 2352 {
        FUNCALL ZDO_ManytoOneFailureIndicationCB, RTG_MTORouteReq
        LOCFRAME ISTACK, 2, STACK
        LOCFRAME PSTACK, 0, STACK
        LOCFRAME XSTACK, 0, STACK
        LOCFRAME IOVERLAY, 0, STATIC
        LOCFRAME DOVERLAY, 0, STATIC
        ARGFRAME ISTACK, 2, STACK
        ARGFRAME PSTACK, 0, STACK
        ARGFRAME XSTACK, 0, STACK
        ARGFRAME IOVERLAY, 0, STATIC
        ARGFRAME DOVERLAY, 0, STATIC
        PUSH    DPL
        CFI DPL0 Frame(CFA_SP, 4)
        CFI CFA_SP SP+-4
        PUSH    DPH
        CFI DPH0 Frame(CFA_SP, 5)
        CFI CFA_SP SP+-5
        ; Saved register size: 2
        ; Auto size: 0
// 2353   // By default, the concentrator automatically redo many-to-one route
// 2354   // discovery to update all many-to-one routes in the network
// 2355   // If you want anything processing other than the default,
// 2356   // please replace the following code.
// 2357 
// 2358   RTG_MTORouteReq();
        ; Setup parameters for call to function RTG_MTORouteReq
        LCALL   ??RTG_MTORouteReq?relay
// 2359 }
        LJMP    ??Subroutine29_0 & 0xFFFF
        CFI EndBlock cfiBlock119
// 2360 
// 2361 /*********************************************************************
// 2362  * @fn          ZDO_PollConfirmCB
// 2363  *
// 2364  * @brief       This function allows the next higher layer to be
// 2365  *              notified of a Poll Confirm.
// 2366  *
// 2367  * @param       none
// 2368  *
// 2369  * @return      none
// 2370  */

        RSEG BANKED_CODE:CODE:NOROOT(0)
// 2371 void ZDO_PollConfirmCB( uint8 status )
ZDO_PollConfirmCB:
        CFI Block cfiBlock120 Using cfiCommon0
        CFI Function ZDO_PollConfirmCB
// 2372 {
        ; Saved register size: 0
        ; Auto size: 0
// 2373   (void)status;  // Remove this line if this parameter is used.
// 2374   return;
        LJMP    ?BRET
        CFI EndBlock cfiBlock120
// 2375 }
// 2376 
// 2377 /******************************************************************************
// 2378  * @fn          ZDApp_NwkWriteNVRequest (stubs AddrMgrWriteNVRequest)
// 2379  *
// 2380  * @brief       Stub routine implemented by NHLE. NHLE should call
// 2381  *              <AddrMgrWriteNV> when appropriate.
// 2382  *
// 2383  * @param       none
// 2384  *
// 2385  * @return      none
// 2386  */

        RSEG BANKED_CODE:CODE:NOROOT(0)
// 2387 void ZDApp_NwkWriteNVRequest( void )
AddrMgrWriteNVRequest:
        CFI Block cfiBlock121 Using cfiCommon0
        CFI Function AddrMgrWriteNVRequest
// 2388 {
        ; Saved register size: 0
        ; Auto size: 0
// 2389 #if defined ( NV_RESTORE )
// 2390   if ( !osal_get_timeoutEx( ZDAppTaskID, ZDO_NWK_UPDATE_NV ) )
// 2391   {
// 2392     // Trigger to save info into NV
// 2393     ZDApp_NVUpdate();
// 2394   }
// 2395 #endif
// 2396 }
        LJMP    ?BRET
        CFI EndBlock cfiBlock121
// 2397 
// 2398 /*********************************************************************
// 2399  * Call Back Functions from Security  - API
// 2400  */
// 2401 
// 2402  /*********************************************************************
// 2403  * @fn          ZDO_UpdateDeviceIndication
// 2404  *
// 2405  * @brief       This function notifies the "Trust Center" of a
// 2406  *              network when a device joins or leaves the network.
// 2407  *
// 2408  * @param       extAddr - pointer to 64 bit address of new device
// 2409  * @param       status  - 0 if a new device joined securely
// 2410  *                      - 1 if a new device joined un-securely
// 2411  *                      - 2 if a device left the network
// 2412  *
// 2413  * @return      true if newly joined device should be allowed to
// 2414  *                                              remain on network
// 2415  */

        RSEG BANKED_CODE:CODE:NOROOT(0)
// 2416 ZStatus_t ZDO_UpdateDeviceIndication( uint8 *extAddr, uint8 status )
ZDO_UpdateDeviceIndication:
        CFI Block cfiBlock122 Using cfiCommon0
        CFI Function ZDO_UpdateDeviceIndication
// 2417 {
        ; Saved register size: 0
        ; Auto size: 0
// 2418   // can implement a network access policy based on the
// 2419   // IEEE address of newly joining devices...
// 2420   (void)extAddr;
// 2421   (void)status;
// 2422 
// 2423   return ZSuccess;
        LJMP    ?Subroutine18 & 0xFFFF
        CFI EndBlock cfiBlock122
// 2424 }
// 2425 
// 2426 /*********************************************************************
// 2427  * @fn          ZDApp_InMsgCB
// 2428  *
// 2429  * @brief       This function is called to pass up any message that is
// 2430  *              not yet supported.  This allows for the developer to
// 2431  *              support features themselves..
// 2432  *
// 2433  * @return      none
// 2434  */

        RSEG BANKED_CODE:CODE:NOROOT(0)
// 2435 void ZDApp_InMsgCB( zdoIncomingMsg_t *inMsg )
ZDApp_InMsgCB:
        CFI Block cfiBlock123 Using cfiCommon0
        CFI Function ZDApp_InMsgCB
// 2436 {
        FUNCALL ZDApp_InMsgCB, ZDP_GenericRsp
        LOCFRAME ISTACK, 0, STACK
        LOCFRAME PSTACK, 0, STACK
        LOCFRAME XSTACK, 14, STACK
        LOCFRAME IOVERLAY, 0, STATIC
        LOCFRAME DOVERLAY, 0, STATIC
        ARGFRAME ISTACK, 0, STACK
        ARGFRAME PSTACK, 0, STACK
        ARGFRAME XSTACK, 14, STACK
        ARGFRAME IOVERLAY, 0, STATIC
        ARGFRAME DOVERLAY, 0, STATIC
        MOV     A,#-0xa
        LCALL   ?BANKED_ENTER_XDATA
        CFI DPH0 load(1, XDATA, add(CFA_XSP16, literal(-1)))
        CFI DPL0 load(1, XDATA, add(CFA_XSP16, literal(-2)))
        CFI ?BRET_EXT load(1, XDATA, add(CFA_XSP16, literal(-3)))
        CFI ?RET_HIGH load(1, XDATA, add(CFA_XSP16, literal(-4)))
        CFI ?RET_LOW load(1, XDATA, add(CFA_XSP16, literal(-5)))
        CFI R7 load(1, XDATA, add(CFA_XSP16, literal(-6)))
        CFI V1 load(1, XDATA, add(CFA_XSP16, literal(-7)))
        CFI V0 load(1, XDATA, add(CFA_XSP16, literal(-8)))
        CFI VB load(1, XDATA, add(CFA_XSP16, literal(-9)))
        CFI R6 load(1, XDATA, add(CFA_XSP16, literal(-10)))
        CFI CFA_SP SP+0
        CFI CFA_XSP16 add(XSP16, 10)
        ; Saved register size: 10
        ; Auto size: 0
        MOV     A,R2
        MOV     R6,A
        MOV     A,R3
        MOV     R7,A
// 2437   if ( inMsg->clusterID & ZDO_RESPONSE_BIT )
        MOV     A,R6
        ADD     A,#0xc
        MOV     DPL,A
        MOV     A,R7
        ADDC    A,#0x0
        MOV     DPH,A
        LCALL   ?Subroutine9 & 0xFFFF
??CrossCallReturnLabel_9:
        MOV     A,#-0x80
        ANL     A,R1
        MOV     R3,A
        CLR     A
        JNZ     ??ZDApp_InMsgCB_0
        MOV     A,R3
??ZDApp_InMsgCB_0:
        JNZ     ??ZDApp_InMsgCB_1
// 2438   {
// 2439     // Handle the response message
// 2440   }
// 2441   else
// 2442   {
// 2443     // Handle the request message by sending a generic "not supported".
// 2444     // Device Announce doesn't have a response.
// 2445     if ( !(inMsg->wasBroadcast) && inMsg->clusterID != Device_annce )
        LCALL   ?Subroutine12 & 0xFFFF
??CrossCallReturnLabel_47:
        JNZ     ??ZDApp_InMsgCB_1
        MOV     A,#0x13
        XRL     A,R0
        JNZ     ??ZDApp_InMsgCB_2
        MOV     A,R1
??ZDApp_InMsgCB_2:
        JZ      ??ZDApp_InMsgCB_1
// 2446     {
// 2447       ZDP_GenericRsp( inMsg->TransSeq, &(inMsg->srcAddr), ZDP_NOT_SUPPORTED, 0,
// 2448                       (uint16)(inMsg->clusterID | ZDO_RESPONSE_BIT), inMsg->SecurityUse );
        ; Setup parameters for call to function ZDP_GenericRsp
        MOV     A,R0
        MOV     ?V0 + 0,A
        MOV     A,#-0x80
        ORL     A,R1
        MOV     ?V0 + 1,A
        MOV     R0,#?V0 + 0
        LCALL   ?PUSH_XSTACK_I_TWO
        CFI CFA_XSP16 add(XSP16, 12)
        MOV     ?V0 + 0,#0x0
        MOV     ?V0 + 1,#0x0
        MOV     R0,#?V0 + 0
        LCALL   ?PUSH_XSTACK_I_TWO
        CFI CFA_XSP16 add(XSP16, 14)
        MOV     A,R6
        ADD     A,#0xe
        LCALL   ??Subroutine30_0 & 0xFFFF
// 2449     }
// 2450   }
??CrossCallReturnLabel_44:
        MOV     R5,A
        MOV     R4,#-0x7c
        MOV     A,R6
        ADD     A,#0x2
        INC     R2
        INC     R2
        MOV     A,R7
        ADDC    A,#0x0
        MOV     R3,A
        MOV     A,R6
        ADD     A,#0xf
        LCALL   ??Subroutine30_0 & 0xFFFF
??CrossCallReturnLabel_45:
        MOV     R1,A
        LCALL   ??ZDP_GenericRsp?relay
        MOV     A,#0x4
        LCALL   ?DEALLOC_XSTACK8
        CFI CFA_XSP16 add(XSP16, 10)
// 2451 }
??ZDApp_InMsgCB_1:
        LJMP    ??Subroutine32_0 & 0xFFFF
        CFI EndBlock cfiBlock123

        RSEG BANKED_CODE:CODE:NOROOT(0)
?Subroutine12:
        CFI Block cfiCond124 Using cfiCommon0
        CFI NoFunction
        CFI Conditional ??CrossCallReturnLabel_46
        CFI R6 load(1, XDATA, add(CFA_XSP16, literal(-10)))
        CFI VB load(1, XDATA, add(CFA_XSP16, literal(-9)))
        CFI V0 load(1, XDATA, add(CFA_XSP16, literal(-8)))
        CFI V1 load(1, XDATA, add(CFA_XSP16, literal(-7)))
        CFI R7 load(1, XDATA, add(CFA_XSP16, literal(-6)))
        CFI ?RET_LOW load(1, XDATA, add(CFA_XSP16, literal(-5)))
        CFI ?RET_HIGH load(1, XDATA, add(CFA_XSP16, literal(-4)))
        CFI ?BRET_EXT load(1, XDATA, add(CFA_XSP16, literal(-3)))
        CFI DPL0 load(1, XDATA, add(CFA_XSP16, literal(-2)))
        CFI DPH0 load(1, XDATA, add(CFA_XSP16, literal(-1)))
        CFI CFA_SP SP+0
        CFI CFA_XSP16 add(XSP16, 10)
        CFI Block cfiCond125 Using cfiCommon0
        CFI (cfiCond125) NoFunction
        CFI (cfiCond125) Conditional ??CrossCallReturnLabel_47
        CFI (cfiCond125) R6 load(1, XDATA, add(CFA_XSP16, literal(-10)))
        CFI (cfiCond125) VB load(1, XDATA, add(CFA_XSP16, literal(-9)))
        CFI (cfiCond125) V0 load(1, XDATA, add(CFA_XSP16, literal(-8)))
        CFI (cfiCond125) V1 load(1, XDATA, add(CFA_XSP16, literal(-7)))
        CFI (cfiCond125) R7 load(1, XDATA, add(CFA_XSP16, literal(-6)))
        CFI (cfiCond125) ?RET_LOW load(1, XDATA, add(CFA_XSP16, literal(-5)))
        CFI (cfiCond125) ?RET_HIGH load(1, XDATA, add(CFA_XSP16, literal(-4)))
        CFI (cfiCond125) ?BRET_EXT load(1, XDATA, add(CFA_XSP16, literal(-3)))
        CFI (cfiCond125) DPL0 load(1, XDATA, add(CFA_XSP16, literal(-2)))
        CFI (cfiCond125) DPH0 load(1, XDATA, add(CFA_XSP16, literal(-1)))
        CFI (cfiCond125) CFA_SP SP+0
        CFI (cfiCond125) CFA_XSP16 add(XSP16, 10)
        CFI Block cfiPicker126 Using cfiCommon1
        CFI (cfiPicker126) NoFunction
        CFI (cfiPicker126) Picker
        MOV     A,R6
        ADD     A,#0xb
        CFI EndBlock cfiCond124
        CFI EndBlock cfiCond125
        CFI EndBlock cfiPicker126
        REQUIRE ??Subroutine30_0
        ; // Fall through to label ??Subroutine30_0

        RSEG BANKED_CODE:CODE:NOROOT(0)
??Subroutine30_0:
        CFI Block cfiCond127 Using cfiCommon0
        CFI NoFunction
        CFI Conditional ??CrossCallReturnLabel_42
        CFI R6 load(1, XDATA, add(CFA_XSP16, literal(-10)))
        CFI VB load(1, XDATA, add(CFA_XSP16, literal(-9)))
        CFI V0 load(1, XDATA, add(CFA_XSP16, literal(-8)))
        CFI V1 load(1, XDATA, add(CFA_XSP16, literal(-7)))
        CFI R7 load(1, XDATA, add(CFA_XSP16, literal(-6)))
        CFI ?RET_LOW load(1, XDATA, add(CFA_XSP16, literal(-5)))
        CFI ?RET_HIGH load(1, XDATA, add(CFA_XSP16, literal(-4)))
        CFI ?BRET_EXT load(1, XDATA, add(CFA_XSP16, literal(-3)))
        CFI DPL0 load(1, XDATA, add(CFA_XSP16, literal(-2)))
        CFI DPH0 load(1, XDATA, add(CFA_XSP16, literal(-1)))
        CFI CFA_SP SP+0
        CFI CFA_XSP16 add(XSP16, 31)
        CFI Block cfiCond128 Using cfiCommon0
        CFI (cfiCond128) NoFunction
        CFI (cfiCond128) Conditional ??CrossCallReturnLabel_43
        CFI (cfiCond128) R6 load(1, XDATA, add(CFA_XSP16, literal(-18)))
        CFI (cfiCond128) VB load(1, XDATA, add(CFA_XSP16, literal(-17)))
        CFI (cfiCond128) V0 load(1, XDATA, add(CFA_XSP16, literal(-16)))
        CFI (cfiCond128) V1 load(1, XDATA, add(CFA_XSP16, literal(-15)))
        CFI (cfiCond128) V2 load(1, XDATA, add(CFA_XSP16, literal(-14)))
        CFI (cfiCond128) V3 load(1, XDATA, add(CFA_XSP16, literal(-13)))
        CFI (cfiCond128) V4 load(1, XDATA, add(CFA_XSP16, literal(-12)))
        CFI (cfiCond128) V5 load(1, XDATA, add(CFA_XSP16, literal(-11)))
        CFI (cfiCond128) V6 load(1, XDATA, add(CFA_XSP16, literal(-10)))
        CFI (cfiCond128) V7 load(1, XDATA, add(CFA_XSP16, literal(-9)))
        CFI (cfiCond128) V8 load(1, XDATA, add(CFA_XSP16, literal(-8)))
        CFI (cfiCond128) V9 load(1, XDATA, add(CFA_XSP16, literal(-7)))
        CFI (cfiCond128) R7 load(1, XDATA, add(CFA_XSP16, literal(-6)))
        CFI (cfiCond128) ?RET_LOW load(1, XDATA, add(CFA_XSP16, literal(-5)))
        CFI (cfiCond128) ?RET_HIGH load(1, XDATA, add(CFA_XSP16, literal(-4)))
        CFI (cfiCond128) ?BRET_EXT load(1, XDATA, add(CFA_XSP16, literal(-3)))
        CFI (cfiCond128) DPL0 load(1, XDATA, add(CFA_XSP16, literal(-2)))
        CFI (cfiCond128) DPH0 load(1, XDATA, add(CFA_XSP16, literal(-1)))
        CFI (cfiCond128) CFA_SP SP+0
        CFI (cfiCond128) CFA_XSP16 add(XSP16, 32)
        CFI Block cfiCond129 Using cfiCommon0
        CFI (cfiCond129) NoFunction
        CFI (cfiCond129) Conditional ??CrossCallReturnLabel_44
        CFI (cfiCond129) R6 load(1, XDATA, add(CFA_XSP16, literal(-10)))
        CFI (cfiCond129) VB load(1, XDATA, add(CFA_XSP16, literal(-9)))
        CFI (cfiCond129) V0 load(1, XDATA, add(CFA_XSP16, literal(-8)))
        CFI (cfiCond129) V1 load(1, XDATA, add(CFA_XSP16, literal(-7)))
        CFI (cfiCond129) R7 load(1, XDATA, add(CFA_XSP16, literal(-6)))
        CFI (cfiCond129) ?RET_LOW load(1, XDATA, add(CFA_XSP16, literal(-5)))
        CFI (cfiCond129) ?RET_HIGH load(1, XDATA, add(CFA_XSP16, literal(-4)))
        CFI (cfiCond129) ?BRET_EXT load(1, XDATA, add(CFA_XSP16, literal(-3)))
        CFI (cfiCond129) DPL0 load(1, XDATA, add(CFA_XSP16, literal(-2)))
        CFI (cfiCond129) DPH0 load(1, XDATA, add(CFA_XSP16, literal(-1)))
        CFI (cfiCond129) CFA_SP SP+0
        CFI (cfiCond129) CFA_XSP16 add(XSP16, 14)
        CFI Block cfiCond130 Using cfiCommon0
        CFI (cfiCond130) NoFunction
        CFI (cfiCond130) Conditional ??CrossCallReturnLabel_45
        CFI (cfiCond130) R6 load(1, XDATA, add(CFA_XSP16, literal(-10)))
        CFI (cfiCond130) VB load(1, XDATA, add(CFA_XSP16, literal(-9)))
        CFI (cfiCond130) V0 load(1, XDATA, add(CFA_XSP16, literal(-8)))
        CFI (cfiCond130) V1 load(1, XDATA, add(CFA_XSP16, literal(-7)))
        CFI (cfiCond130) R7 load(1, XDATA, add(CFA_XSP16, literal(-6)))
        CFI (cfiCond130) ?RET_LOW load(1, XDATA, add(CFA_XSP16, literal(-5)))
        CFI (cfiCond130) ?RET_HIGH load(1, XDATA, add(CFA_XSP16, literal(-4)))
        CFI (cfiCond130) ?BRET_EXT load(1, XDATA, add(CFA_XSP16, literal(-3)))
        CFI (cfiCond130) DPL0 load(1, XDATA, add(CFA_XSP16, literal(-2)))
        CFI (cfiCond130) DPH0 load(1, XDATA, add(CFA_XSP16, literal(-1)))
        CFI (cfiCond130) CFA_SP SP+0
        CFI (cfiCond130) CFA_XSP16 add(XSP16, 14)
        CFI Block cfiCond131 Using cfiCommon0
        CFI (cfiCond131) NoFunction
        CFI (cfiCond131) Conditional ??CrossCallReturnLabel_46
        CFI (cfiCond131) R6 load(1, XDATA, add(CFA_XSP16, literal(-10)))
        CFI (cfiCond131) VB load(1, XDATA, add(CFA_XSP16, literal(-9)))
        CFI (cfiCond131) V0 load(1, XDATA, add(CFA_XSP16, literal(-8)))
        CFI (cfiCond131) V1 load(1, XDATA, add(CFA_XSP16, literal(-7)))
        CFI (cfiCond131) R7 load(1, XDATA, add(CFA_XSP16, literal(-6)))
        CFI (cfiCond131) ?RET_LOW load(1, XDATA, add(CFA_XSP16, literal(-5)))
        CFI (cfiCond131) ?RET_HIGH load(1, XDATA, add(CFA_XSP16, literal(-4)))
        CFI (cfiCond131) ?BRET_EXT load(1, XDATA, add(CFA_XSP16, literal(-3)))
        CFI (cfiCond131) DPL0 load(1, XDATA, add(CFA_XSP16, literal(-2)))
        CFI (cfiCond131) DPH0 load(1, XDATA, add(CFA_XSP16, literal(-1)))
        CFI (cfiCond131) CFA_SP SP+0
        CFI (cfiCond131) CFA_XSP16 add(XSP16, 10)
        CFI Block cfiCond132 Using cfiCommon0
        CFI (cfiCond132) NoFunction
        CFI (cfiCond132) Conditional ??CrossCallReturnLabel_47
        CFI (cfiCond132) R6 load(1, XDATA, add(CFA_XSP16, literal(-10)))
        CFI (cfiCond132) VB load(1, XDATA, add(CFA_XSP16, literal(-9)))
        CFI (cfiCond132) V0 load(1, XDATA, add(CFA_XSP16, literal(-8)))
        CFI (cfiCond132) V1 load(1, XDATA, add(CFA_XSP16, literal(-7)))
        CFI (cfiCond132) R7 load(1, XDATA, add(CFA_XSP16, literal(-6)))
        CFI (cfiCond132) ?RET_LOW load(1, XDATA, add(CFA_XSP16, literal(-5)))
        CFI (cfiCond132) ?RET_HIGH load(1, XDATA, add(CFA_XSP16, literal(-4)))
        CFI (cfiCond132) ?BRET_EXT load(1, XDATA, add(CFA_XSP16, literal(-3)))
        CFI (cfiCond132) DPL0 load(1, XDATA, add(CFA_XSP16, literal(-2)))
        CFI (cfiCond132) DPH0 load(1, XDATA, add(CFA_XSP16, literal(-1)))
        CFI (cfiCond132) CFA_SP SP+0
        CFI (cfiCond132) CFA_XSP16 add(XSP16, 10)
        CFI Block cfiPicker133 Using cfiCommon1
        CFI (cfiPicker133) NoFunction
        CFI (cfiPicker133) Picker
        MOV     DPL,A
        MOV     A,R7
        ADDC    A,#0x0
        MOV     DPH,A
        MOVX    A,@DPTR
        RET
        CFI EndBlock cfiCond127
        CFI EndBlock cfiCond128
        CFI EndBlock cfiCond129
        CFI EndBlock cfiCond130
        CFI EndBlock cfiCond131
        CFI EndBlock cfiCond132
        CFI EndBlock cfiPicker133
// 2452 
// 2453 
// 2454 /*********************************************************************
// 2455  * @fn      ZDApp_ChangeMatchDescRespPermission()
// 2456  *
// 2457  * @brief   Changes the Match Descriptor Response permission.
// 2458  *
// 2459  * @param   endpoint - endpoint to allow responses
// 2460  * @param   action - true to allow responses, false to not
// 2461  *
// 2462  * @return  none
// 2463  */

        RSEG BANKED_CODE:CODE:NOROOT(0)
// 2464 void ZDApp_ChangeMatchDescRespPermission( uint8 endpoint, uint8 action )
ZDApp_ChangeMatchDescRespPermission:
        CFI Block cfiBlock134 Using cfiCommon0
        CFI Function ZDApp_ChangeMatchDescRespPermission
// 2465 {
        FUNCALL ZDApp_ChangeMatchDescRespPermission, afSetMatch
        LOCFRAME ISTACK, 2, STACK
        LOCFRAME PSTACK, 0, STACK
        LOCFRAME XSTACK, 0, STACK
        LOCFRAME IOVERLAY, 0, STATIC
        LOCFRAME DOVERLAY, 0, STATIC
        ARGFRAME ISTACK, 2, STACK
        ARGFRAME PSTACK, 0, STACK
        ARGFRAME XSTACK, 0, STACK
        ARGFRAME IOVERLAY, 0, STATIC
        ARGFRAME DOVERLAY, 0, STATIC
        PUSH    DPL
        CFI DPL0 Frame(CFA_SP, 4)
        CFI CFA_SP SP+-4
        PUSH    DPH
        CFI DPH0 Frame(CFA_SP, 5)
        CFI CFA_SP SP+-5
        ; Saved register size: 2
        ; Auto size: 0
// 2466   // Store the action
// 2467   afSetMatch( endpoint, action );
        ; Setup parameters for call to function afSetMatch
        LCALL   ??afSetMatch?relay
// 2468 }
        LJMP    ??Subroutine29_0 & 0xFFFF
        CFI EndBlock cfiBlock134
// 2469 
// 2470 /*********************************************************************
// 2471  * @fn      ZDApp_NetworkInit()
// 2472  *
// 2473  * @brief   Used to start the network joining process
// 2474  *
// 2475  * @param   delay - mSec delay to wait before starting
// 2476  *
// 2477  * @return  none
// 2478  */

        RSEG BANKED_CODE:CODE:NOROOT(0)
// 2479 void ZDApp_NetworkInit( uint16 delay )
ZDApp_NetworkInit:
        CFI Block cfiBlock135 Using cfiCommon0
        CFI Function ZDApp_NetworkInit
// 2480 {
        FUNCALL ZDApp_NetworkInit, osal_start_timerEx
        LOCFRAME ISTACK, 2, STACK
        LOCFRAME PSTACK, 0, STACK
        LOCFRAME XSTACK, 0, STACK
        LOCFRAME IOVERLAY, 0, STATIC
        LOCFRAME DOVERLAY, 0, STATIC
        ARGFRAME ISTACK, 2, STACK
        ARGFRAME PSTACK, 0, STACK
        ARGFRAME XSTACK, 0, STACK
        ARGFRAME IOVERLAY, 0, STATIC
        ARGFRAME DOVERLAY, 0, STATIC
        FUNCALL ZDApp_NetworkInit, osal_set_event
        LOCFRAME ISTACK, 2, STACK
        LOCFRAME PSTACK, 0, STACK
        LOCFRAME XSTACK, 0, STACK
        LOCFRAME IOVERLAY, 0, STATIC
        LOCFRAME DOVERLAY, 0, STATIC
        ARGFRAME ISTACK, 2, STACK
        ARGFRAME PSTACK, 0, STACK
        ARGFRAME XSTACK, 0, STACK
        ARGFRAME IOVERLAY, 0, STATIC
        ARGFRAME DOVERLAY, 0, STATIC
        PUSH    DPL
        CFI DPL0 Frame(CFA_SP, 4)
        CFI CFA_SP SP+-4
        PUSH    DPH
        CFI DPH0 Frame(CFA_SP, 5)
        CFI CFA_SP SP+-5
        ; Saved register size: 2
        ; Auto size: 0
// 2481   if ( delay )
        MOV     A,R2
        JNZ     ??ZDApp_NetworkInit_0
        MOV     A,R3
??ZDApp_NetworkInit_0:
        JZ      ??ZDApp_NetworkInit_1
// 2482   {
// 2483     // Wait awhile before starting the device
// 2484     osal_start_timerEx( ZDAppTaskID, ZDO_NETWORK_INIT, delay );
        ; Setup parameters for call to function osal_start_timerEx
        MOV     A,R2
        MOV     R4,A
        MOV     A,R3
        MOV     R5,A
        MOV     R2,#0x1
        LCALL   ?Subroutine7 & 0xFFFF
// 2485   }
??CrossCallReturnLabel_40:
        SJMP    ??CrossCallReturnLabel_25
// 2486   else
// 2487   {
// 2488     osal_set_event( ZDAppTaskID, ZDO_NETWORK_INIT );
??ZDApp_NetworkInit_1:
        ; Setup parameters for call to function osal_set_event
        MOV     R2,#0x1
        LCALL   ?Subroutine21 & 0xFFFF
// 2489   }
// 2490 }
??CrossCallReturnLabel_25:
        LJMP    ??Subroutine29_0 & 0xFFFF
        CFI EndBlock cfiBlock135

        RSEG BANKED_CODE:CODE:NOROOT(0)
?Subroutine4:
        CFI Block cfiCond136 Using cfiCommon0
        CFI NoFunction
        CFI Conditional ??CrossCallReturnLabel_21
        CFI R6 load(1, XDATA, add(CFA_XSP16, literal(-10)))
        CFI VB load(1, XDATA, add(CFA_XSP16, literal(-9)))
        CFI V0 load(1, XDATA, add(CFA_XSP16, literal(-8)))
        CFI V1 load(1, XDATA, add(CFA_XSP16, literal(-7)))
        CFI R7 load(1, XDATA, add(CFA_XSP16, literal(-6)))
        CFI ?RET_LOW load(1, XDATA, add(CFA_XSP16, literal(-5)))
        CFI ?RET_HIGH load(1, XDATA, add(CFA_XSP16, literal(-4)))
        CFI ?BRET_EXT load(1, XDATA, add(CFA_XSP16, literal(-3)))
        CFI DPL0 load(1, XDATA, add(CFA_XSP16, literal(-2)))
        CFI DPH0 load(1, XDATA, add(CFA_XSP16, literal(-1)))
        CFI CFA_SP SP+0
        CFI CFA_XSP16 add(XSP16, 12)
        CFI Block cfiCond137 Using cfiCommon0
        CFI (cfiCond137) NoFunction
        CFI (cfiCond137) Conditional ??CrossCallReturnLabel_22
        CFI (cfiCond137) R6 load(1, XDATA, add(CFA_XSP16, literal(-10)))
        CFI (cfiCond137) VB load(1, XDATA, add(CFA_XSP16, literal(-9)))
        CFI (cfiCond137) V0 load(1, XDATA, add(CFA_XSP16, literal(-8)))
        CFI (cfiCond137) V1 load(1, XDATA, add(CFA_XSP16, literal(-7)))
        CFI (cfiCond137) R7 load(1, XDATA, add(CFA_XSP16, literal(-6)))
        CFI (cfiCond137) ?RET_LOW load(1, XDATA, add(CFA_XSP16, literal(-5)))
        CFI (cfiCond137) ?RET_HIGH load(1, XDATA, add(CFA_XSP16, literal(-4)))
        CFI (cfiCond137) ?BRET_EXT load(1, XDATA, add(CFA_XSP16, literal(-3)))
        CFI (cfiCond137) DPL0 load(1, XDATA, add(CFA_XSP16, literal(-2)))
        CFI (cfiCond137) DPH0 load(1, XDATA, add(CFA_XSP16, literal(-1)))
        CFI (cfiCond137) CFA_SP SP+0
        CFI (cfiCond137) CFA_XSP16 add(XSP16, 12)
        CFI Block cfiCond138 Using cfiCommon0
        CFI (cfiCond138) NoFunction
        CFI (cfiCond138) Conditional ??CrossCallReturnLabel_23
        CFI (cfiCond138) DPL0 Frame(CFA_SP, 4)
        CFI (cfiCond138) DPH0 Frame(CFA_SP, 5)
        CFI (cfiCond138) CFA_SP SP+-5
        CFI Block cfiPicker139 Using cfiCommon1
        CFI (cfiPicker139) NoFunction
        CFI (cfiPicker139) Picker
        MOV     R2,#0x10
        LJMP    ?Subroutine21 & 0xFFFF
        CFI EndBlock cfiCond136
        CFI EndBlock cfiCond137
        CFI EndBlock cfiCond138
        CFI EndBlock cfiPicker139
// 2491 
// 2492 /*********************************************************************
// 2493  * @fn      ZDApp_NwkStateUpdateCB()
// 2494  *
// 2495  * @brief   This function notifies that this device's network
// 2496  *          state info has been changed.
// 2497  *
// 2498  * @param   none
// 2499  *
// 2500  * @return  none
// 2501  */

        RSEG BANKED_CODE:CODE:NOROOT(0)
// 2502 void ZDApp_NwkStateUpdateCB( void )
ZDApp_NwkStateUpdateCB:
        CFI Block cfiBlock140 Using cfiCommon0
        CFI Function ZDApp_NwkStateUpdateCB
// 2503 {
        FUNCALL ZDApp_NwkStateUpdateCB, osal_get_timeoutEx
        LOCFRAME ISTACK, 2, STACK
        LOCFRAME PSTACK, 0, STACK
        LOCFRAME XSTACK, 0, STACK
        LOCFRAME IOVERLAY, 0, STATIC
        LOCFRAME DOVERLAY, 0, STATIC
        ARGFRAME ISTACK, 2, STACK
        ARGFRAME PSTACK, 0, STACK
        ARGFRAME XSTACK, 0, STACK
        ARGFRAME IOVERLAY, 0, STATIC
        ARGFRAME DOVERLAY, 0, STATIC
        PUSH    DPL
        CFI DPL0 Frame(CFA_SP, 4)
        CFI CFA_SP SP+-4
        PUSH    DPH
        CFI DPH0 Frame(CFA_SP, 5)
        CFI CFA_SP SP+-5
        ; Saved register size: 2
        ; Auto size: 0
// 2504   // Notify to save info into NV
// 2505   if ( !osal_get_timeoutEx( ZDAppTaskID, ZDO_NWK_UPDATE_NV ) )
        ; Setup parameters for call to function osal_get_timeoutEx
        MOV     R2,#0x0
        MOV     R3,#0x2
        MOV     DPTR,#ZDAppTaskID
        MOVX    A,@DPTR
        MOV     R1,A
        LCALL   ??osal_get_timeoutEx?relay
// 2506   {
// 2507     // Trigger to save info into NV
// 2508     ZDApp_NVUpdate();
// 2509   }
// 2510 }
        LJMP    ??Subroutine29_0 & 0xFFFF
        CFI EndBlock cfiBlock140
// 2511 
// 2512 /*********************************************************************
// 2513  * @fn      ZDApp_NodeProfileSync()
// 2514  *
// 2515  * @brief   Sync node with stack profile.
// 2516  *
// 2517  * @param   cfm - ZDO_NetworkDiscoveryCfm_t
// 2518  *
// 2519  * @return  none
// 2520  */

        RSEG BANKED_CODE:CODE:NOROOT(0)
// 2521 void ZDApp_NodeProfileSync( ZDO_NetworkDiscoveryCfm_t* cfm )
ZDApp_NodeProfileSync:
        CFI Block cfiBlock141 Using cfiCommon0
        CFI Function ZDApp_NodeProfileSync
// 2522 {
        FUNCALL ZDApp_NodeProfileSync, nwk_getNetworkDesc
        LOCFRAME ISTACK, 0, STACK
        LOCFRAME PSTACK, 0, STACK
        LOCFRAME XSTACK, 10, STACK
        LOCFRAME IOVERLAY, 0, STATIC
        LOCFRAME DOVERLAY, 0, STATIC
        ARGFRAME ISTACK, 0, STACK
        ARGFRAME PSTACK, 0, STACK
        ARGFRAME XSTACK, 10, STACK
        ARGFRAME IOVERLAY, 0, STATIC
        ARGFRAME DOVERLAY, 0, STATIC
        FUNCALL ZDApp_NodeProfileSync, NLME_SetBroadcastFilter
        LOCFRAME ISTACK, 0, STACK
        LOCFRAME PSTACK, 0, STACK
        LOCFRAME XSTACK, 10, STACK
        LOCFRAME IOVERLAY, 0, STATIC
        LOCFRAME DOVERLAY, 0, STATIC
        ARGFRAME ISTACK, 0, STACK
        ARGFRAME PSTACK, 0, STACK
        ARGFRAME XSTACK, 10, STACK
        ARGFRAME IOVERLAY, 0, STATIC
        ARGFRAME DOVERLAY, 0, STATIC
        MOV     A,#-0xa
        LCALL   ?BANKED_ENTER_XDATA
        CFI DPH0 load(1, XDATA, add(CFA_XSP16, literal(-1)))
        CFI DPL0 load(1, XDATA, add(CFA_XSP16, literal(-2)))
        CFI ?BRET_EXT load(1, XDATA, add(CFA_XSP16, literal(-3)))
        CFI ?RET_HIGH load(1, XDATA, add(CFA_XSP16, literal(-4)))
        CFI ?RET_LOW load(1, XDATA, add(CFA_XSP16, literal(-5)))
        CFI R7 load(1, XDATA, add(CFA_XSP16, literal(-6)))
        CFI V1 load(1, XDATA, add(CFA_XSP16, literal(-7)))
        CFI V0 load(1, XDATA, add(CFA_XSP16, literal(-8)))
        CFI VB load(1, XDATA, add(CFA_XSP16, literal(-9)))
        CFI R6 load(1, XDATA, add(CFA_XSP16, literal(-10)))
        CFI CFA_SP SP+0
        CFI CFA_XSP16 add(XSP16, 10)
        ; Saved register size: 10
        ; Auto size: 0
// 2523   networkDesc_t* desc;
// 2524   uint16         panID;
// 2525 
// 2526   if ( ZDO_Config_Node_Descriptor.CapabilityFlags & CAPINFO_DEVICETYPE_FFD  )
        MOV     DPTR,#(ZDO_Config_Node_Descriptor + 2)
        MOVX    A,@DPTR
        MOV     C,0xE0 /* A   */.1
        JNC     ??ZDApp_NodeProfileSync_0
// 2527   {
// 2528     panID = BUILD_UINT16( cfm->panIdLSB, cfm->panIdMSB );
// 2529 
// 2530     desc = nwk_getNetworkDesc( cfm->extendedPANID, panID, cfm->logicalChannel );
        ; Setup parameters for call to function nwk_getNetworkDesc
        MOV     DPL,R2
        MOV     DPH,R3
        INC     DPTR
        INC     DPTR
        INC     DPTR
        INC     DPTR
        MOVX    A,@DPTR
        MOV     R1,A
        MOV     DPL,R2
        MOV     DPH,R3
        INC     DPTR
        INC     DPTR
        MOVX    A,@DPTR
        MOV     R6,A
        MOV     DPL,R2
        MOV     DPH,R3
        INC     DPTR
        INC     DPTR
        INC     DPTR
        MOVX    A,@DPTR
        MOV     R5,A
        MOV     A,R6
        MOV     R4,A
        MOV     A,R2
        ADD     A,#0x6
        MOV     R2,A
        MOV     A,R3
        ADDC    A,#0x0
        MOV     R3,A
        LCALL   ??nwk_getNetworkDesc?relay
        MOV     DPL,R2
        MOV     DPH,R3
// 2531 
// 2532     if (desc != NULL)
        MOV     A,DPL
        JNZ     ??ZDApp_NodeProfileSync_1
        MOV     A,DPH
??ZDApp_NodeProfileSync_1:
        JZ      ??ZDApp_NodeProfileSync_0
// 2533     {
// 2534       if ( desc->stackProfile != zgStackProfile )
        INC     DPTR
        INC     DPTR
        INC     DPTR
        INC     DPTR
        INC     DPTR
        INC     DPTR
        INC     DPTR
        INC     DPTR
        MOVX    A,@DPTR
        MOV     R2,A
        MOV     DPTR,#zgStackProfile
        MOVX    A,@DPTR
        XRL     A,R2
        JZ      ??ZDApp_NodeProfileSync_0
// 2535       {
// 2536         ZDO_Config_Node_Descriptor.LogicalType = NODETYPE_DEVICE;
        MOV     DPTR,#ZDO_Config_Node_Descriptor
        MOVX    A,@DPTR
        ANL     A,#0xf8
        ORL     A,#0x2
        MOVX    @DPTR,A
// 2537         ZDO_Config_Node_Descriptor.CapabilityFlags = CAPINFO_DEVICETYPE_RFD | CAPINFO_POWER_AC | CAPINFO_RCVR_ON_IDLE;
        MOV     A,#0xc
        MOV     DPTR,#(ZDO_Config_Node_Descriptor + 2)
        MOVX    @DPTR,A
// 2538         NLME_SetBroadcastFilter( ZDO_Config_Node_Descriptor.CapabilityFlags );
        ; Setup parameters for call to function NLME_SetBroadcastFilter
        MOV     R1,A
        LCALL   ??NLME_SetBroadcastFilter?relay
// 2539       }
// 2540     }
// 2541   }
// 2542 }
??ZDApp_NodeProfileSync_0:
        SJMP    ??Subroutine32_0
        CFI EndBlock cfiBlock141
// 2543 
// 2544 /*********************************************************************
// 2545  * @fn      ZDApp_StartJoiningCycle()
// 2546  *
// 2547  * @brief   Starts the joining cycle of a device.  This will only
// 2548  *          continue an already started (or stopped) joining cycle.
// 2549  *
// 2550  * @param   none
// 2551  *
// 2552  * @return  TRUE if joining stopped, FALSE if joining or rejoining
// 2553  */

        RSEG BANKED_CODE:CODE:NOROOT(0)
// 2554 uint8 ZDApp_StartJoiningCycle( void )
ZDApp_StartJoiningCycle:
        CFI Block cfiBlock142 Using cfiCommon0
        CFI Function ZDApp_StartJoiningCycle
// 2555 {
        FUNCALL ZDApp_StartJoiningCycle, ZDApp_NetworkInit
        LOCFRAME ISTACK, 2, STACK
        LOCFRAME PSTACK, 0, STACK
        LOCFRAME XSTACK, 0, STACK
        LOCFRAME IOVERLAY, 0, STATIC
        LOCFRAME DOVERLAY, 0, STATIC
        ARGFRAME ISTACK, 2, STACK
        ARGFRAME PSTACK, 0, STACK
        ARGFRAME XSTACK, 0, STACK
        ARGFRAME IOVERLAY, 0, STATIC
        ARGFRAME DOVERLAY, 0, STATIC
        PUSH    DPL
        CFI DPL0 Frame(CFA_SP, 4)
        CFI CFA_SP SP+-4
        PUSH    DPH
        CFI DPH0 Frame(CFA_SP, 5)
        CFI CFA_SP SP+-5
        ; Saved register size: 2
        ; Auto size: 0
// 2556   if ( devState == DEV_INIT || devState == DEV_NWK_DISC )
        MOV     DPTR,#devState
        MOVX    A,@DPTR
        XRL     A,#0x1
        JZ      ??ZDApp_StartJoiningCycle_0
        MOVX    A,@DPTR
        XRL     A,#0x2
        JNZ     ??ZDApp_StartJoiningCycle_1
// 2557   {
// 2558     continueJoining = TRUE;
??ZDApp_StartJoiningCycle_0:
        MOV     A,#0x1
        MOV     DPTR,#continueJoining
        MOVX    @DPTR,A
// 2559     ZDApp_NetworkInit( 0 );
        ; Setup parameters for call to function ZDApp_NetworkInit
        MOV     R2,#0x0
        MOV     R3,#0x0
        LCALL   ??ZDApp_NetworkInit?relay
// 2560 
// 2561     return ( TRUE );
        MOV     R1,#0x1
        SJMP    ??ZDApp_StartJoiningCycle_2
// 2562   }
// 2563   else
// 2564     return ( FALSE );
??ZDApp_StartJoiningCycle_1:
        MOV     R1,#0x0
??ZDApp_StartJoiningCycle_2:
        LJMP    ??Subroutine29_0 & 0xFFFF
        CFI EndBlock cfiBlock142
// 2565 }
// 2566 
// 2567 /*********************************************************************
// 2568  * @fn      ZDApp_StopJoiningCycle()
// 2569  *
// 2570  * @brief   Stops the joining or rejoining process of a device.
// 2571  *
// 2572  * @param   none
// 2573  *
// 2574  * @return  TRUE if joining stopped, FALSE if joining or rejoining
// 2575  */

        RSEG BANKED_CODE:CODE:NOROOT(0)
// 2576 uint8 ZDApp_StopJoiningCycle( void )
ZDApp_StopJoiningCycle:
        CFI Block cfiBlock143 Using cfiCommon0
        CFI Function ZDApp_StopJoiningCycle
// 2577 {
        PUSH    DPL
        CFI DPL0 Frame(CFA_SP, 4)
        CFI CFA_SP SP+-4
        PUSH    DPH
        CFI DPH0 Frame(CFA_SP, 5)
        CFI CFA_SP SP+-5
        ; Saved register size: 2
        ; Auto size: 0
// 2578   if ( devState == DEV_INIT || devState == DEV_NWK_DISC )
        MOV     DPTR,#devState
        MOVX    A,@DPTR
        XRL     A,#0x1
        JZ      ??ZDApp_StopJoiningCycle_0
        MOVX    A,@DPTR
        XRL     A,#0x2
        JNZ     ??ZDApp_StopJoiningCycle_1
// 2579   {
// 2580     continueJoining = FALSE;
??ZDApp_StopJoiningCycle_0:
        CLR     A
        MOV     DPTR,#continueJoining
        MOVX    @DPTR,A
// 2581     return ( TRUE );
        MOV     R1,#0x1
        SJMP    ??ZDApp_StopJoiningCycle_2
// 2582   }
// 2583   else
// 2584     return ( FALSE );
??ZDApp_StopJoiningCycle_1:
        MOV     R1,#0x0
??ZDApp_StopJoiningCycle_2:
        LJMP    ??Subroutine29_0 & 0xFFFF
        CFI EndBlock cfiBlock143
// 2585 }
// 2586 
// 2587 /*********************************************************************
// 2588  * @fn      ZDApp_AnnounceNewAddress()
// 2589  *
// 2590  * @brief   Send Device Announce and hold all transmissions for
// 2591  *          new address timeout.
// 2592  *
// 2593  * @param   none
// 2594  *
// 2595  * @return  none
// 2596  */

        RSEG BANKED_CODE:CODE:NOROOT(0)
// 2597 void ZDApp_AnnounceNewAddress( void )
ZDApp_AnnounceNewAddress:
        CFI Block cfiBlock144 Using cfiCommon0
        CFI Function ZDApp_AnnounceNewAddress
// 2598 {
        FUNCALL ZDApp_AnnounceNewAddress, NLME_GetExtAddr
        LOCFRAME ISTACK, 0, STACK
        LOCFRAME PSTACK, 0, STACK
        LOCFRAME XSTACK, 10, STACK
        LOCFRAME IOVERLAY, 0, STATIC
        LOCFRAME DOVERLAY, 0, STATIC
        ARGFRAME ISTACK, 0, STACK
        ARGFRAME PSTACK, 0, STACK
        ARGFRAME XSTACK, 10, STACK
        ARGFRAME IOVERLAY, 0, STATIC
        ARGFRAME DOVERLAY, 0, STATIC
        FUNCALL ZDApp_AnnounceNewAddress, NLME_GetShortAddr
        LOCFRAME ISTACK, 0, STACK
        LOCFRAME PSTACK, 0, STACK
        LOCFRAME XSTACK, 10, STACK
        LOCFRAME IOVERLAY, 0, STATIC
        LOCFRAME DOVERLAY, 0, STATIC
        ARGFRAME ISTACK, 0, STACK
        ARGFRAME PSTACK, 0, STACK
        ARGFRAME XSTACK, 10, STACK
        ARGFRAME IOVERLAY, 0, STATIC
        ARGFRAME DOVERLAY, 0, STATIC
        FUNCALL ZDApp_AnnounceNewAddress, ZDP_DeviceAnnce
        LOCFRAME ISTACK, 0, STACK
        LOCFRAME PSTACK, 0, STACK
        LOCFRAME XSTACK, 11, STACK
        LOCFRAME IOVERLAY, 0, STATIC
        LOCFRAME DOVERLAY, 0, STATIC
        ARGFRAME ISTACK, 0, STACK
        ARGFRAME PSTACK, 0, STACK
        ARGFRAME XSTACK, 11, STACK
        ARGFRAME IOVERLAY, 0, STATIC
        ARGFRAME DOVERLAY, 0, STATIC
        MOV     A,#-0xa
        LCALL   ?BANKED_ENTER_XDATA
        CFI DPH0 load(1, XDATA, add(CFA_XSP16, literal(-1)))
        CFI DPL0 load(1, XDATA, add(CFA_XSP16, literal(-2)))
        CFI ?BRET_EXT load(1, XDATA, add(CFA_XSP16, literal(-3)))
        CFI ?RET_HIGH load(1, XDATA, add(CFA_XSP16, literal(-4)))
        CFI ?RET_LOW load(1, XDATA, add(CFA_XSP16, literal(-5)))
        CFI R7 load(1, XDATA, add(CFA_XSP16, literal(-6)))
        CFI V1 load(1, XDATA, add(CFA_XSP16, literal(-7)))
        CFI V0 load(1, XDATA, add(CFA_XSP16, literal(-8)))
        CFI VB load(1, XDATA, add(CFA_XSP16, literal(-9)))
        CFI R6 load(1, XDATA, add(CFA_XSP16, literal(-10)))
        CFI CFA_SP SP+0
        CFI CFA_XSP16 add(XSP16, 10)
        ; Saved register size: 10
        ; Auto size: 0
// 2599 #if defined ( ZIGBEE_NWK_UNIQUE_ADDR_CHECK )
// 2600   // Turn off data request hold
// 2601   APSME_HoldDataRequests( 0 );
// 2602 #endif
// 2603 
// 2604   ZDP_DeviceAnnce( NLME_GetShortAddr(), NLME_GetExtAddr(),
// 2605                      ZDO_Config_Node_Descriptor.CapabilityFlags, 0 );
        ; Setup parameters for call to function NLME_GetExtAddr
        LCALL   ??NLME_GetExtAddr?relay
        MOV     ?V0 + 0,R2
        MOV     ?V0 + 1,R3
        MOV     R6,?V0 + 0
        ; Setup parameters for call to function NLME_GetShortAddr
        LCALL   ??NLME_GetShortAddr?relay
        ; Setup parameters for call to function ZDP_DeviceAnnce
        MOV     ?V0 + 0,#0x0
        MOV     R0,#?V0 + 0
        LCALL   ?PUSH_XSTACK_I_ONE
        CFI CFA_XSP16 add(XSP16, 11)
        MOV     DPTR,#(ZDO_Config_Node_Descriptor + 2)
        MOVX    A,@DPTR
        MOV     R1,A
        MOV     A,R6
        MOV     R4,A
        MOV     R5,?V0 + 1
        LCALL   ??ZDP_DeviceAnnce?relay
        MOV     A,#0x1
        SJMP    ??Subroutine31_0
        CFI EndBlock cfiBlock144
// 2606 
// 2607 #if defined ( ZIGBEE_NWK_UNIQUE_ADDR_CHECK )
// 2608   // Setup the timeout
// 2609   APSME_HoldDataRequests( ZDAPP_HOLD_DATA_REQUESTS_TIMEOUT );
// 2610 #endif
// 2611 }

        RSEG BANKED_CODE:CODE:NOROOT(0)
?Subroutine19:
        CFI Block cfiBlock145 Using cfiCommon0
        CFI NoFunction
        CFI CFA_SP SP+0
        CFI CFA_XSP16 add(XSP16, 12)
        CFI VB load(1, XDATA, add(CFA_XSP16, literal(-9)))
        CFI DPL0 load(1, XDATA, add(CFA_XSP16, literal(-2)))
        CFI DPH0 load(1, XDATA, add(CFA_XSP16, literal(-1)))
        CFI R6 load(1, XDATA, add(CFA_XSP16, literal(-10)))
        CFI R7 load(1, XDATA, add(CFA_XSP16, literal(-6)))
        CFI V0 load(1, XDATA, add(CFA_XSP16, literal(-8)))
        CFI V1 load(1, XDATA, add(CFA_XSP16, literal(-7)))
        CFI ?BRET_EXT load(1, XDATA, add(CFA_XSP16, literal(-3)))
        CFI ?RET_HIGH load(1, XDATA, add(CFA_XSP16, literal(-4)))
        CFI ?RET_LOW load(1, XDATA, add(CFA_XSP16, literal(-5)))
        MOV     A,#0x2
        CFI EndBlock cfiBlock145
        REQUIRE ??Subroutine31_0
        ; // Fall through to label ??Subroutine31_0

        RSEG BANKED_CODE:CODE:NOROOT(0)
??Subroutine31_0:
        CFI Block cfiBlock146 Using cfiCommon0
        CFI NoFunction
        CFI CFA_SP SP+0
        CFI CFA_XSP16 add(XSP16, 27)
        CFI VB load(1, XDATA, add(CFA_XSP16, literal(-9)))
        CFI DPL0 load(1, XDATA, add(CFA_XSP16, literal(-2)))
        CFI DPH0 load(1, XDATA, add(CFA_XSP16, literal(-1)))
        CFI R6 load(1, XDATA, add(CFA_XSP16, literal(-10)))
        CFI R7 load(1, XDATA, add(CFA_XSP16, literal(-6)))
        CFI V0 load(1, XDATA, add(CFA_XSP16, literal(-8)))
        CFI V1 load(1, XDATA, add(CFA_XSP16, literal(-7)))
        CFI ?BRET_EXT load(1, XDATA, add(CFA_XSP16, literal(-3)))
        CFI ?RET_HIGH load(1, XDATA, add(CFA_XSP16, literal(-4)))
        CFI ?RET_LOW load(1, XDATA, add(CFA_XSP16, literal(-5)))
        CFI Invalid
        LCALL   ?DEALLOC_XSTACK8
        CFI EndBlock cfiBlock146
        REQUIRE ??Subroutine32_0
        ; // Fall through to label ??Subroutine32_0

        RSEG BANKED_CODE:CODE:NOROOT(0)
??Subroutine32_0:
        CFI Block cfiBlock147 Using cfiCommon0
        CFI NoFunction
        CFI CFA_SP SP+0
        CFI CFA_XSP16 add(XSP16, 10)
        CFI VB load(1, XDATA, add(CFA_XSP16, literal(-9)))
        CFI DPL0 load(1, XDATA, add(CFA_XSP16, literal(-2)))
        CFI DPH0 load(1, XDATA, add(CFA_XSP16, literal(-1)))
        CFI R6 load(1, XDATA, add(CFA_XSP16, literal(-10)))
        CFI R7 load(1, XDATA, add(CFA_XSP16, literal(-6)))
        CFI V0 load(1, XDATA, add(CFA_XSP16, literal(-8)))
        CFI V1 load(1, XDATA, add(CFA_XSP16, literal(-7)))
        CFI ?BRET_EXT load(1, XDATA, add(CFA_XSP16, literal(-3)))
        CFI ?RET_HIGH load(1, XDATA, add(CFA_XSP16, literal(-4)))
        CFI ?RET_LOW load(1, XDATA, add(CFA_XSP16, literal(-5)))
        MOV     R7,#0x2
        LJMP    ?BANKED_LEAVE_XDATA
        CFI EndBlock cfiBlock147
// 2612 
// 2613 /*********************************************************************
// 2614  * @fn          ZDApp_NVUpdate
// 2615  *
// 2616  * @brief       Set the NV Update Timer.
// 2617  *
// 2618  * @param       none
// 2619  *
// 2620  * @return      none
// 2621  */

        RSEG BANKED_CODE:CODE:NOROOT(0)
// 2622 void ZDApp_NVUpdate( void )
ZDApp_NVUpdate:
        CFI Block cfiBlock148 Using cfiCommon0
        CFI Function ZDApp_NVUpdate
// 2623 {
        ; Saved register size: 0
        ; Auto size: 0
// 2624 #if defined ( NV_RESTORE )
// 2625   osal_start_timerEx( ZDAppTaskID, ZDO_NWK_UPDATE_NV, ZDAPP_UPDATE_NWK_NV_TIME );
// 2626 #endif
// 2627 }
        LJMP    ?BRET
        CFI EndBlock cfiBlock148
// 2628 
// 2629 /*********************************************************************
// 2630  * @fn      ZDApp_CoordStartPANIDConflictCB()
// 2631  *
// 2632  * @brief   Returns a PAN ID for the network layer to use during
// 2633  *          a coordinator start and there is another network with
// 2634  *          the intended PANID.
// 2635  *
// 2636  * @param   panid - the intended PAN ID
// 2637  *
// 2638  * @return  PANID to try
// 2639  */

        RSEG BANKED_CODE:CODE:NOROOT(0)
// 2640 uint16 ZDApp_CoordStartPANIDConflictCB( uint16 panid )
ZDApp_CoordStartPANIDConflictCB:
        CFI Block cfiBlock149 Using cfiCommon0
        CFI Function ZDApp_CoordStartPANIDConflictCB
// 2641 {
        ; Saved register size: 0
        ; Auto size: 0
// 2642   return ( panid + 1 );
        MOV     A,#0x1
        ADD     A,R2
        INC     R2
        CLR     A
        ADDC    A,R3
        MOV     R3,A
        LJMP    ?BRET
        CFI EndBlock cfiBlock149
// 2643 }
// 2644 
// 2645 /*********************************************************************
// 2646  * @fn          ZDO_SrcRtgIndCB
// 2647  *
// 2648  * @brief       This function notifies the ZDO available src route record received.
// 2649  *
// 2650  * @param       srcAddr - source address of the source route
// 2651  * @param       relayCnt - number of devices in the relay list
// 2652  * @param       relayList - relay list of the source route
// 2653  *
// 2654  * @return      none
// 2655  */

        RSEG BANKED_CODE:CODE:NOROOT(0)
// 2656 void ZDO_SrcRtgIndCB (uint16 srcAddr, uint8 relayCnt, uint16* pRelayList )
ZDO_SrcRtgIndCB:
        CFI Block cfiBlock150 Using cfiCommon0
        CFI Function ZDO_SrcRtgIndCB
// 2657 {
        PUSH    DPL
        CFI DPL0 Frame(CFA_SP, 4)
        CFI CFA_SP SP+-4
        PUSH    DPH
        CFI DPH0 Frame(CFA_SP, 5)
        CFI CFA_SP SP+-5
        ; Saved register size: 2
        ; Auto size: 5
        MOV     A,#-0x5
        LCALL   ?ALLOC_XSTACK8
        CFI CFA_XSP16 add(XSP16, 5)
// 2658   zdoSrcRtg_t srcRtg;
// 2659 
// 2660   srcRtg.srcAddr = srcAddr;
        LCALL   ?Subroutine2 & 0xFFFF
// 2661   srcRtg.relayCnt = relayCnt;
??CrossCallReturnLabel_54:
        MOV     A,#0x2
        LCALL   ?XSTACK_DISP0_8
        MOV     A,R1
        MOVX    @DPTR,A
// 2662   srcRtg.pRelayList = pRelayList;
        MOV     A,#0x3
        LCALL   ?XSTACK_DISP0_8
        MOV     A,R4
        MOVX    @DPTR,A
        INC     DPTR
        MOV     A,R5
        MOVX    @DPTR,A
// 2663 
// 2664   if( zdoCBFunc[ZDO_SRC_RTG_IND_CBID] != NULL )
        MOV     DPTR,#zdoCBFunc
        MOVX    A,@DPTR
        JNZ     ??ZDO_SrcRtgIndCB_0
        INC     DPTR
        MOVX    A,@DPTR
??ZDO_SrcRtgIndCB_0:
        JZ      ??ZDO_SrcRtgIndCB_1
// 2665   {
// 2666     zdoCBFunc[ZDO_SRC_RTG_IND_CBID]( (void*)&srcRtg );
        ; Setup parameters for indirect call
        MOV     DPL,?XSP + 0
        MOV     DPH,?XSP + 1
        MOV     R2,DPL
        MOV     R3,DPH
        MOV     DPTR,#zdoCBFunc
        MOVX    A,@DPTR
        MOV     R0,A
        INC     DPTR
        MOVX    A,@DPTR
        MOV     DPH,A
        MOV     DPL,R0
        LCALL   ?CALL_IND
// 2667   }
// 2668 }
??ZDO_SrcRtgIndCB_1:
        LJMP    ?Subroutine17 & 0xFFFF
        CFI EndBlock cfiBlock150
// 2669 
// 2670 
// 2671 /*********************************************************************
// 2672  * @fn          ZDO_RegisterForZdoCB
// 2673  *
// 2674  * @brief       Call this function to register the higher layer (for
// 2675  *              example, the Application layer or MT layer) with ZDO
// 2676  *              callbacks to get notified of some ZDO indication like
// 2677  *              existence of a concentrator or receipt of a source
// 2678  *              route record.
// 2679  *
// 2680  * @param       indID - ZDO Indication ID
// 2681  * @param       pFn   - Callback function pointer
// 2682  *
// 2683  * @return      ZSuccess - successful, ZInvalidParameter if not
// 2684  */

        RSEG BANKED_CODE:CODE:NOROOT(0)
// 2685 ZStatus_t ZDO_RegisterForZdoCB( uint8 indID, pfnZdoCb pFn )
ZDO_RegisterForZdoCB:
        CFI Block cfiBlock151 Using cfiCommon0
        CFI Function ZDO_RegisterForZdoCB
// 2686 {
        PUSH    DPL
        CFI DPL0 Frame(CFA_SP, 4)
        CFI CFA_SP SP+-4
        PUSH    DPH
        CFI DPH0 Frame(CFA_SP, 5)
        CFI CFA_SP SP+-5
        ; Saved register size: 2
        ; Auto size: 0
// 2687   // Check the range of the indication ID
// 2688   if ( indID < MAX_ZDO_CB_FUNC )
        MOV     A,R1
        CLR     C
        SUBB    A,#0x2
        JNC     ??ZDO_RegisterForZdoCB_0
// 2689   {
// 2690     zdoCBFunc[indID] = pFn;
        MOV     A,R1
        CLR     C
        RLC     A
        MOV     R0,A
        CLR     A
        RLC     A
        MOV     R1,A
        MOV     A,R0
        ADD     A,#(zdoCBFunc & 0xff)
        MOV     DPL,A
        MOV     A,R1
        ADDC    A,#((zdoCBFunc >> 8) & 0xff)
        MOV     DPH,A
        LCALL   ??Subroutine33_0 & 0xFFFF
// 2691     return ZSuccess;
??CrossCallReturnLabel_51:
        MOV     R1,#0x0
        SJMP    ??ZDO_RegisterForZdoCB_1
// 2692   }
// 2693 
// 2694   return ZInvalidParameter;
??ZDO_RegisterForZdoCB_0:
        MOV     R1,#0x2
??ZDO_RegisterForZdoCB_1:
        LJMP    ??Subroutine29_0 & 0xFFFF
        CFI EndBlock cfiBlock151
// 2695 }

        RSEG BANKED_CODE:CODE:NOROOT(0)
?Subroutine2:
        CFI Block cfiCond152 Using cfiCommon0
        CFI NoFunction
        CFI Conditional ??CrossCallReturnLabel_52
        CFI R6 load(1, XDATA, add(CFA_XSP16, literal(-10)))
        CFI VB load(1, XDATA, add(CFA_XSP16, literal(-9)))
        CFI V0 load(1, XDATA, add(CFA_XSP16, literal(-8)))
        CFI V1 load(1, XDATA, add(CFA_XSP16, literal(-7)))
        CFI R7 load(1, XDATA, add(CFA_XSP16, literal(-6)))
        CFI ?RET_LOW load(1, XDATA, add(CFA_XSP16, literal(-5)))
        CFI ?RET_HIGH load(1, XDATA, add(CFA_XSP16, literal(-4)))
        CFI ?BRET_EXT load(1, XDATA, add(CFA_XSP16, literal(-3)))
        CFI DPL0 load(1, XDATA, add(CFA_XSP16, literal(-2)))
        CFI DPH0 load(1, XDATA, add(CFA_XSP16, literal(-1)))
        CFI CFA_SP SP+0
        CFI CFA_XSP16 add(XSP16, 12)
        CFI Block cfiCond153 Using cfiCommon0
        CFI (cfiCond153) NoFunction
        CFI (cfiCond153) Conditional ??CrossCallReturnLabel_53
        CFI (cfiCond153) DPL0 Frame(CFA_SP, 4)
        CFI (cfiCond153) DPH0 Frame(CFA_SP, 5)
        CFI (cfiCond153) CFA_SP SP+-5
        CFI (cfiCond153) CFA_XSP16 add(XSP16, 5)
        CFI Block cfiCond154 Using cfiCommon0
        CFI (cfiCond154) NoFunction
        CFI (cfiCond154) Conditional ??CrossCallReturnLabel_54
        CFI (cfiCond154) DPL0 Frame(CFA_SP, 4)
        CFI (cfiCond154) DPH0 Frame(CFA_SP, 5)
        CFI (cfiCond154) CFA_SP SP+-5
        CFI (cfiCond154) CFA_XSP16 add(XSP16, 5)
        CFI Block cfiPicker155 Using cfiCommon1
        CFI (cfiPicker155) NoFunction
        CFI (cfiPicker155) Picker
        MOV     DPL,?XSP + 0
        MOV     DPH,?XSP + 1
        CFI EndBlock cfiCond152
        CFI EndBlock cfiCond153
        CFI EndBlock cfiCond154
        CFI EndBlock cfiPicker155
        REQUIRE ??Subroutine33_0
        ; // Fall through to label ??Subroutine33_0

        RSEG BANKED_CODE:CODE:NOROOT(0)
??Subroutine33_0:
        CFI Block cfiCond156 Using cfiCommon0
        CFI NoFunction
        CFI Conditional ??CrossCallReturnLabel_48
        CFI R6 load(1, XDATA, add(CFA_XSP16, literal(-9)))
        CFI VB load(1, XDATA, add(CFA_XSP16, literal(-8)))
        CFI V0 load(1, XDATA, add(CFA_XSP16, literal(-7)))
        CFI R7 load(1, XDATA, add(CFA_XSP16, literal(-6)))
        CFI ?RET_LOW load(1, XDATA, add(CFA_XSP16, literal(-5)))
        CFI ?RET_HIGH load(1, XDATA, add(CFA_XSP16, literal(-4)))
        CFI ?BRET_EXT load(1, XDATA, add(CFA_XSP16, literal(-3)))
        CFI DPL0 load(1, XDATA, add(CFA_XSP16, literal(-2)))
        CFI DPH0 load(1, XDATA, add(CFA_XSP16, literal(-1)))
        CFI CFA_SP SP+0
        CFI CFA_XSP16 add(XSP16, 9)
        CFI Block cfiCond157 Using cfiCommon0
        CFI (cfiCond157) NoFunction
        CFI (cfiCond157) Conditional ??CrossCallReturnLabel_49
        CFI (cfiCond157) R6 load(1, XDATA, add(CFA_XSP16, literal(-9)))
        CFI (cfiCond157) VB load(1, XDATA, add(CFA_XSP16, literal(-8)))
        CFI (cfiCond157) V0 load(1, XDATA, add(CFA_XSP16, literal(-7)))
        CFI (cfiCond157) R7 load(1, XDATA, add(CFA_XSP16, literal(-6)))
        CFI (cfiCond157) ?RET_LOW load(1, XDATA, add(CFA_XSP16, literal(-5)))
        CFI (cfiCond157) ?RET_HIGH load(1, XDATA, add(CFA_XSP16, literal(-4)))
        CFI (cfiCond157) ?BRET_EXT load(1, XDATA, add(CFA_XSP16, literal(-3)))
        CFI (cfiCond157) DPL0 load(1, XDATA, add(CFA_XSP16, literal(-2)))
        CFI (cfiCond157) DPH0 load(1, XDATA, add(CFA_XSP16, literal(-1)))
        CFI (cfiCond157) CFA_SP SP+0
        CFI (cfiCond157) CFA_XSP16 add(XSP16, 9)
        CFI Block cfiCond158 Using cfiCommon0
        CFI (cfiCond158) NoFunction
        CFI (cfiCond158) Conditional ??CrossCallReturnLabel_50
        CFI (cfiCond158) R6 load(1, XDATA, add(CFA_XSP16, literal(-15)))
        CFI (cfiCond158) VB load(1, XDATA, add(CFA_XSP16, literal(-14)))
        CFI (cfiCond158) V0 load(1, XDATA, add(CFA_XSP16, literal(-13)))
        CFI (cfiCond158) V1 load(1, XDATA, add(CFA_XSP16, literal(-12)))
        CFI (cfiCond158) V2 load(1, XDATA, add(CFA_XSP16, literal(-11)))
        CFI (cfiCond158) V3 load(1, XDATA, add(CFA_XSP16, literal(-10)))
        CFI (cfiCond158) V4 load(1, XDATA, add(CFA_XSP16, literal(-9)))
        CFI (cfiCond158) V5 load(1, XDATA, add(CFA_XSP16, literal(-8)))
        CFI (cfiCond158) V6 load(1, XDATA, add(CFA_XSP16, literal(-7)))
        CFI (cfiCond158) R7 load(1, XDATA, add(CFA_XSP16, literal(-6)))
        CFI (cfiCond158) ?RET_LOW load(1, XDATA, add(CFA_XSP16, literal(-5)))
        CFI (cfiCond158) ?RET_HIGH load(1, XDATA, add(CFA_XSP16, literal(-4)))
        CFI (cfiCond158) ?BRET_EXT load(1, XDATA, add(CFA_XSP16, literal(-3)))
        CFI (cfiCond158) DPL0 load(1, XDATA, add(CFA_XSP16, literal(-2)))
        CFI (cfiCond158) DPH0 load(1, XDATA, add(CFA_XSP16, literal(-1)))
        CFI (cfiCond158) CFA_SP SP+0
        CFI (cfiCond158) CFA_XSP16 add(XSP16, 16)
        CFI Block cfiCond159 Using cfiCommon0
        CFI (cfiCond159) NoFunction
        CFI (cfiCond159) Conditional ??CrossCallReturnLabel_51
        CFI (cfiCond159) DPL0 Frame(CFA_SP, 4)
        CFI (cfiCond159) DPH0 Frame(CFA_SP, 5)
        CFI (cfiCond159) CFA_SP SP+-5
        CFI Block cfiCond160 Using cfiCommon0
        CFI (cfiCond160) NoFunction
        CFI (cfiCond160) Conditional ??CrossCallReturnLabel_52
        CFI (cfiCond160) R6 load(1, XDATA, add(CFA_XSP16, literal(-10)))
        CFI (cfiCond160) VB load(1, XDATA, add(CFA_XSP16, literal(-9)))
        CFI (cfiCond160) V0 load(1, XDATA, add(CFA_XSP16, literal(-8)))
        CFI (cfiCond160) V1 load(1, XDATA, add(CFA_XSP16, literal(-7)))
        CFI (cfiCond160) R7 load(1, XDATA, add(CFA_XSP16, literal(-6)))
        CFI (cfiCond160) ?RET_LOW load(1, XDATA, add(CFA_XSP16, literal(-5)))
        CFI (cfiCond160) ?RET_HIGH load(1, XDATA, add(CFA_XSP16, literal(-4)))
        CFI (cfiCond160) ?BRET_EXT load(1, XDATA, add(CFA_XSP16, literal(-3)))
        CFI (cfiCond160) DPL0 load(1, XDATA, add(CFA_XSP16, literal(-2)))
        CFI (cfiCond160) DPH0 load(1, XDATA, add(CFA_XSP16, literal(-1)))
        CFI (cfiCond160) CFA_SP SP+0
        CFI (cfiCond160) CFA_XSP16 add(XSP16, 12)
        CFI Block cfiCond161 Using cfiCommon0
        CFI (cfiCond161) NoFunction
        CFI (cfiCond161) Conditional ??CrossCallReturnLabel_53
        CFI (cfiCond161) DPL0 Frame(CFA_SP, 4)
        CFI (cfiCond161) DPH0 Frame(CFA_SP, 5)
        CFI (cfiCond161) CFA_SP SP+-5
        CFI (cfiCond161) CFA_XSP16 add(XSP16, 5)
        CFI Block cfiCond162 Using cfiCommon0
        CFI (cfiCond162) NoFunction
        CFI (cfiCond162) Conditional ??CrossCallReturnLabel_54
        CFI (cfiCond162) DPL0 Frame(CFA_SP, 4)
        CFI (cfiCond162) DPH0 Frame(CFA_SP, 5)
        CFI (cfiCond162) CFA_SP SP+-5
        CFI (cfiCond162) CFA_XSP16 add(XSP16, 5)
        CFI Block cfiPicker163 Using cfiCommon1
        CFI (cfiPicker163) NoFunction
        CFI (cfiPicker163) Picker
        MOV     A,R2
        MOVX    @DPTR,A
        INC     DPTR
        MOV     A,R3
        MOVX    @DPTR,A
        RET
        CFI EndBlock cfiCond156
        CFI EndBlock cfiCond157
        CFI EndBlock cfiCond158
        CFI EndBlock cfiCond159
        CFI EndBlock cfiCond160
        CFI EndBlock cfiCond161
        CFI EndBlock cfiCond162
        CFI EndBlock cfiPicker163

        RSEG XDATA_ID:CODE:NOROOT(0)
        DATA
`?<Initializer for zdoDiscCounter>`:
        DB 1

        RSEG XDATA_ID:CODE:NOROOT(0)
        DATA
`?<Initializer for continueJoining>`:
        DB 1

        RSEG XDATA_ID:CODE:NOROOT(0)
        DATA
`?<Initializer for devState>`:
        DB 1

        RSEG XDATA_ID:CODE:NOROOT(0)
        DATA
`?<Initializer for ZDApp_epDesc>`:
        DB 0
        DW ZDAppTaskID, 0H
        DB 0

        RSEG XDATA_ID:CODE:NOROOT(0)
        DATA
`?<Initializer for ZDApp_SavedPollRate>`:
        DW 1000

        RSEG XDATA_ROM_C:CONST:REORDER:NOROOT(0)
        DATA
__Constant_1:
        DD 1

        RSEG XDATA_ROM_C:CONST:REORDER:NOROOT(0)
        DATA
__Constant_0:
        DD 0

        RSEG XDATA_ROM_C:CONST:REORDER:NOROOT(0)
        DATA
__Constant_3e8:
        DD 1000

        RSEG BANK_RELAYS:CODE:REORDER:NOROOT(0)
??ZDApp_Init?relay:
        LCALL   ?BDISPATCH
        DATA
        DC24    ZDApp_Init

        RSEG BANK_RELAYS:CODE:REORDER:NOROOT(0)
??ZDApp_SecInit?relay:
        LCALL   ?BDISPATCH
        DATA
        DC24    ZDApp_SecInit

        RSEG BANK_RELAYS:CODE:REORDER:NOROOT(0)
??ZDApp_event_loop?relay:
        LCALL   ?BDISPATCH
        DATA
        DC24    ZDApp_event_loop

        RSEG BANK_RELAYS:CODE:REORDER:NOROOT(0)
??ZDApp_ProcessSecEvent?relay:
        LCALL   ?BDISPATCH
        DATA
        DC24    ZDApp_ProcessSecEvent

        RSEG BANK_RELAYS:CODE:REORDER:NOROOT(0)
??ZDOInitDevice?relay:
        LCALL   ?BDISPATCH
        DATA
        DC24    ZDOInitDevice

        RSEG BANK_RELAYS:CODE:REORDER:NOROOT(0)
??ZDApp_ReadNetworkRestoreState?relay:
        LCALL   ?BDISPATCH
        DATA
        DC24    ZDApp_ReadNetworkRestoreState

        RSEG BANK_RELAYS:CODE:REORDER:NOROOT(0)
??ZDAppDetermineDeviceType?relay:
        LCALL   ?BDISPATCH
        DATA
        DC24    ZDAppDetermineDeviceType

        RSEG BANK_RELAYS:CODE:REORDER:NOROOT(0)
??ZDApp_NetworkStartEvt?relay:
        LCALL   ?BDISPATCH
        DATA
        DC24    ZDApp_NetworkStartEvt

        RSEG BANK_RELAYS:CODE:REORDER:NOROOT(0)
??ZDApp_DeviceAuthEvt?relay:
        LCALL   ?BDISPATCH
        DATA
        DC24    ZDApp_DeviceAuthEvt

        RSEG BANK_RELAYS:CODE:REORDER:NOROOT(0)
??ZDApp_SaveNetworkStateEvt?relay:
        LCALL   ?BDISPATCH
        DATA
        DC24    ZDApp_SaveNetworkStateEvt

        RSEG BANK_RELAYS:CODE:REORDER:NOROOT(0)
??ZDApp_RestoreNetworkState?relay:
        LCALL   ?BDISPATCH
        DATA
        DC24    ZDApp_RestoreNetworkState

        RSEG BANK_RELAYS:CODE:REORDER:NOROOT(0)
??ZDApp_InitUserDesc?relay:
        LCALL   ?BDISPATCH
        DATA
        DC24    ZDApp_InitUserDesc

        RSEG BANK_RELAYS:CODE:REORDER:NOROOT(0)
??ZDAppCheckForHoldKey?relay:
        LCALL   ?BDISPATCH
        DATA
        DC24    ZDAppCheckForHoldKey

        RSEG BANK_RELAYS:CODE:REORDER:NOROOT(0)
??ZDApp_ProcessOSALMsg?relay:
        LCALL   ?BDISPATCH
        DATA
        DC24    ZDApp_ProcessOSALMsg

        RSEG BANK_RELAYS:CODE:REORDER:NOROOT(0)
??ZDApp_ProcessMsgCBs?relay:
        LCALL   ?BDISPATCH
        DATA
        DC24    ZDApp_ProcessMsgCBs

        RSEG BANK_RELAYS:CODE:REORDER:NOROOT(0)
??ZDApp_RegisterCBs?relay:
        LCALL   ?BDISPATCH
        DATA
        DC24    ZDApp_RegisterCBs

        RSEG BANK_RELAYS:CODE:REORDER:NOROOT(0)
??ZDApp_ProcessSecMsg?relay:
        LCALL   ?BDISPATCH
        DATA
        DC24    ZDApp_ProcessSecMsg

        RSEG BANK_RELAYS:CODE:REORDER:NOROOT(0)
??ZDApp_ProcessNetworkJoin?relay:
        LCALL   ?BDISPATCH
        DATA
        DC24    ZDApp_ProcessNetworkJoin

        RSEG BANK_RELAYS:CODE:REORDER:NOROOT(0)
??ZDApp_SaveNwkKey?relay:
        LCALL   ?BDISPATCH
        DATA
        DC24    ZDApp_SaveNwkKey

        RSEG BANK_RELAYS:CODE:REORDER:NOROOT(0)
??ZDApp_ResetNwkKey?relay:
        LCALL   ?BDISPATCH
        DATA
        DC24    ZDApp_ResetNwkKey

        RSEG BANK_RELAYS:CODE:REORDER:NOROOT(0)
??ZDApp_RestoreNwkKey?relay:
        LCALL   ?BDISPATCH
        DATA
        DC24    ZDApp_RestoreNwkKey

        RSEG BANK_RELAYS:CODE:REORDER:NOROOT(0)
??ZDApp_ResetTimerStart?relay:
        LCALL   ?BDISPATCH
        DATA
        DC24    ZDApp_ResetTimerStart

        RSEG BANK_RELAYS:CODE:REORDER:NOROOT(0)
??ZDApp_ResetTimerCancel?relay:
        LCALL   ?BDISPATCH
        DATA
        DC24    ZDApp_ResetTimerCancel

        RSEG BANK_RELAYS:CODE:REORDER:NOROOT(0)
??ZDApp_LeaveCtrlInit?relay:
        LCALL   ?BDISPATCH
        DATA
        DC24    ZDApp_LeaveCtrlInit

        RSEG BANK_RELAYS:CODE:REORDER:NOROOT(0)
??ZDApp_LeaveCtrlSet?relay:
        LCALL   ?BDISPATCH
        DATA
        DC24    ZDApp_LeaveCtrlSet

        RSEG BANK_RELAYS:CODE:REORDER:NOROOT(0)
??ZDApp_LeaveCtrlBypass?relay:
        LCALL   ?BDISPATCH
        DATA
        DC24    ZDApp_LeaveCtrlBypass

        RSEG BANK_RELAYS:CODE:REORDER:NOROOT(0)
??ZDApp_LeaveCtrlStartup?relay:
        LCALL   ?BDISPATCH
        DATA
        DC24    ZDApp_LeaveCtrlStartup

        RSEG BANK_RELAYS:CODE:REORDER:NOROOT(0)
??ZDApp_LeaveReset?relay:
        LCALL   ?BDISPATCH
        DATA
        DC24    ZDApp_LeaveReset

        RSEG BANK_RELAYS:CODE:REORDER:NOROOT(0)
??ZDApp_LeaveUpdate?relay:
        LCALL   ?BDISPATCH
        DATA
        DC24    ZDApp_LeaveUpdate

        RSEG BANK_RELAYS:CODE:REORDER:NOROOT(0)
??ZDApp_SendEventMsg?relay:
        LCALL   ?BDISPATCH
        DATA
        DC24    ZDApp_SendEventMsg

        RSEG BANK_RELAYS:CODE:REORDER:NOROOT(0)
??ZDApp_SendMsg?relay:
        LCALL   ?BDISPATCH
        DATA
        DC24    ZDApp_SendMsg

        RSEG BANK_RELAYS:CODE:REORDER:NOROOT(0)
??ZDO_NetworkDiscoveryConfirmCB?relay:
        LCALL   ?BDISPATCH
        DATA
        DC24    ZDO_NetworkDiscoveryConfirmCB

        RSEG BANK_RELAYS:CODE:REORDER:NOROOT(0)
??ZDO_NetworkFormationConfirmCB?relay:
        LCALL   ?BDISPATCH
        DATA
        DC24    ZDO_NetworkFormationConfirmCB

        RSEG BANK_RELAYS:CODE:REORDER:NOROOT(0)
??ZDO_StartRouterConfirmCB?relay:
        LCALL   ?BDISPATCH
        DATA
        DC24    ZDO_StartRouterConfirmCB

        RSEG BANK_RELAYS:CODE:REORDER:NOROOT(0)
??ZDO_JoinConfirmCB?relay:
        LCALL   ?BDISPATCH
        DATA
        DC24    ZDO_JoinConfirmCB

        RSEG BANK_RELAYS:CODE:REORDER:NOROOT(0)
??ZDO_AddrChangeIndicationCB?relay:
        LCALL   ?BDISPATCH
        DATA
        DC24    ZDO_AddrChangeIndicationCB

        RSEG BANK_RELAYS:CODE:REORDER:NOROOT(0)
??ZDO_JoinIndicationCB?relay:
        LCALL   ?BDISPATCH
        DATA
        DC24    ZDO_JoinIndicationCB

        RSEG BANK_RELAYS:CODE:REORDER:NOROOT(0)
??ZDO_ConcentratorIndicationCB?relay:
        LCALL   ?BDISPATCH
        DATA
        DC24    ZDO_ConcentratorIndicationCB

        RSEG BANK_RELAYS:CODE:REORDER:NOROOT(0)
??ZDO_LeaveCnf?relay:
        LCALL   ?BDISPATCH
        DATA
        DC24    ZDO_LeaveCnf

        RSEG BANK_RELAYS:CODE:REORDER:NOROOT(0)
??ZDO_LeaveInd?relay:
        LCALL   ?BDISPATCH
        DATA
        DC24    ZDO_LeaveInd

        RSEG BANK_RELAYS:CODE:REORDER:NOROOT(0)
??ZDO_SyncIndicationCB?relay:
        LCALL   ?BDISPATCH
        DATA
        DC24    ZDO_SyncIndicationCB

        RSEG BANK_RELAYS:CODE:REORDER:NOROOT(0)
??ZDO_ManytoOneFailureIndicationCB?relay:
        LCALL   ?BDISPATCH
        DATA
        DC24    ZDO_ManytoOneFailureIndicationCB

        RSEG BANK_RELAYS:CODE:REORDER:NOROOT(0)
??ZDO_PollConfirmCB?relay:
        LCALL   ?BDISPATCH
        DATA
        DC24    ZDO_PollConfirmCB

        RSEG BANK_RELAYS:CODE:REORDER:NOROOT(0)
??AddrMgrWriteNVRequest?relay:
        LCALL   ?BDISPATCH
        DATA
        DC24    AddrMgrWriteNVRequest

        RSEG BANK_RELAYS:CODE:REORDER:NOROOT(0)
??ZDO_UpdateDeviceIndication?relay:
        LCALL   ?BDISPATCH
        DATA
        DC24    ZDO_UpdateDeviceIndication

        RSEG BANK_RELAYS:CODE:REORDER:NOROOT(0)
??ZDApp_InMsgCB?relay:
        LCALL   ?BDISPATCH
        DATA
        DC24    ZDApp_InMsgCB

        RSEG BANK_RELAYS:CODE:REORDER:NOROOT(0)
??ZDApp_ChangeMatchDescRespPermission?relay:
        LCALL   ?BDISPATCH
        DATA
        DC24    ZDApp_ChangeMatchDescRespPermission

        RSEG BANK_RELAYS:CODE:REORDER:NOROOT(0)
??ZDApp_NetworkInit?relay:
        LCALL   ?BDISPATCH
        DATA
        DC24    ZDApp_NetworkInit

        RSEG BANK_RELAYS:CODE:REORDER:NOROOT(0)
??ZDApp_NwkStateUpdateCB?relay:
        LCALL   ?BDISPATCH
        DATA
        DC24    ZDApp_NwkStateUpdateCB

        RSEG BANK_RELAYS:CODE:REORDER:NOROOT(0)
??ZDApp_NodeProfileSync?relay:
        LCALL   ?BDISPATCH
        DATA
        DC24    ZDApp_NodeProfileSync

        RSEG BANK_RELAYS:CODE:REORDER:NOROOT(0)
??ZDApp_StartJoiningCycle?relay:
        LCALL   ?BDISPATCH
        DATA
        DC24    ZDApp_StartJoiningCycle

        RSEG BANK_RELAYS:CODE:REORDER:NOROOT(0)
??ZDApp_StopJoiningCycle?relay:
        LCALL   ?BDISPATCH
        DATA
        DC24    ZDApp_StopJoiningCycle

        RSEG BANK_RELAYS:CODE:REORDER:NOROOT(0)
??ZDApp_AnnounceNewAddress?relay:
        LCALL   ?BDISPATCH
        DATA
        DC24    ZDApp_AnnounceNewAddress

        RSEG BANK_RELAYS:CODE:REORDER:NOROOT(0)
??ZDApp_NVUpdate?relay:
        LCALL   ?BDISPATCH
        DATA
        DC24    ZDApp_NVUpdate

        RSEG BANK_RELAYS:CODE:REORDER:NOROOT(0)
??ZDApp_CoordStartPANIDConflictCB?relay:
        LCALL   ?BDISPATCH
        DATA
        DC24    ZDApp_CoordStartPANIDConflictCB

        RSEG BANK_RELAYS:CODE:REORDER:NOROOT(0)
??ZDO_SrcRtgIndCB?relay:
        LCALL   ?BDISPATCH
        DATA
        DC24    ZDO_SrcRtgIndCB

        RSEG BANK_RELAYS:CODE:REORDER:NOROOT(0)
??ZDO_RegisterForZdoCB?relay:
        LCALL   ?BDISPATCH
        DATA
        DC24    ZDO_RegisterForZdoCB

        END
// 2696 
// 2697 /*********************************************************************
// 2698 *********************************************************************/
// 
// 4 068 bytes in segment BANKED_CODE
//   342 bytes in segment BANK_RELAYS
//    11 bytes in segment XDATA_I
//    11 bytes in segment XDATA_ID
//    12 bytes in segment XDATA_ROM_C
//    45 bytes in segment XDATA_Z
// 
// 4 421 bytes of CODE  memory
//     0 bytes of CONST memory (+ 12 bytes shared)
//    56 bytes of XDATA memory
//
//Errors: none
//Warnings: none
