///////////////////////////////////////////////////////////////////////////////
//
// IAR C/C++ Compiler V10.20.1.5333 for 8051              12/Sep/2018  17:17:16
// Copyright 2004-2018 IAR Systems AB.
// Evaluation license - IAR Embedded Workbench for 8051, Evaluation version 10.20
//
//    Core               =  plain
//    Code model         =  banked
//    Data model         =  large
//    Calling convention =  xdata reentrant
//    Constant location  =  data_rom
//    Dptr setup         =  1,16
//                          
//    Source file        =  
//        C:\Users\Ananda
//        Utama\Documents\RMIT2018\WSN\ZStack-CC2530-2.3.1\Components\osal\common\OSAL.c
//    Command line       =  
//        -f C:\Users\ANANDA~1\AppData\Local\Temp\EWCDA3.tmp ("C:\Users\Ananda
//        Utama\Documents\RMIT2018\WSN\ZStack-CC2530-2.3.1\Components\osal\common\OSAL.c"
//        -D ZTOOL_P1 -D MT_TASK -D MT_SYS_FUNC -D MT_ZDO_FUNC -D
//        LCD_SUPPORTED=DEBUG -lC "C:\Users\Ananda
//        Utama\Documents\RMIT2018\WSN\ZStack-CC2530-2.3.1\Projects\zstack\Samples\SampleApp\CC2530DB\RouterEB\List"
//        -lA "C:\Users\Ananda
//        Utama\Documents\RMIT2018\WSN\ZStack-CC2530-2.3.1\Projects\zstack\Samples\SampleApp\CC2530DB\RouterEB\List"
//        --diag_suppress Pe001,Pa010 -o "C:\Users\Ananda
//        Utama\Documents\RMIT2018\WSN\ZStack-CC2530-2.3.1\Projects\zstack\Samples\SampleApp\CC2530DB\RouterEB\Obj"
//        -e --debug --core=plain --dptr=16,1 --data_model=large
//        --code_model=banked --calling_convention=xdata_reentrant
//        --place_constants=data_rom --nr_virtual_regs 8 -f "C:\Users\Ananda
//        Utama\Documents\RMIT2018\WSN\ZStack-CC2530-2.3.1\Projects\zstack\Samples\SampleApp\CC2530DB\..\..\..\Tools\CC2530DB\f8wRouter.cfg"
//        (-DCPU32MHZ -DROOT=__near_func -DMAC_CFG_APP_PENDING_QUEUE=TRUE
//        -DMAC_CFG_TX_DATA_MAX=5 -DMAC_CFG_TX_MAX=8 -DMAC_CFG_RX_MAX=5
//        -DRTR_NWK) -f "C:\Users\Ananda
//        Utama\Documents\RMIT2018\WSN\ZStack-CC2530-2.3.1\Projects\zstack\Samples\SampleApp\CC2530DB\..\..\..\Tools\CC2530DB\f8wConfig.cfg"
//        (-DSECURE=0 -DZG_SECURE_DYNAMIC=0 -DREFLECTOR
//        -DDEFAULT_CHANLIST=0x00000800 -DZDAPP_CONFIG_PAN_ID=0xFFFF
//        -DNWK_START_DELAY=100 -DEXTENDED_JOINING_RANDOM_MASK=0x007F
//        -DBEACON_REQUEST_DELAY=100 -DBEACON_REQ_DELAY_MASK=0x00FF
//        -DLINK_STATUS_JITTER_MASK=0x007F -DROUTE_EXPIRY_TIME=30
//        -DAPSC_ACK_WAIT_DURATION_POLLED=3000 -DNWK_INDIRECT_MSG_TIMEOUT=7
//        -DMAX_RREQ_ENTRIES=8 -DAPSC_MAX_FRAME_RETRIES=3
//        -DNWK_MAX_DATA_RETRIES=2 -DMAX_POLL_FAILURE_RETRIES=2 -DMAX_BCAST=9
//        -DAPS_MAX_GROUPS=16 -DMAX_RTG_ENTRIES=40 -DNWK_MAX_BINDING_ENTRIES=4
//        -DMAX_BINDING_CLUSTER_IDS=4 "-DDEFAULT_KEY={0x01, 0x03, 0x05, 0x07,
//        0x09, 0x0B, 0x0D, 0x0F, 0x00, 0x02, 0x04, 0x06, 0x08, 0x0A, 0x0C,
//        0x0D}" -DMAC_MAX_FRAME_SIZE=116 -DZDNWKMGR_MIN_TRANSMISSIONS=20
//        "-DCONST=const __code" -DGENERIC=__generic -DRFD_RCVC_ALWAYS_ON=FALSE
//        -DPOLL_RATE=1000 -DQUEUED_POLL_RATE=100 -DRESPONSE_POLL_RATE=100
//        -DREJOIN_POLL_RATE=440) -I "C:\Users\Ananda
//        Utama\Documents\RMIT2018\WSN\ZStack-CC2530-2.3.1\Projects\zstack\Samples\SampleApp\CC2530DB\"
//        -I "C:\Users\Ananda
//        Utama\Documents\RMIT2018\WSN\ZStack-CC2530-2.3.1\Projects\zstack\Samples\SampleApp\CC2530DB\..\SOURCE\"
//        -I "C:\Users\Ananda
//        Utama\Documents\RMIT2018\WSN\ZStack-CC2530-2.3.1\Projects\zstack\Samples\SampleApp\CC2530DB\..\..\..\ZMAIN\TI2530DB\"
//        -I "C:\Users\Ananda
//        Utama\Documents\RMIT2018\WSN\ZStack-CC2530-2.3.1\Projects\zstack\Samples\SampleApp\CC2530DB\..\..\..\..\..\COMPONENTS\MT\"
//        -I "C:\Users\Ananda
//        Utama\Documents\RMIT2018\WSN\ZStack-CC2530-2.3.1\Projects\zstack\Samples\SampleApp\CC2530DB\..\..\..\..\..\COMPONENTS\HAL\INCLUDE\"
//        -I "C:\Users\Ananda
//        Utama\Documents\RMIT2018\WSN\ZStack-CC2530-2.3.1\Projects\zstack\Samples\SampleApp\CC2530DB\..\..\..\..\..\COMPONENTS\HAL\TARGET\CC2530EB\"
//        -I "C:\Users\Ananda
//        Utama\Documents\RMIT2018\WSN\ZStack-CC2530-2.3.1\Projects\zstack\Samples\SampleApp\CC2530DB\..\..\..\..\..\COMPONENTS\OSAL\MCU\CCSOC\"
//        -I "C:\Users\Ananda
//        Utama\Documents\RMIT2018\WSN\ZStack-CC2530-2.3.1\Projects\zstack\Samples\SampleApp\CC2530DB\..\..\..\..\..\COMPONENTS\OSAL\INCLUDE\"
//        -I "C:\Users\Ananda
//        Utama\Documents\RMIT2018\WSN\ZStack-CC2530-2.3.1\Projects\zstack\Samples\SampleApp\CC2530DB\..\..\..\..\..\COMPONENTS\STACK\AF\"
//        -I "C:\Users\Ananda
//        Utama\Documents\RMIT2018\WSN\ZStack-CC2530-2.3.1\Projects\zstack\Samples\SampleApp\CC2530DB\..\..\..\..\..\COMPONENTS\STACK\NWK\"
//        -I "C:\Users\Ananda
//        Utama\Documents\RMIT2018\WSN\ZStack-CC2530-2.3.1\Projects\zstack\Samples\SampleApp\CC2530DB\..\..\..\..\..\COMPONENTS\STACK\SEC\"
//        -I "C:\Users\Ananda
//        Utama\Documents\RMIT2018\WSN\ZStack-CC2530-2.3.1\Projects\zstack\Samples\SampleApp\CC2530DB\..\..\..\..\..\COMPONENTS\STACK\SAPI\"
//        -I "C:\Users\Ananda
//        Utama\Documents\RMIT2018\WSN\ZStack-CC2530-2.3.1\Projects\zstack\Samples\SampleApp\CC2530DB\..\..\..\..\..\COMPONENTS\STACK\SYS\"
//        -I "C:\Users\Ananda
//        Utama\Documents\RMIT2018\WSN\ZStack-CC2530-2.3.1\Projects\zstack\Samples\SampleApp\CC2530DB\..\..\..\..\..\COMPONENTS\STACK\ZDO\"
//        -I "C:\Users\Ananda
//        Utama\Documents\RMIT2018\WSN\ZStack-CC2530-2.3.1\Projects\zstack\Samples\SampleApp\CC2530DB\..\..\..\..\..\COMPONENTS\ZMAC\F8W\"
//        -I "C:\Users\Ananda
//        Utama\Documents\RMIT2018\WSN\ZStack-CC2530-2.3.1\Projects\zstack\Samples\SampleApp\CC2530DB\..\..\..\..\..\COMPONENTS\ZMAC\"
//        -I "C:\Users\Ananda
//        Utama\Documents\RMIT2018\WSN\ZStack-CC2530-2.3.1\Projects\zstack\Samples\SampleApp\CC2530DB\..\..\..\..\..\COMPONENTS\SERVICES\SADDR\"
//        -I "C:\Users\Ananda
//        Utama\Documents\RMIT2018\WSN\ZStack-CC2530-2.3.1\Projects\zstack\Samples\SampleApp\CC2530DB\..\..\..\..\..\COMPONENTS\SERVICES\SDATA\"
//        -I "C:\Users\Ananda
//        Utama\Documents\RMIT2018\WSN\ZStack-CC2530-2.3.1\Projects\zstack\Samples\SampleApp\CC2530DB\..\..\..\..\..\COMPONENTS\MAC\INCLUDE\"
//        -I "C:\Users\Ananda
//        Utama\Documents\RMIT2018\WSN\ZStack-CC2530-2.3.1\Projects\zstack\Samples\SampleApp\CC2530DB\..\..\..\..\..\COMPONENTS\MAC\HIGH_LEVEL\"
//        -I "C:\Users\Ananda
//        Utama\Documents\RMIT2018\WSN\ZStack-CC2530-2.3.1\Projects\zstack\Samples\SampleApp\CC2530DB\..\..\..\..\..\COMPONENTS\MAC\LOW_LEVEL\srf04\"
//        -I "C:\Users\Ananda
//        Utama\Documents\RMIT2018\WSN\ZStack-CC2530-2.3.1\Projects\zstack\Samples\SampleApp\CC2530DB\..\..\..\..\..\COMPONENTS\MAC\LOW_LEVEL\srf04\SINGLE_CHIP\"
//        -Ohz --require_prototypes)
//    Locale             =  English_USA.1252
//    List file          =  
//        C:\Users\Ananda
//        Utama\Documents\RMIT2018\WSN\ZStack-CC2530-2.3.1\Projects\zstack\Samples\SampleApp\CC2530DB\RouterEB\List\OSAL.s51
//
///////////////////////////////////////////////////////////////////////////////

        NAME OSAL

        RTMODEL "__SystemLibrary", "CLib"
        RTMODEL "__calling_convention", "xdata_reentrant"
        RTMODEL "__code_model", "banked"
        RTMODEL "__core", "plain"
        RTMODEL "__data_model", "large"
        RTMODEL "__dptr_size", "16"
        RTMODEL "__extended_stack", "disabled"
        RTMODEL "__location_for_constants", "data"
        RTMODEL "__number_of_dptrs", "1"
        RTMODEL "__register_banks", "*"
        RTMODEL "__rt_version", "1"

        RSEG DOVERLAY:DATA:NOROOT(0)
        RSEG IOVERLAY:IDATA:NOROOT(0)
        RSEG ISTACK:IDATA:NOROOT(0)
        RSEG PSTACK:XDATA:NOROOT(0)
        RSEG XSTACK:XDATA:NOROOT(0)

        EXTERN ?V0
        EXTERN ?V1
        EXTERN ?V2
        EXTERN ?V4
        EXTERN ?V5
        EXTERN ?V6
        EXTERN ?V7
        EXTERN ?V3
        EXTERN ?ALLOC_XSTACK8
        EXTERN ?BANKED_ENTER_XDATA
        EXTERN ?BANKED_LEAVE_XDATA
        EXTERN ?BDISPATCH
        EXTERN ?BRET
        EXTERN ?CALL_IND
        EXTERN ?C_GPTR_LOAD
        EXTERN ?DEALLOC_XSTACK8
        EXTERN ?L_ADD
        EXTERN ?L_MOV_X
        EXTERN ?L_SHL
        EXTERN ?MOVE_LONG8_XDATA_XDATA
        EXTERN ?PUSH_XSTACK_I_THREE
        EXTERN ?PUSH_XSTACK_I_TWO
        EXTERN ?UL_DIV_MOD
        EXTERN ?UL_SHR
        EXTERN ?XSP
        EXTERN ?XSTACK_DISP0_8
        EXTERN ?XSTACK_DISP101_8
        EXTERN ?XSTACK_DISP102_8
        EXTERN __INIT_XDATA_Z

        PUBLIC `??_ltoa::?relay`
        FUNCTION `??_ltoa::?relay`,0203H
        PUBLIC `??osal_buffer_uint24::?relay`
        FUNCTION `??osal_buffer_uint24::?relay`,0203H
        PUBLIC `??osal_buffer_uint32::?relay`
        FUNCTION `??osal_buffer_uint32::?relay`,0203H
        PUBLIC `??osal_build_uint16::?relay`
        FUNCTION `??osal_build_uint16::?relay`,0203H
        PUBLIC `??osal_build_uint32::?relay`
        FUNCTION `??osal_build_uint32::?relay`,0203H
        PUBLIC `??osal_clear_event::?relay`
        FUNCTION `??osal_clear_event::?relay`,0203H
        PUBLIC `??osal_init_system::?relay`
        FUNCTION `??osal_init_system::?relay`,0203H
        PUBLIC `??osal_int_disable::?relay`
        FUNCTION `??osal_int_disable::?relay`,0203H
        PUBLIC `??osal_int_enable::?relay`
        FUNCTION `??osal_int_enable::?relay`,0203H
        PUBLIC `??osal_isr_register::?relay`
        FUNCTION `??osal_isr_register::?relay`,0203H
        PUBLIC `??osal_memcmp::?relay`
        FUNCTION `??osal_memcmp::?relay`,0203H
        PUBLIC `??osal_memcpy::?relay`
        FUNCTION `??osal_memcpy::?relay`,0203H
        PUBLIC `??osal_memdup::?relay`
        FUNCTION `??osal_memdup::?relay`,0203H
        PUBLIC `??osal_memset::?relay`
        FUNCTION `??osal_memset::?relay`,0203H
        PUBLIC `??osal_msg_allocate::?relay`
        FUNCTION `??osal_msg_allocate::?relay`,0203H
        PUBLIC `??osal_msg_deallocate::?relay`
        FUNCTION `??osal_msg_deallocate::?relay`,0203H
        PUBLIC `??osal_msg_dequeue::?relay`
        FUNCTION `??osal_msg_dequeue::?relay`,0203H
        PUBLIC `??osal_msg_enqueue::?relay`
        FUNCTION `??osal_msg_enqueue::?relay`,0203H
        PUBLIC `??osal_msg_enqueue_max::?relay`
        FUNCTION `??osal_msg_enqueue_max::?relay`,0203H
        PUBLIC `??osal_msg_extract::?relay`
        FUNCTION `??osal_msg_extract::?relay`,0203H
        PUBLIC `??osal_msg_find::?relay`
        FUNCTION `??osal_msg_find::?relay`,0203H
        PUBLIC `??osal_msg_push::?relay`
        FUNCTION `??osal_msg_push::?relay`,0203H
        PUBLIC `??osal_msg_receive::?relay`
        FUNCTION `??osal_msg_receive::?relay`,0203H
        PUBLIC `??osal_msg_send::?relay`
        FUNCTION `??osal_msg_send::?relay`,0203H
        PUBLIC `??osal_rand::?relay`
        FUNCTION `??osal_rand::?relay`,0203H
        PUBLIC `??osal_revmemcpy::?relay`
        FUNCTION `??osal_revmemcpy::?relay`,0203H
        PUBLIC `??osal_set_event::?relay`
        FUNCTION `??osal_set_event::?relay`,0203H
        PUBLIC `??osal_start_system::?relay`
        FUNCTION `??osal_start_system::?relay`,0203H
        PUBLIC `??osal_strlen::?relay`
        FUNCTION `??osal_strlen::?relay`,0203H
        PUBWEAK _A_IEN0
        PUBWEAK __Constant_2710
        PUBWEAK __Constant_5f5e100
        PUBLIC _ltoa
        FUNCTION _ltoa,0a1203H
        ARGFRAME XSTACK, 2, STACK
        LOCFRAME ISTACK, 1, STACK
        LOCFRAME XSTACK, 55, STACK
        PUBLIC osal_buffer_uint24
        FUNCTION osal_buffer_uint24,080203H
        ARGFRAME XSTACK, 4, STACK
        LOCFRAME ISTACK, 1, STACK
        LOCFRAME XSTACK, 16, STACK
        PUBLIC osal_buffer_uint32
        FUNCTION osal_buffer_uint32,080203H
        ARGFRAME XSTACK, 4, STACK
        LOCFRAME ISTACK, 1, STACK
        LOCFRAME XSTACK, 16, STACK
        PUBLIC osal_build_uint16
        FUNCTION osal_build_uint16,0203H
        ARGFRAME XSTACK, 0, STACK
        LOCFRAME ISTACK, 2, STACK
        PUBLIC osal_build_uint32
        FUNCTION osal_build_uint32,080203H
        ARGFRAME XSTACK, 0, STACK
        LOCFRAME XSTACK, 16, STACK
        PUBLIC osal_clear_event
        FUNCTION osal_clear_event,0203H
        ARGFRAME XSTACK, 12, STACK
        ARGFRAME IOVERLAY, 0, STATIC
        ARGFRAME DOVERLAY, 0, STATIC
        LOCFRAME XSTACK, 9, STACK
        PUBLIC osal_init_system
        FUNCTION osal_init_system,021203H
        ARGFRAME XSTACK, 0, STACK
        LOCFRAME ISTACK, 2, STACK
        PUBLIC osal_int_disable
        FUNCTION osal_int_disable,0203H
        ARGFRAME XSTACK, 0, STACK
        PUBLIC osal_int_enable
        FUNCTION osal_int_enable,0203H
        ARGFRAME XSTACK, 0, STACK
        PUBLIC osal_isr_register
        FUNCTION osal_isr_register,0203H
        ARGFRAME XSTACK, 0, STACK
        PUBLIC osal_memcmp
        FUNCTION osal_memcmp,080203H
        ARGFRAME XSTACK, 3, STACK
        LOCFRAME XSTACK, 18, STACK
        PUBLIC osal_memcpy
        FUNCTION osal_memcpy,0203H
        ARGFRAME XSTACK, 19, STACK
        ARGFRAME IOVERLAY, 0, STATIC
        ARGFRAME DOVERLAY, 0, STATIC
        LOCFRAME ISTACK, 1, STACK
        LOCFRAME XSTACK, 9, STACK
        PUBLIC osal_memdup
        FUNCTION osal_memdup,0a1203H
        ARGFRAME XSTACK, 0, STACK
        LOCFRAME XSTACK, 19, STACK
        PUBLIC osal_memset
        FUNCTION osal_memset,0a1203H
        ARGFRAME XSTACK, 0, STACK
        LOCFRAME XSTACK, 12, STACK
        PUBLIC osal_msg_allocate
        FUNCTION osal_msg_allocate,0a1203H
        ARGFRAME XSTACK, 0, STACK
        LOCFRAME XSTACK, 10, STACK
        PUBLIC osal_msg_deallocate
        FUNCTION osal_msg_deallocate,021203H
        ARGFRAME XSTACK, 9, STACK
        ARGFRAME IOVERLAY, 0, STATIC
        ARGFRAME DOVERLAY, 0, STATIC
        LOCFRAME ISTACK, 2, STACK
        PUBLIC osal_msg_dequeue
        FUNCTION osal_msg_dequeue,080203H
        ARGFRAME XSTACK, 0, STACK
        LOCFRAME XSTACK, 10, STACK
        PUBLIC osal_msg_enqueue
        FUNCTION osal_msg_enqueue,0203H
        ARGFRAME XSTACK, 9, STACK
        ARGFRAME IOVERLAY, 0, STATIC
        ARGFRAME DOVERLAY, 0, STATIC
        LOCFRAME XSTACK, 9, STACK
        PUBLIC osal_msg_enqueue_max
        FUNCTION osal_msg_enqueue_max,080203H
        ARGFRAME XSTACK, 0, STACK
        LOCFRAME XSTACK, 10, STACK
        PUBLIC osal_msg_extract
        FUNCTION osal_msg_extract,080203H
        ARGFRAME XSTACK, 14, STACK
        ARGFRAME IOVERLAY, 0, STATIC
        ARGFRAME DOVERLAY, 0, STATIC
        LOCFRAME XSTACK, 12, STACK
        PUBLIC osal_msg_find
        FUNCTION osal_msg_find,0203H
        ARGFRAME XSTACK, 0, STACK
        LOCFRAME ISTACK, 2, STACK
        PUBLIC osal_msg_push
        FUNCTION osal_msg_push,0203H
        ARGFRAME XSTACK, 0, STACK
        LOCFRAME XSTACK, 9, STACK
        PUBLIC osal_msg_receive
        FUNCTION osal_msg_receive,0a1203H
        ARGFRAME XSTACK, 0, STACK
        LOCFRAME XSTACK, 14, STACK
        PUBLIC osal_msg_send
        FUNCTION osal_msg_send,021203H
        ARGFRAME XSTACK, 0, STACK
        LOCFRAME ISTACK, 1, STACK
        LOCFRAME XSTACK, 9, STACK
        PUBLIC osal_qHead
        PUBLIC osal_rand
        FUNCTION osal_rand,021203H
        ARGFRAME XSTACK, 0, STACK
        LOCFRAME ISTACK, 2, STACK
        PUBLIC osal_revmemcpy
        FUNCTION osal_revmemcpy,0203H
        ARGFRAME XSTACK, 3, STACK
        LOCFRAME ISTACK, 1, STACK
        LOCFRAME XSTACK, 9, STACK
        PUBLIC osal_set_event
        FUNCTION osal_set_event,0203H
        ARGFRAME XSTACK, 12, STACK
        ARGFRAME IOVERLAY, 0, STATIC
        ARGFRAME DOVERLAY, 0, STATIC
        LOCFRAME XSTACK, 9, STACK
        PUBLIC osal_start_system
        FUNCTION osal_start_system,0a1203H
        ARGFRAME XSTACK, 0, STACK
        LOCFRAME XSTACK, 10, STACK
        PUBLIC osal_strlen
        FUNCTION osal_strlen,021203H
        ARGFRAME XSTACK, 0, STACK
        LOCFRAME ISTACK, 2, STACK
        
          CFI Names cfiNames0
          CFI StackFrame CFA_SP SP IDATA
          CFI StackFrame CFA_PSP16 PSP16 XDATA
          CFI StackFrame CFA_XSP16 XSP16 XDATA
          CFI StaticOverlayFrame CFA_IOVERLAY IOVERLAY
          CFI StaticOverlayFrame CFA_DOVERLAY DOVERLAY
          CFI Resource `PSW.CY`:1, `B.BR0`:1, `B.BR1`:1, `B.BR2`:1, `B.BR3`:1
          CFI Resource `B.BR4`:1, `B.BR5`:1, `B.BR6`:1, `B.BR7`:1, `VB.BR8`:1
          CFI Resource `VB.BR9`:1, `VB.BR10`:1, `VB.BR11`:1, `VB.BR12`:1
          CFI Resource `VB.BR13`:1, `VB.BR14`:1, `VB.BR15`:1, VB:8, B:8, A:8
          CFI Resource PSW:8, DPL0:8, DPH0:8, R0:8, R1:8, R2:8, R3:8, R4:8, R5:8
          CFI Resource R6:8, R7:8, V0:8, V1:8, V2:8, V3:8, V4:8, V5:8, V6:8, V7:8
          CFI Resource SP:8, PSPH:8, PSPL:8, PSP16:16, XSPH:8, XSPL:8, XSP16:16
          CFI VirtualResource ?RET:24
          CFI Resource ?BRET_EXT:8
          CFI VirtualResource ?RET_HIGH:8, ?RET_LOW:8
          CFI ResourceParts PSP16 PSPH, PSPL
          CFI ResourceParts XSP16 XSPH, XSPL
          CFI ResourceParts ?RET ?BRET_EXT, ?RET_HIGH, ?RET_LOW
          CFI EndNames cfiNames0
        
          CFI Common cfiCommon0 Using cfiNames0
          CFI CodeAlign 1
          CFI DataAlign -1
          CFI ReturnAddress ?RET CODE
          CFI CFA_DOVERLAY Used
          CFI CFA_IOVERLAY Used
          CFI CFA_SP SP+-3
          CFI CFA_PSP16 PSP16+0
          CFI CFA_XSP16 XSP16+0
          CFI `PSW.CY` SameValue
          CFI `B.BR0` SameValue
          CFI `B.BR1` SameValue
          CFI `B.BR2` SameValue
          CFI `B.BR3` SameValue
          CFI `B.BR4` SameValue
          CFI `B.BR5` SameValue
          CFI `B.BR6` SameValue
          CFI `B.BR7` SameValue
          CFI `VB.BR8` SameValue
          CFI `VB.BR9` SameValue
          CFI `VB.BR10` SameValue
          CFI `VB.BR11` SameValue
          CFI `VB.BR12` SameValue
          CFI `VB.BR13` SameValue
          CFI `VB.BR14` SameValue
          CFI `VB.BR15` SameValue
          CFI VB SameValue
          CFI B Undefined
          CFI A Undefined
          CFI PSW SameValue
          CFI DPL0 SameValue
          CFI DPH0 SameValue
          CFI R0 Undefined
          CFI R1 Undefined
          CFI R2 Undefined
          CFI R3 Undefined
          CFI R4 Undefined
          CFI R5 Undefined
          CFI R6 SameValue
          CFI R7 SameValue
          CFI V0 SameValue
          CFI V1 SameValue
          CFI V2 SameValue
          CFI V3 SameValue
          CFI V4 SameValue
          CFI V5 SameValue
          CFI V6 SameValue
          CFI V7 SameValue
          CFI PSPH Undefined
          CFI PSPL Undefined
          CFI XSPH Undefined
          CFI XSPL Undefined
          CFI ?RET Concat
          CFI ?BRET_EXT Frame(CFA_SP, 3)
          CFI ?RET_HIGH Frame(CFA_SP, 2)
          CFI ?RET_LOW Frame(CFA_SP, 1)
          CFI EndCommon cfiCommon0
        
        
          CFI Common cfiCommon1 Using cfiNames0
          CFI CodeAlign 1
          CFI DataAlign -1
          CFI ReturnAddress ?RET CODE
          CFI CFA_DOVERLAY Used
          CFI CFA_IOVERLAY Used
          CFI CFA_SP SP+-2
          CFI CFA_PSP16 PSP16+0
          CFI CFA_XSP16 XSP16+0
          CFI `PSW.CY` SameValue
          CFI `B.BR0` SameValue
          CFI `B.BR1` SameValue
          CFI `B.BR2` SameValue
          CFI `B.BR3` SameValue
          CFI `B.BR4` SameValue
          CFI `B.BR5` SameValue
          CFI `B.BR6` SameValue
          CFI `B.BR7` SameValue
          CFI `VB.BR8` SameValue
          CFI `VB.BR9` SameValue
          CFI `VB.BR10` SameValue
          CFI `VB.BR11` SameValue
          CFI `VB.BR12` SameValue
          CFI `VB.BR13` SameValue
          CFI `VB.BR14` SameValue
          CFI `VB.BR15` SameValue
          CFI VB SameValue
          CFI B SameValue
          CFI A SameValue
          CFI PSW SameValue
          CFI DPL0 SameValue
          CFI DPH0 SameValue
          CFI R0 SameValue
          CFI R1 SameValue
          CFI R2 SameValue
          CFI R3 SameValue
          CFI R4 SameValue
          CFI R5 SameValue
          CFI R6 SameValue
          CFI R7 SameValue
          CFI V0 SameValue
          CFI V1 SameValue
          CFI V2 SameValue
          CFI V3 SameValue
          CFI V4 SameValue
          CFI V5 SameValue
          CFI V6 SameValue
          CFI V7 SameValue
          CFI PSPH Undefined
          CFI PSPL Undefined
          CFI XSPH Undefined
          CFI XSPL Undefined
          CFI ?RET Concat
          CFI ?BRET_EXT SameValue
          CFI ?RET_HIGH Frame(CFA_SP, 2)
          CFI ?RET_LOW Frame(CFA_SP, 1)
          CFI EndCommon cfiCommon1
        
Hal_ProcessPoll     SYMBOL "Hal_ProcessPoll"
`??Hal_ProcessPoll::?relay` SYMBOL "?relay", Hal_ProcessPoll
Onboard_rand        SYMBOL "Onboard_rand"
`??Onboard_rand::?relay` SYMBOL "?relay", Onboard_rand
_itoa               SYMBOL "_itoa"
`??_itoa::?relay`   SYMBOL "?relay", _itoa
memset              SYMBOL "memset"
`??memset::?relay`  SYMBOL "?relay", memset
osalInitTasks       SYMBOL "osalInitTasks"
`??osalInitTasks::?relay` SYMBOL "?relay", osalInitTasks
osalTimeUpdate      SYMBOL "osalTimeUpdate"
`??osalTimeUpdate::?relay` SYMBOL "?relay", osalTimeUpdate
osalTimerInit       SYMBOL "osalTimerInit"
`??osalTimerInit::?relay` SYMBOL "?relay", osalTimerInit
osal_mem_alloc      SYMBOL "osal_mem_alloc"
`??osal_mem_alloc::?relay` SYMBOL "?relay", osal_mem_alloc
osal_mem_free       SYMBOL "osal_mem_free"
`??osal_mem_free::?relay` SYMBOL "?relay", osal_mem_free
osal_mem_init       SYMBOL "osal_mem_init"
`??osal_mem_init::?relay` SYMBOL "?relay", osal_mem_init
osal_mem_kick       SYMBOL "osal_mem_kick"
`??osal_mem_kick::?relay` SYMBOL "?relay", osal_mem_kick
osal_pwrmgr_init    SYMBOL "osal_pwrmgr_init"
`??osal_pwrmgr_init::?relay` SYMBOL "?relay", osal_pwrmgr_init
strcat              SYMBOL "strcat"
`??strcat::?relay`  SYMBOL "?relay", strcat
strcpy              SYMBOL "strcpy"
`??strcpy::?relay`  SYMBOL "?relay", strcpy
strlen              SYMBOL "strlen"
`??strlen::?relay`  SYMBOL "?relay", strlen
_ltoa               SYMBOL "_ltoa"
`??_ltoa::?relay`   SYMBOL "?relay", _ltoa
osal_buffer_uint24  SYMBOL "osal_buffer_uint24"
`??osal_buffer_uint24::?relay` SYMBOL "?relay", osal_buffer_uint24
osal_buffer_uint32  SYMBOL "osal_buffer_uint32"
`??osal_buffer_uint32::?relay` SYMBOL "?relay", osal_buffer_uint32
osal_build_uint16   SYMBOL "osal_build_uint16"
`??osal_build_uint16::?relay` SYMBOL "?relay", osal_build_uint16
osal_build_uint32   SYMBOL "osal_build_uint32"
`??osal_build_uint32::?relay` SYMBOL "?relay", osal_build_uint32
osal_clear_event    SYMBOL "osal_clear_event"
`??osal_clear_event::?relay` SYMBOL "?relay", osal_clear_event
osal_init_system    SYMBOL "osal_init_system"
`??osal_init_system::?relay` SYMBOL "?relay", osal_init_system
osal_int_disable    SYMBOL "osal_int_disable"
`??osal_int_disable::?relay` SYMBOL "?relay", osal_int_disable
osal_int_enable     SYMBOL "osal_int_enable"
`??osal_int_enable::?relay` SYMBOL "?relay", osal_int_enable
osal_isr_register   SYMBOL "osal_isr_register"
`??osal_isr_register::?relay` SYMBOL "?relay", osal_isr_register
osal_memcmp         SYMBOL "osal_memcmp"
`??osal_memcmp::?relay` SYMBOL "?relay", osal_memcmp
osal_memcpy         SYMBOL "osal_memcpy"
`??osal_memcpy::?relay` SYMBOL "?relay", osal_memcpy
osal_memdup         SYMBOL "osal_memdup"
`??osal_memdup::?relay` SYMBOL "?relay", osal_memdup
osal_memset         SYMBOL "osal_memset"
`??osal_memset::?relay` SYMBOL "?relay", osal_memset
osal_msg_allocate   SYMBOL "osal_msg_allocate"
`??osal_msg_allocate::?relay` SYMBOL "?relay", osal_msg_allocate
osal_msg_deallocate SYMBOL "osal_msg_deallocate"
`??osal_msg_deallocate::?relay` SYMBOL "?relay", osal_msg_deallocate
osal_msg_dequeue    SYMBOL "osal_msg_dequeue"
`??osal_msg_dequeue::?relay` SYMBOL "?relay", osal_msg_dequeue
osal_msg_enqueue    SYMBOL "osal_msg_enqueue"
`??osal_msg_enqueue::?relay` SYMBOL "?relay", osal_msg_enqueue
osal_msg_enqueue_max SYMBOL "osal_msg_enqueue_max"
`??osal_msg_enqueue_max::?relay` SYMBOL "?relay", osal_msg_enqueue_max
osal_msg_extract    SYMBOL "osal_msg_extract"
`??osal_msg_extract::?relay` SYMBOL "?relay", osal_msg_extract
osal_msg_find       SYMBOL "osal_msg_find"
`??osal_msg_find::?relay` SYMBOL "?relay", osal_msg_find
osal_msg_push       SYMBOL "osal_msg_push"
`??osal_msg_push::?relay` SYMBOL "?relay", osal_msg_push
osal_msg_receive    SYMBOL "osal_msg_receive"
`??osal_msg_receive::?relay` SYMBOL "?relay", osal_msg_receive
osal_msg_send       SYMBOL "osal_msg_send"
`??osal_msg_send::?relay` SYMBOL "?relay", osal_msg_send
osal_rand           SYMBOL "osal_rand"
`??osal_rand::?relay` SYMBOL "?relay", osal_rand
osal_revmemcpy      SYMBOL "osal_revmemcpy"
`??osal_revmemcpy::?relay` SYMBOL "?relay", osal_revmemcpy
osal_set_event      SYMBOL "osal_set_event"
`??osal_set_event::?relay` SYMBOL "?relay", osal_set_event
osal_start_system   SYMBOL "osal_start_system"
`??osal_start_system::?relay` SYMBOL "?relay", osal_start_system
osal_strlen         SYMBOL "osal_strlen"
`??osal_strlen::?relay` SYMBOL "?relay", osal_strlen

        EXTERN `??Hal_ProcessPoll::?relay`
        FUNCTION `??Hal_ProcessPoll::?relay`,00H
        EXTERN `??Onboard_rand::?relay`
        FUNCTION `??Onboard_rand::?relay`,00H
        EXTERN `??_itoa::?relay`
        FUNCTION `??_itoa::?relay`,00H
        EXTERN `??memset::?relay`
        FUNCTION `??memset::?relay`,00H
        EXTERN `??osalInitTasks::?relay`
        FUNCTION `??osalInitTasks::?relay`,00H
        EXTERN `??osalTimeUpdate::?relay`
        FUNCTION `??osalTimeUpdate::?relay`,00H
        EXTERN `??osalTimerInit::?relay`
        FUNCTION `??osalTimerInit::?relay`,00H
        EXTERN `??osal_mem_alloc::?relay`
        FUNCTION `??osal_mem_alloc::?relay`,00H
        EXTERN `??osal_mem_free::?relay`
        FUNCTION `??osal_mem_free::?relay`,00H
        EXTERN `??osal_mem_init::?relay`
        FUNCTION `??osal_mem_init::?relay`,00H
        EXTERN `??osal_mem_kick::?relay`
        FUNCTION `??osal_mem_kick::?relay`,00H
        EXTERN `??osal_pwrmgr_init::?relay`
        FUNCTION `??osal_pwrmgr_init::?relay`,00H
        EXTERN `??strcat::?relay`
        FUNCTION `??strcat::?relay`,00H
        EXTERN `??strcpy::?relay`
        FUNCTION `??strcpy::?relay`,00H
        EXTERN `??strlen::?relay`
        FUNCTION `??strlen::?relay`,00H
        EXTERN Hal_ProcessPoll
        FUNCTION Hal_ProcessPoll,0202H
        ARGFRAME ISTACK, 0, STACK
        ARGFRAME PSTACK, 0, STACK
        ARGFRAME XSTACK, 10, STACK
        ARGFRAME IOVERLAY, 0, STATIC
        ARGFRAME DOVERLAY, 0, STATIC
        EXTERN Onboard_rand
        FUNCTION Onboard_rand,0202H
        ARGFRAME ISTACK, 2, STACK
        ARGFRAME PSTACK, 0, STACK
        ARGFRAME XSTACK, 0, STACK
        ARGFRAME IOVERLAY, 0, STATIC
        ARGFRAME DOVERLAY, 0, STATIC
        EXTERN _itoa
        FUNCTION _itoa,0202H
        ARGFRAME ISTACK, 0, STACK
        ARGFRAME PSTACK, 0, STACK
        ARGFRAME XSTACK, 55, STACK
        ARGFRAME IOVERLAY, 0, STATIC
        ARGFRAME DOVERLAY, 0, STATIC
        EXTERN memset
        FUNCTION memset,010202H
        ARGFRAME ISTACK, 0, STACK
        ARGFRAME PSTACK, 0, STACK
        ARGFRAME XSTACK, 12, STACK
        ARGFRAME IOVERLAY, 0, STATIC
        ARGFRAME DOVERLAY, 0, STATIC
        EXTERN osalInitTasks
        FUNCTION osalInitTasks,0202H
        ARGFRAME ISTACK, 2, STACK
        ARGFRAME PSTACK, 0, STACK
        ARGFRAME XSTACK, 0, STACK
        ARGFRAME IOVERLAY, 0, STATIC
        ARGFRAME DOVERLAY, 0, STATIC
        EXTERN osalTimeUpdate
        FUNCTION osalTimeUpdate,0202H
        ARGFRAME ISTACK, 0, STACK
        ARGFRAME PSTACK, 0, STACK
        ARGFRAME XSTACK, 10, STACK
        ARGFRAME IOVERLAY, 0, STATIC
        ARGFRAME DOVERLAY, 0, STATIC
        EXTERN osalTimerInit
        FUNCTION osalTimerInit,0202H
        ARGFRAME ISTACK, 2, STACK
        ARGFRAME PSTACK, 0, STACK
        ARGFRAME XSTACK, 0, STACK
        ARGFRAME IOVERLAY, 0, STATIC
        ARGFRAME DOVERLAY, 0, STATIC
        EXTERN osal_mem_alloc
        FUNCTION osal_mem_alloc,0202H
        ARGFRAME ISTACK, 0, STACK
        ARGFRAME PSTACK, 0, STACK
        ARGFRAME XSTACK, 16, STACK
        ARGFRAME IOVERLAY, 0, STATIC
        ARGFRAME DOVERLAY, 0, STATIC
        EXTERN osal_mem_free
        FUNCTION osal_mem_free,0202H
        ARGFRAME ISTACK, 2, STACK
        ARGFRAME PSTACK, 0, STACK
        ARGFRAME XSTACK, 0, STACK
        ARGFRAME IOVERLAY, 0, STATIC
        ARGFRAME DOVERLAY, 0, STATIC
        EXTERN osal_mem_init
        FUNCTION osal_mem_init,0202H
        ARGFRAME ISTACK, 2, STACK
        ARGFRAME PSTACK, 0, STACK
        ARGFRAME XSTACK, 0, STACK
        ARGFRAME IOVERLAY, 0, STATIC
        ARGFRAME DOVERLAY, 0, STATIC
        EXTERN osal_mem_kick
        FUNCTION osal_mem_kick,0202H
        ARGFRAME ISTACK, 2, STACK
        ARGFRAME PSTACK, 0, STACK
        ARGFRAME XSTACK, 0, STACK
        ARGFRAME IOVERLAY, 0, STATIC
        ARGFRAME DOVERLAY, 0, STATIC
        EXTERN osal_pwrmgr_init
        FUNCTION osal_pwrmgr_init,0202H
        ARGFRAME ISTACK, 2, STACK
        ARGFRAME PSTACK, 0, STACK
        ARGFRAME XSTACK, 0, STACK
        ARGFRAME IOVERLAY, 0, STATIC
        ARGFRAME DOVERLAY, 0, STATIC
        EXTERN strcat
        FUNCTION strcat,010202H
        ARGFRAME ISTACK, 0, STACK
        ARGFRAME PSTACK, 0, STACK
        ARGFRAME XSTACK, 55, STACK
        ARGFRAME IOVERLAY, 0, STATIC
        ARGFRAME DOVERLAY, 0, STATIC
        EXTERN strcpy
        FUNCTION strcpy,010202H
        ARGFRAME ISTACK, 0, STACK
        ARGFRAME PSTACK, 0, STACK
        ARGFRAME XSTACK, 55, STACK
        ARGFRAME IOVERLAY, 0, STATIC
        ARGFRAME DOVERLAY, 0, STATIC
        EXTERN strlen
        FUNCTION strlen,010202H
        ARGFRAME ISTACK, 2, STACK
        ARGFRAME PSTACK, 0, STACK
        ARGFRAME XSTACK, 55, STACK
        ARGFRAME IOVERLAY, 0, STATIC
        ARGFRAME DOVERLAY, 0, STATIC
        EXTERN tasksArr
        EXTERN tasksCnt
        EXTERN tasksEvents

// C:\Users\Ananda Utama\Documents\RMIT2018\WSN\ZStack-CC2530-2.3.1\Components\osal\common\OSAL.c
//    1 /**************************************************************************************************
//    2   Filename:       OSAL.c
//    3   Revised:        $Date: 2009-12-04 08:04:20 -0800 (Fri, 04 Dec 2009) $
//    4   Revision:       $Revision: 21276 $
//    5 
//    6   Description:    This API allows the software components in the Z-stack to be written
//    7                   independently of the specifics of the operating system, kernel or tasking
//    8                   environment (including control loops or connect-to-interrupt systems).
//    9 
//   10 
//   11   Copyright 2004-2009 Texas Instruments Incorporated. All rights reserved.
//   12 
//   13   IMPORTANT: Your use of this Software is limited to those specific rights
//   14   granted under the terms of a software license agreement between the user
//   15   who downloaded the software, his/her employer (which must be your employer)
//   16   and Texas Instruments Incorporated (the "License").  You may not use this
//   17   Software unless you agree to abide by the terms of the License. The License
//   18   limits your use, and you acknowledge, that the Software may not be modified,
//   19   copied or distributed unless embedded on a Texas Instruments microcontroller
//   20   or used solely and exclusively in conjunction with a Texas Instruments radio
//   21   frequency transceiver, which is integrated into your product.  Other than for
//   22   the foregoing purpose, you may not use, reproduce, copy, prepare derivative
//   23   works of, modify, distribute, perform, display or sell this Software and/or
//   24   its documentation for any purpose.
//   25 
//   26   YOU FURTHER ACKNOWLEDGE AND AGREE THAT THE SOFTWARE AND DOCUMENTATION ARE
//   27   PROVIDED “AS IS” WITHOUT WARRANTY OF ANY KIND, EITHER EXPRESS OR IMPLIED, 
//   28   INCLUDING WITHOUT LIMITATION, ANY WARRANTY OF MERCHANTABILITY, TITLE, 
//   29   NON-INFRINGEMENT AND FITNESS FOR A PARTICULAR PURPOSE. IN NO EVENT SHALL
//   30   TEXAS INSTRUMENTS OR ITS LICENSORS BE LIABLE OR OBLIGATED UNDER CONTRACT,
//   31   NEGLIGENCE, STRICT LIABILITY, CONTRIBUTION, BREACH OF WARRANTY, OR OTHER
//   32   LEGAL EQUITABLE THEORY ANY DIRECT OR INDIRECT DAMAGES OR EXPENSES
//   33   INCLUDING BUT NOT LIMITED TO ANY INCIDENTAL, SPECIAL, INDIRECT, PUNITIVE
//   34   OR CONSEQUENTIAL DAMAGES, LOST PROFITS OR LOST DATA, COST OF PROCUREMENT
//   35   OF SUBSTITUTE GOODS, TECHNOLOGY, SERVICES, OR ANY CLAIMS BY THIRD PARTIES
//   36   (INCLUDING BUT NOT LIMITED TO ANY DEFENSE THEREOF), OR OTHER SIMILAR COSTS.
//   37 
//   38   Should you have any questions regarding your right to use this Software,
//   39   contact Texas Instruments Incorporated at www.TI.com. 
//   40 **************************************************************************************************/
//   41 
//   42 /*********************************************************************
//   43  * INCLUDES
//   44  */
//   45 
//   46 #include <string.h>
//   47 
//   48 #include "comdef.h"
//   49 #include "OSAL.h"
//   50 #include "OSAL_Tasks.h"
//   51 #include "OSAL_Memory.h"
//   52 #include "OSAL_PwrMgr.h"
//   53 #include "OSAL_Clock.h"   
//   54 
//   55 #include "OnBoard.h"

        ASEGN SFR_AN:DATA:NOROOT,0a8H
// union <unnamed> volatile __sfr _A_IEN0
_A_IEN0:
        DATA8
        DS 1
//   56 
//   57 /* HAL */
//   58 #include "hal_drivers.h"
//   59 
//   60 /*********************************************************************
//   61  * MACROS
//   62  */
//   63 
//   64 /*********************************************************************
//   65  * CONSTANTS
//   66  */
//   67 
//   68 /*********************************************************************
//   69  * TYPEDEFS
//   70  */
//   71 
//   72 /*********************************************************************
//   73  * GLOBAL VARIABLES
//   74  */
//   75 
//   76 // Message Pool Definitions

        RSEG XDATA_Z:XDATA:NOROOT(0)
        DATA16
//   77 osal_msg_q_t osal_qHead;
osal_qHead:
        DS 2
        REQUIRE __INIT_XDATA_Z
//   78 
//   79 /*********************************************************************
//   80  * EXTERNAL VARIABLES
//   81  */
//   82 
//   83 /*********************************************************************
//   84  * EXTERNAL FUNCTIONS
//   85  */
//   86 
//   87 /*********************************************************************
//   88  * LOCAL VARIABLES
//   89  */
//   90 
//   91 /*********************************************************************
//   92  * LOCAL FUNCTION PROTOTYPES
//   93  */
//   94 
//   95 /*********************************************************************
//   96  * HELPER FUNCTIONS
//   97  */
//   98 /* very ugly stub so Keil can compile */
//   99 #ifdef __KEIL__
//  100 char *  itoa ( int value, char * buffer, int radix )
//  101 {
//  102   return(buffer);
//  103 }
//  104 #endif
//  105 
//  106 /*********************************************************************
//  107  * @fn      osal_strlen
//  108  *
//  109  * @brief
//  110  *
//  111  *   Calculates the length of a string.  The string must be null
//  112  *   terminated.
//  113  *
//  114  * @param   char *pString - pointer to text string
//  115  *
//  116  * @return  int - number of characters
//  117  */

        RSEG BANKED_CODE:HUGECODE:NOROOT(0)
//  118 int osal_strlen( char *pString )
osal_strlen:
          CFI Block cfiBlock0 Using cfiCommon0
          CFI Function osal_strlen
        CODE
//  119 {
        FUNCALL osal_strlen, strlen
        LOCFRAME ISTACK, 2, STACK
        LOCFRAME PSTACK, 0, STACK
        LOCFRAME XSTACK, 0, STACK
        LOCFRAME IOVERLAY, 0, STATIC
        LOCFRAME DOVERLAY, 0, STATIC
        ARGFRAME ISTACK, 2, STACK
        ARGFRAME PSTACK, 0, STACK
        ARGFRAME XSTACK, 0, STACK
        ARGFRAME IOVERLAY, 0, STATIC
        ARGFRAME DOVERLAY, 0, STATIC
        PUSH      DPL
          CFI DPL0 Frame(CFA_SP, 4)
          CFI CFA_SP SP+-4
        PUSH      DPH
          CFI DPH0 Frame(CFA_SP, 5)
          CFI CFA_SP SP+-5
        ; Saved register size: 2
        ; Auto size: 0
//  120   return (int)( strlen( pString ) );
        ; Setup parameters for call to function strlen
        LCALL     `??strlen::?relay`; Banked call to: strlen
        LJMP      ?Subroutine0 & 0xFFFF
//  121 }
          CFI EndBlock cfiBlock0
//  122 
//  123 /*********************************************************************
//  124  * @fn      osal_memcpy
//  125  *
//  126  * @brief
//  127  *
//  128  *   Generic memory copy.
//  129  *
//  130  *   Note: This function differs from the standard memcpy(), since
//  131  *         it returns the pointer to the next destination uint8. The
//  132  *         standard memcpy() returns the original destination address.
//  133  *
//  134  * @param   dst - destination address
//  135  * @param   src - source address
//  136  * @param   len - number of bytes to copy
//  137  *
//  138  * @return  pointer to end of destination buffer
//  139  */

        RSEG BANKED_CODE:HUGECODE:NOROOT(0)
//  140 void *osal_memcpy( void *dst, const void GENERIC *src, unsigned int len )
osal_memcpy:
          CFI Block cfiBlock1 Using cfiCommon0
          CFI Function osal_memcpy
        CODE
//  141 {
        MOV       A,#-0x9
        LCALL     ?BANKED_ENTER_XDATA
          CFI DPH0 load(1, XDATA, add(CFA_XSP16, literal(-1)))
          CFI DPL0 load(1, XDATA, add(CFA_XSP16, literal(-2)))
          CFI ?BRET_EXT load(1, XDATA, add(CFA_XSP16, literal(-3)))
          CFI ?RET_HIGH load(1, XDATA, add(CFA_XSP16, literal(-4)))
          CFI ?RET_LOW load(1, XDATA, add(CFA_XSP16, literal(-5)))
          CFI R7 load(1, XDATA, add(CFA_XSP16, literal(-6)))
          CFI V0 load(1, XDATA, add(CFA_XSP16, literal(-7)))
          CFI VB load(1, XDATA, add(CFA_XSP16, literal(-8)))
          CFI R6 load(1, XDATA, add(CFA_XSP16, literal(-9)))
          CFI CFA_SP SP+0
          CFI CFA_XSP16 add(XSP16, 9)
        ; Saved register size: 9
        ; Auto size: 0
        MOV       A,R2
        MOV       R6,A
        MOV       A,R3
        MOV       R7,A
//  142   uint8 *pDst;
//  143   const uint8 GENERIC *pSrc;
//  144 
//  145   pSrc = src;
        MOV       A,#0x9
        LCALL     ?XSTACK_DISP0_8
        LCALL     ?Subroutine11 & 0xFFFF
//  146   pDst = dst;
??CrossCallReturnLabel_12:
        MOV       DPL,R6
        MOV       DPH,R7
        SJMP      ??osal_memcpy_0
//  147 
//  148   while ( len-- )
//  149     *pDst++ = *pSrc++;
??osal_memcpy_1:
        LCALL     ?C_GPTR_LOAD
        MOVX      @DPTR,A
        MOV       A,R1
        ADD       A,#0x1
        INC       R1
        CLR       A
        ADDC      A,R2
        MOV       R2,A
        INC       DPTR
??osal_memcpy_0:
        LCALL     ?Subroutine22 & 0xFFFF
??CrossCallReturnLabel_36:
        JNZ       ??osal_memcpy_1
//  150 
//  151   return ( pDst );
        LJMP      ?Subroutine1 & 0xFFFF
//  152 }
          CFI EndBlock cfiBlock1
//  153 
//  154 /*********************************************************************
//  155  * @fn      osal_revmemcpy
//  156  *
//  157  * @brief   Generic reverse memory copy.  Starts at the end of the 
//  158  *   source buffer, by taking the source address pointer and moving 
//  159  *   pointer ahead "len" bytes, then decrementing the pointer.
//  160  *
//  161  *   Note: This function differs from the standard memcpy(), since
//  162  *         it returns the pointer to the next destination uint8. The
//  163  *         standard memcpy() returns the original destination address.
//  164  *
//  165  * @param   dst - destination address
//  166  * @param   src - source address
//  167  * @param   len - number of bytes to copy
//  168  *
//  169  * @return  pointer to end of destination buffer
//  170  */

        RSEG BANKED_CODE:HUGECODE:NOROOT(0)
//  171 void *osal_revmemcpy( void *dst, const void GENERIC *src, unsigned int len )
osal_revmemcpy:
          CFI Block cfiBlock2 Using cfiCommon0
          CFI Function osal_revmemcpy
        CODE
//  172 {
        MOV       A,#-0x9
        LCALL     ?BANKED_ENTER_XDATA
          CFI DPH0 load(1, XDATA, add(CFA_XSP16, literal(-1)))
          CFI DPL0 load(1, XDATA, add(CFA_XSP16, literal(-2)))
          CFI ?BRET_EXT load(1, XDATA, add(CFA_XSP16, literal(-3)))
          CFI ?RET_HIGH load(1, XDATA, add(CFA_XSP16, literal(-4)))
          CFI ?RET_LOW load(1, XDATA, add(CFA_XSP16, literal(-5)))
          CFI R7 load(1, XDATA, add(CFA_XSP16, literal(-6)))
          CFI V0 load(1, XDATA, add(CFA_XSP16, literal(-7)))
          CFI VB load(1, XDATA, add(CFA_XSP16, literal(-8)))
          CFI R6 load(1, XDATA, add(CFA_XSP16, literal(-9)))
          CFI CFA_SP SP+0
          CFI CFA_XSP16 add(XSP16, 9)
        ; Saved register size: 9
        ; Auto size: 0
        MOV       A,R2
        MOV       R6,A
        MOV       A,R3
        MOV       R7,A
//  173   uint8 *pDst;
//  174   const uint8 GENERIC *pSrc;
//  175 
//  176   pSrc = src;
//  177   pSrc += (len-1);
        MOV       A,#0x9
        LCALL     ?XSTACK_DISP0_8
        LCALL     ?Subroutine11 & 0xFFFF
??CrossCallReturnLabel_13:
        MOV       A,R1
        ADD       A,R4
        MOV       R1,A
        MOV       A,R2
        ADDC      A,R5
        MOV       R2,A
        MOV       A,R1
        ADD       A,#-0x1
        DEC       R1
        MOV       A,R2
        ADDC      A,#-0x1
        MOV       R2,A
//  178   pDst = dst;
        MOV       DPL,R6
        MOV       DPH,R7
        SJMP      ??osal_revmemcpy_0
//  179 
//  180   while ( len-- )
//  181     *pDst++ = *pSrc--;
??osal_revmemcpy_1:
        LCALL     ?C_GPTR_LOAD
        MOVX      @DPTR,A
        MOV       A,R1
        ADD       A,#-0x1
        DEC       R1
        MOV       A,R2
        ADDC      A,#-0x1
        MOV       R2,A
        INC       DPTR
??osal_revmemcpy_0:
        LCALL     ?Subroutine22 & 0xFFFF
??CrossCallReturnLabel_37:
        JNZ       ??osal_revmemcpy_1
//  182 
//  183   return ( pDst );
        LJMP      ?Subroutine1 & 0xFFFF
//  184 }
          CFI EndBlock cfiBlock2

        RSEG BANKED_CODE:HUGECODE:NOROOT(0)
?Subroutine22:
          CFI Block cfiCond3 Using cfiCommon0
          CFI Function osal_memcpy
          CFI Conditional ??CrossCallReturnLabel_36
          CFI R6 load(1, XDATA, add(CFA_XSP16, literal(-9)))
          CFI VB load(1, XDATA, add(CFA_XSP16, literal(-8)))
          CFI V0 load(1, XDATA, add(CFA_XSP16, literal(-7)))
          CFI R7 load(1, XDATA, add(CFA_XSP16, literal(-6)))
          CFI ?RET_LOW load(1, XDATA, add(CFA_XSP16, literal(-5)))
          CFI ?RET_HIGH load(1, XDATA, add(CFA_XSP16, literal(-4)))
          CFI ?BRET_EXT load(1, XDATA, add(CFA_XSP16, literal(-3)))
          CFI DPL0 load(1, XDATA, add(CFA_XSP16, literal(-2)))
          CFI DPH0 load(1, XDATA, add(CFA_XSP16, literal(-1)))
          CFI CFA_SP SP+-2
          CFI CFA_XSP16 add(XSP16, 9)
          CFI Block cfiCond4 Using cfiCommon0
          CFI (cfiCond4) Function osal_revmemcpy
          CFI (cfiCond4) Conditional ??CrossCallReturnLabel_37
          CFI (cfiCond4) R6 load(1, XDATA, add(CFA_XSP16, literal(-9)))
          CFI (cfiCond4) VB load(1, XDATA, add(CFA_XSP16, literal(-8)))
          CFI (cfiCond4) V0 load(1, XDATA, add(CFA_XSP16, literal(-7)))
          CFI (cfiCond4) R7 load(1, XDATA, add(CFA_XSP16, literal(-6)))
          CFI (cfiCond4) ?RET_LOW load(1, XDATA, add(CFA_XSP16, literal(-5)))
          CFI (cfiCond4) ?RET_HIGH load(1, XDATA, add(CFA_XSP16, literal(-4)))
          CFI (cfiCond4) ?BRET_EXT load(1, XDATA, add(CFA_XSP16, literal(-3)))
          CFI (cfiCond4) DPL0 load(1, XDATA, add(CFA_XSP16, literal(-2)))
          CFI (cfiCond4) DPH0 load(1, XDATA, add(CFA_XSP16, literal(-1)))
          CFI (cfiCond4) CFA_SP SP+-2
          CFI (cfiCond4) CFA_XSP16 add(XSP16, 9)
          CFI Block cfiPicker5 Using cfiCommon1
          CFI (cfiPicker5) NoFunction
          CFI (cfiPicker5) Picker
        MOV       A,R4
        MOV       R6,A
        MOV       A,R5
        MOV       R7,A
        MOV       A,R6
        ADD       A,#-0x1
        DEC       R4
        MOV       A,R7
        ADDC      A,#-0x1
        MOV       R5,A
        MOV       A,R6
        ORL       A,R7
        RET
          CFI EndBlock cfiCond3
          CFI EndBlock cfiCond4
          CFI EndBlock cfiPicker5

        RSEG BANKED_CODE:HUGECODE:NOROOT(0)
?Subroutine11:
          CFI Block cfiCond6 Using cfiCommon0
          CFI Function osal_memcpy
          CFI Conditional ??CrossCallReturnLabel_12
          CFI R6 load(1, XDATA, add(CFA_XSP16, literal(-9)))
          CFI VB load(1, XDATA, add(CFA_XSP16, literal(-8)))
          CFI V0 load(1, XDATA, add(CFA_XSP16, literal(-7)))
          CFI R7 load(1, XDATA, add(CFA_XSP16, literal(-6)))
          CFI ?RET_LOW load(1, XDATA, add(CFA_XSP16, literal(-5)))
          CFI ?RET_HIGH load(1, XDATA, add(CFA_XSP16, literal(-4)))
          CFI ?BRET_EXT load(1, XDATA, add(CFA_XSP16, literal(-3)))
          CFI DPL0 load(1, XDATA, add(CFA_XSP16, literal(-2)))
          CFI DPH0 load(1, XDATA, add(CFA_XSP16, literal(-1)))
          CFI CFA_SP SP+-2
          CFI CFA_XSP16 add(XSP16, 9)
          CFI Block cfiCond7 Using cfiCommon0
          CFI (cfiCond7) Function osal_revmemcpy
          CFI (cfiCond7) Conditional ??CrossCallReturnLabel_13
          CFI (cfiCond7) R6 load(1, XDATA, add(CFA_XSP16, literal(-9)))
          CFI (cfiCond7) VB load(1, XDATA, add(CFA_XSP16, literal(-8)))
          CFI (cfiCond7) V0 load(1, XDATA, add(CFA_XSP16, literal(-7)))
          CFI (cfiCond7) R7 load(1, XDATA, add(CFA_XSP16, literal(-6)))
          CFI (cfiCond7) ?RET_LOW load(1, XDATA, add(CFA_XSP16, literal(-5)))
          CFI (cfiCond7) ?RET_HIGH load(1, XDATA, add(CFA_XSP16, literal(-4)))
          CFI (cfiCond7) ?BRET_EXT load(1, XDATA, add(CFA_XSP16, literal(-3)))
          CFI (cfiCond7) DPL0 load(1, XDATA, add(CFA_XSP16, literal(-2)))
          CFI (cfiCond7) DPH0 load(1, XDATA, add(CFA_XSP16, literal(-1)))
          CFI (cfiCond7) CFA_SP SP+-2
          CFI (cfiCond7) CFA_XSP16 add(XSP16, 9)
          CFI Block cfiCond8 Using cfiCommon0
          CFI (cfiCond8) Function osal_memcmp
          CFI (cfiCond8) Conditional ??CrossCallReturnLabel_14
          CFI (cfiCond8) R6 load(1, XDATA, add(CFA_XSP16, literal(-15)))
          CFI (cfiCond8) VB load(1, XDATA, add(CFA_XSP16, literal(-14)))
          CFI (cfiCond8) V0 load(1, XDATA, add(CFA_XSP16, literal(-13)))
          CFI (cfiCond8) V1 load(1, XDATA, add(CFA_XSP16, literal(-12)))
          CFI (cfiCond8) V2 load(1, XDATA, add(CFA_XSP16, literal(-11)))
          CFI (cfiCond8) V3 load(1, XDATA, add(CFA_XSP16, literal(-10)))
          CFI (cfiCond8) V4 load(1, XDATA, add(CFA_XSP16, literal(-9)))
          CFI (cfiCond8) V5 load(1, XDATA, add(CFA_XSP16, literal(-8)))
          CFI (cfiCond8) V6 load(1, XDATA, add(CFA_XSP16, literal(-7)))
          CFI (cfiCond8) R7 load(1, XDATA, add(CFA_XSP16, literal(-6)))
          CFI (cfiCond8) ?RET_LOW load(1, XDATA, add(CFA_XSP16, literal(-5)))
          CFI (cfiCond8) ?RET_HIGH load(1, XDATA, add(CFA_XSP16, literal(-4)))
          CFI (cfiCond8) ?BRET_EXT load(1, XDATA, add(CFA_XSP16, literal(-3)))
          CFI (cfiCond8) DPL0 load(1, XDATA, add(CFA_XSP16, literal(-2)))
          CFI (cfiCond8) DPH0 load(1, XDATA, add(CFA_XSP16, literal(-1)))
          CFI (cfiCond8) CFA_SP SP+-2
          CFI (cfiCond8) CFA_XSP16 add(XSP16, 18)
          CFI Block cfiPicker9 Using cfiCommon1
          CFI (cfiPicker9) NoFunction
          CFI (cfiPicker9) Picker
        MOVX      A,@DPTR
        MOV       R1,A
        INC       DPTR
        LCALL     ?Subroutine27 & 0xFFFF
??CrossCallReturnLabel_46:
        RET
          CFI EndBlock cfiCond6
          CFI EndBlock cfiCond7
          CFI EndBlock cfiCond8
          CFI EndBlock cfiPicker9
//  185 
//  186 /*********************************************************************
//  187  * @fn      osal_memdup
//  188  *
//  189  * @brief   Allocates a buffer [with osal_mem_alloc()] and copies
//  190  *          the src buffer into the newly allocated space.
//  191  *
//  192  * @param   src - source address
//  193  * @param   len - number of bytes to copy
//  194  *
//  195  * @return  pointer to the new allocated buffer, or NULL if
//  196  *          allocation problem.
//  197  */

        RSEG BANKED_CODE:HUGECODE:NOROOT(0)
//  198 void *osal_memdup( const void GENERIC *src, unsigned int len )
osal_memdup:
          CFI Block cfiBlock10 Using cfiCommon0
          CFI Function osal_memdup
        CODE
//  199 {
        FUNCALL osal_memdup, osal_mem_alloc
        LOCFRAME ISTACK, 0, STACK
        LOCFRAME PSTACK, 0, STACK
        LOCFRAME XSTACK, 16, STACK
        LOCFRAME IOVERLAY, 0, STATIC
        LOCFRAME DOVERLAY, 0, STATIC
        ARGFRAME ISTACK, 0, STACK
        ARGFRAME PSTACK, 0, STACK
        ARGFRAME XSTACK, 16, STACK
        ARGFRAME IOVERLAY, 0, STATIC
        ARGFRAME DOVERLAY, 0, STATIC
        FUNCALL osal_memdup, osal_memcpy
        LOCFRAME ISTACK, 0, STACK
        LOCFRAME PSTACK, 0, STACK
        LOCFRAME XSTACK, 19, STACK
        LOCFRAME IOVERLAY, 0, STATIC
        LOCFRAME DOVERLAY, 0, STATIC
        ARGFRAME ISTACK, 0, STACK
        ARGFRAME PSTACK, 0, STACK
        ARGFRAME XSTACK, 19, STACK
        ARGFRAME IOVERLAY, 0, STATIC
        ARGFRAME DOVERLAY, 0, STATIC
        REQUIRE ?V0
        REQUIRE ?V1
        REQUIRE ?V2
        REQUIRE ?V4
        REQUIRE ?V5
        REQUIRE ?V6
        REQUIRE ?V7
        MOV       A,#-0x10
        LCALL     ?BANKED_ENTER_XDATA
          CFI DPH0 load(1, XDATA, add(CFA_XSP16, literal(-1)))
          CFI DPL0 load(1, XDATA, add(CFA_XSP16, literal(-2)))
          CFI ?BRET_EXT load(1, XDATA, add(CFA_XSP16, literal(-3)))
          CFI ?RET_HIGH load(1, XDATA, add(CFA_XSP16, literal(-4)))
          CFI ?RET_LOW load(1, XDATA, add(CFA_XSP16, literal(-5)))
          CFI R7 load(1, XDATA, add(CFA_XSP16, literal(-6)))
          CFI V7 load(1, XDATA, add(CFA_XSP16, literal(-7)))
          CFI V6 load(1, XDATA, add(CFA_XSP16, literal(-8)))
          CFI V5 load(1, XDATA, add(CFA_XSP16, literal(-9)))
          CFI V4 load(1, XDATA, add(CFA_XSP16, literal(-10)))
          CFI V3 load(1, XDATA, add(CFA_XSP16, literal(-11)))
          CFI V2 load(1, XDATA, add(CFA_XSP16, literal(-12)))
          CFI V1 load(1, XDATA, add(CFA_XSP16, literal(-13)))
          CFI V0 load(1, XDATA, add(CFA_XSP16, literal(-14)))
          CFI VB load(1, XDATA, add(CFA_XSP16, literal(-15)))
          CFI R6 load(1, XDATA, add(CFA_XSP16, literal(-16)))
          CFI CFA_SP SP+0
          CFI CFA_XSP16 add(XSP16, 16)
        ; Saved register size: 16
        ; Auto size: 0
        MOV       ?V0,R1
        MOV       ?V1,R2
        MOV       ?V2,R3
        MOV       A,R4
        MOV       R6,A
        MOV       A,R5
        MOV       R7,A
//  200   uint8 *pDst;
//  201   
//  202   pDst = osal_mem_alloc( len );
        ; Setup parameters for call to function osal_mem_alloc
        MOV       A,R4
        MOV       R2,A
        MOV       A,R5
        MOV       R3,A
        LCALL     `??osal_mem_alloc::?relay`; Banked call to: osal_mem_alloc
        MOV       ?V6,R2
        MOV       ?V7,R3
//  203   if ( pDst )
        MOV       A,R2
        ORL       A,R3
        JZ        ??osal_memdup_0
//  204   {
//  205     VOID osal_memcpy( pDst, src, len );
        ; Setup parameters for call to function osal_memcpy
        MOV       R0,#?V0
        LCALL     ?PUSH_XSTACK_I_THREE
          CFI CFA_XSP16 add(XSP16, 19)
        MOV       A,R6
        MOV       R4,A
        MOV       A,R7
        MOV       R5,A
        LCALL     `??osal_memcpy::?relay`; Banked call to: osal_memcpy
        MOV       A,#0x3
        LCALL     ?DEALLOC_XSTACK8
          CFI CFA_XSP16 add(XSP16, 16)
//  206   }
//  207 
//  208   return ( (void *)pDst );
??osal_memdup_0:
        MOV       R2,?V6
        MOV       R3,?V7
        LJMP      ?Subroutine2 & 0xFFFF
//  209 }
          CFI EndBlock cfiBlock10
//  210 
//  211 /*********************************************************************
//  212  * @fn      osal_memcmp
//  213  *
//  214  * @brief
//  215  *
//  216  *   Generic memory compare.
//  217  *
//  218  * @param   src1 - source 1 addrexx
//  219  * @param   src2 - source 2 address
//  220  * @param   len - number of bytes to compare
//  221  *
//  222  * @return  TRUE - same, FALSE - different
//  223  */

        RSEG BANKED_CODE:HUGECODE:NOROOT(0)
//  224 uint8 osal_memcmp( const void GENERIC *src1, const void GENERIC *src2, unsigned int len )
osal_memcmp:
          CFI Block cfiBlock11 Using cfiCommon0
          CFI Function osal_memcmp
        CODE
//  225 {
        REQUIRE ?V0
        REQUIRE ?V1
        REQUIRE ?V4
        REQUIRE ?V5
        REQUIRE ?V6
        MOV       A,#-0xf
        LCALL     ?BANKED_ENTER_XDATA
          CFI DPH0 load(1, XDATA, add(CFA_XSP16, literal(-1)))
          CFI DPL0 load(1, XDATA, add(CFA_XSP16, literal(-2)))
          CFI ?BRET_EXT load(1, XDATA, add(CFA_XSP16, literal(-3)))
          CFI ?RET_HIGH load(1, XDATA, add(CFA_XSP16, literal(-4)))
          CFI ?RET_LOW load(1, XDATA, add(CFA_XSP16, literal(-5)))
          CFI R7 load(1, XDATA, add(CFA_XSP16, literal(-6)))
          CFI V6 load(1, XDATA, add(CFA_XSP16, literal(-7)))
          CFI V5 load(1, XDATA, add(CFA_XSP16, literal(-8)))
          CFI V4 load(1, XDATA, add(CFA_XSP16, literal(-9)))
          CFI V3 load(1, XDATA, add(CFA_XSP16, literal(-10)))
          CFI V2 load(1, XDATA, add(CFA_XSP16, literal(-11)))
          CFI V1 load(1, XDATA, add(CFA_XSP16, literal(-12)))
          CFI V0 load(1, XDATA, add(CFA_XSP16, literal(-13)))
          CFI VB load(1, XDATA, add(CFA_XSP16, literal(-14)))
          CFI R6 load(1, XDATA, add(CFA_XSP16, literal(-15)))
          CFI CFA_SP SP+0
          CFI CFA_XSP16 add(XSP16, 15)
        ; Saved register size: 15
        ; Auto size: 3
        MOV       A,#-0x3
        LCALL     ?ALLOC_XSTACK8
          CFI CFA_XSP16 add(XSP16, 18)
        MOV       ?V0,R4
        MOV       ?V1,R5
//  226   const uint8 GENERIC *pSrc1;
//  227   const uint8 GENERIC *pSrc2;
//  228 
//  229   pSrc1 = src1;
        MOV       ?V4,R1
        MOV       ?V5,R2
        MOV       ?V6,R3
//  230   pSrc2 = src2;
        MOV       A,#0x12
        LCALL     ?XSTACK_DISP0_8
        MOVX      A,@DPTR
        MOV       R4,A
        INC       DPTR
        MOVX      A,@DPTR
        MOV       R5,A
        INC       DPTR
        MOVX      A,@DPTR
        MOV       R6,A
//  231 
//  232   while ( len-- )
??osal_memcmp_0:
        MOV       R0,?V0
        MOV       R1,?V1
        MOV       A,R0
        ADD       A,#-0x1
        MOV       ?V0,A
        MOV       A,R1
        ADDC      A,#-0x1
        MOV       ?V1,A
        MOV       A,R0
        ORL       A,R1
        JZ        ??osal_memcmp_1
//  233   {
//  234     if( *pSrc1++ != *pSrc2++ )
        MOV       R1,?V4
        MOV       R2,?V5
        MOV       R3,?V6
        MOV       A,R1
        ADD       A,#0x1
        MOV       ?V4,A
        CLR       A
        ADDC      A,R2
        MOV       ?V5,A
        MOV       DPL,?XSP + 0
        MOV       DPH,?XSP + 1
        MOV       A,R4
        MOVX      @DPTR,A
        INC       DPTR
        MOV       A,R5
        MOVX      @DPTR,A
        INC       DPTR
        MOV       A,R6
        MOVX      @DPTR,A
        MOV       DPL,?XSP + 0
        MOV       DPH,?XSP + 1
        MOVX      A,@DPTR
        MOV       R4,A
        INC       DPTR
        MOVX      A,@DPTR
        MOV       R5,A
        MOV       A,R4
        ADD       A,#0x1
        INC       R4
        CLR       A
        ADDC      A,R5
        MOV       R5,A
        LCALL     ?C_GPTR_LOAD
        MOV       R0,A
        MOV       DPL,?XSP + 0
        MOV       DPH,?XSP + 1
        LCALL     ?Subroutine11 & 0xFFFF
??CrossCallReturnLabel_14:
        LCALL     ?C_GPTR_LOAD
        XRL       A,R0
        JZ        ??osal_memcmp_0
//  235       return FALSE;
        MOV       R1,#0x0
        SJMP      ??osal_memcmp_2
//  236   }
//  237   return TRUE;
??osal_memcmp_1:
        MOV       R1,#0x1
??osal_memcmp_2:
        MOV       A,#0x3
        LCALL     ?DEALLOC_XSTACK8
          CFI CFA_XSP16 add(XSP16, 15)
        MOV       R7,#0x7
        LJMP      ?BANKED_LEAVE_XDATA
//  238 }
          CFI EndBlock cfiBlock11
//  239 
//  240 
//  241 /*********************************************************************
//  242  * @fn      osal_memset
//  243  *
//  244  * @brief
//  245  *
//  246  *   Set memory buffer to value.
//  247  *
//  248  * @param   dest - pointer to buffer
//  249  * @param   value - what to set each uint8 of the message
//  250  * @param   size - how big
//  251  *
//  252  * @return  value of next widget, 0 if no widget found
//  253  */

        RSEG BANKED_CODE:HUGECODE:NOROOT(0)
//  254 void *osal_memset( void *dest, uint8 value, int len )
osal_memset:
          CFI Block cfiBlock12 Using cfiCommon0
          CFI Function osal_memset
        CODE
//  255 {
        FUNCALL osal_memset, memset
        LOCFRAME ISTACK, 0, STACK
        LOCFRAME PSTACK, 0, STACK
        LOCFRAME XSTACK, 12, STACK
        LOCFRAME IOVERLAY, 0, STATIC
        LOCFRAME DOVERLAY, 0, STATIC
        ARGFRAME ISTACK, 0, STACK
        ARGFRAME PSTACK, 0, STACK
        ARGFRAME XSTACK, 12, STACK
        ARGFRAME IOVERLAY, 0, STATIC
        ARGFRAME DOVERLAY, 0, STATIC
        REQUIRE ?V0
        REQUIRE ?V1
        MOV       A,#-0xa
        LCALL     ?BANKED_ENTER_XDATA
          CFI DPH0 load(1, XDATA, add(CFA_XSP16, literal(-1)))
          CFI DPL0 load(1, XDATA, add(CFA_XSP16, literal(-2)))
          CFI ?BRET_EXT load(1, XDATA, add(CFA_XSP16, literal(-3)))
          CFI ?RET_HIGH load(1, XDATA, add(CFA_XSP16, literal(-4)))
          CFI ?RET_LOW load(1, XDATA, add(CFA_XSP16, literal(-5)))
          CFI R7 load(1, XDATA, add(CFA_XSP16, literal(-6)))
          CFI V1 load(1, XDATA, add(CFA_XSP16, literal(-7)))
          CFI V0 load(1, XDATA, add(CFA_XSP16, literal(-8)))
          CFI VB load(1, XDATA, add(CFA_XSP16, literal(-9)))
          CFI R6 load(1, XDATA, add(CFA_XSP16, literal(-10)))
          CFI CFA_SP SP+0
          CFI CFA_XSP16 add(XSP16, 10)
        ; Saved register size: 10
        ; Auto size: 0
//  256   return memset( dest, value, len );
        ; Setup parameters for call to function memset
        MOV       ?V0,R4
        MOV       ?V1,R5
        MOV       R0,#?V0
        LCALL     ?PUSH_XSTACK_I_TWO
          CFI CFA_XSP16 add(XSP16, 12)
        MOV       A,R1
        MOV       R4,A
        MOV       R5,#0x0
        LCALL     `??memset::?relay`; Banked call to: memset
        MOV       A,#0x2
        LCALL     ?DEALLOC_XSTACK8
          CFI CFA_XSP16 add(XSP16, 10)
        LJMP      ?Subroutine3 & 0xFFFF
//  257 }
          CFI EndBlock cfiBlock12
//  258 
//  259 /*********************************************************************
//  260  * @fn      osal_build_uint16
//  261  *
//  262  * @brief
//  263  *
//  264  *   Build a uint16 out of 2 bytes (0 then 1).
//  265  *
//  266  * @param   swapped - 0 then 1
//  267  *
//  268  * @return  uint16
//  269  */

        RSEG BANKED_CODE:HUGECODE:NOROOT(0)
//  270 uint16 osal_build_uint16( uint8 *swapped )
osal_build_uint16:
          CFI Block cfiBlock13 Using cfiCommon0
          CFI Function osal_build_uint16
        CODE
//  271 {
        PUSH      DPL
          CFI DPL0 Frame(CFA_SP, 4)
          CFI CFA_SP SP+-4
        PUSH      DPH
          CFI DPH0 Frame(CFA_SP, 5)
          CFI CFA_SP SP+-5
        ; Saved register size: 2
        ; Auto size: 0
//  272   return ( BUILD_UINT16( swapped[0], swapped[1] ) );
        MOV       DPL,R2
        MOV       DPH,R3
        MOVX      A,@DPTR
        MOV       R4,A
        INC       DPTR
        MOVX      A,@DPTR
        MOV       R0,A
        CLR       A
        XCH       A,R0
        MOV       R1,A
        MOV       A,R4
        ADD       A,R0
        MOV       R2,A
        CLR       A
        ADDC      A,R1
        MOV       R3,A
        LJMP      ?Subroutine0 & 0xFFFF
//  273 }
          CFI EndBlock cfiBlock13
//  274 
//  275 /*********************************************************************
//  276  * @fn      osal_build_uint32
//  277  *
//  278  * @brief
//  279  *
//  280  *   Build a uint32 out of sequential bytes.
//  281  *
//  282  * @param   swapped - sequential bytes
//  283  * @param   len - number of bytes in the uint8 array
//  284  *
//  285  * @return  uint32
//  286  */

        RSEG BANKED_CODE:HUGECODE:NOROOT(0)
//  287 uint32 osal_build_uint32( uint8 *swapped, uint8 len )
osal_build_uint32:
          CFI Block cfiBlock14 Using cfiCommon0
          CFI Function osal_build_uint32
        CODE
//  288 {
        REQUIRE ?V0
        REQUIRE ?V1
        REQUIRE ?V2
        REQUIRE ?V3
        REQUIRE ?V4
        REQUIRE ?V5
        REQUIRE ?V6
        REQUIRE ?V7
        MOV       A,#-0x10
        LCALL     ?BANKED_ENTER_XDATA
          CFI DPH0 load(1, XDATA, add(CFA_XSP16, literal(-1)))
          CFI DPL0 load(1, XDATA, add(CFA_XSP16, literal(-2)))
          CFI ?BRET_EXT load(1, XDATA, add(CFA_XSP16, literal(-3)))
          CFI ?RET_HIGH load(1, XDATA, add(CFA_XSP16, literal(-4)))
          CFI ?RET_LOW load(1, XDATA, add(CFA_XSP16, literal(-5)))
          CFI R7 load(1, XDATA, add(CFA_XSP16, literal(-6)))
          CFI V7 load(1, XDATA, add(CFA_XSP16, literal(-7)))
          CFI V6 load(1, XDATA, add(CFA_XSP16, literal(-8)))
          CFI V5 load(1, XDATA, add(CFA_XSP16, literal(-9)))
          CFI V4 load(1, XDATA, add(CFA_XSP16, literal(-10)))
          CFI V3 load(1, XDATA, add(CFA_XSP16, literal(-11)))
          CFI V2 load(1, XDATA, add(CFA_XSP16, literal(-12)))
          CFI V1 load(1, XDATA, add(CFA_XSP16, literal(-13)))
          CFI V0 load(1, XDATA, add(CFA_XSP16, literal(-14)))
          CFI VB load(1, XDATA, add(CFA_XSP16, literal(-15)))
          CFI R6 load(1, XDATA, add(CFA_XSP16, literal(-16)))
          CFI CFA_SP SP+0
          CFI CFA_XSP16 add(XSP16, 16)
        ; Saved register size: 16
        ; Auto size: 0
        MOV       A,R1
        MOV       R6,A
//  289   if ( len == 2 )
        MOV       DPL,R2
        MOV       DPH,R3
        MOVX      A,@DPTR
        MOV       ?V0,A
        CLR       A
        MOV       ?V1,A
        MOV       ?V2,A
        MOV       ?V3,A
        MOV       A,#0x2
        XRL       A,R6
        JNZ       ??osal_build_uint32_0
//  290     return ( BUILD_UINT32( swapped[0], swapped[1], 0L, 0L ) );
        LCALL     ?Subroutine25 & 0xFFFF
??CrossCallReturnLabel_42:
        SJMP      ??osal_build_uint32_1
//  291   else if ( len == 3 )
??osal_build_uint32_0:
        MOV       A,#0x3
        XRL       A,R6
        JNZ       ??osal_build_uint32_2
//  292     return ( BUILD_UINT32( swapped[0], swapped[1], swapped[2], 0L ) );
        LCALL     ?Subroutine10 & 0xFFFF
??CrossCallReturnLabel_10:
        LCALL     ?L_SHL
        MOV       R0,#?V0
        MOV       R1,#?V4
        LCALL     ?L_ADD
        LCALL     ?Subroutine18 & 0xFFFF
??CrossCallReturnLabel_30:
        SJMP      ??osal_build_uint32_1
//  293   else if ( len == 4 )
??osal_build_uint32_2:
        MOV       A,#0x4
        XRL       A,R6
        JNZ       ??osal_build_uint32_3
//  294     return ( BUILD_UINT32( swapped[0], swapped[1], swapped[2], swapped[3] ) );
        LCALL     ?Subroutine10 & 0xFFFF
??CrossCallReturnLabel_11:
        LCALL     ?L_SHL
        MOV       R0,#?V0
        MOV       R1,#?V4
        LCALL     ?L_ADD
        LCALL     ?Subroutine18 & 0xFFFF
??CrossCallReturnLabel_31:
        MOV       R0,#?V4
        LCALL     ?L_SHL
        MOV       R0,#?V0
        MOV       R1,#?V4
        LCALL     ?L_ADD
        MOV       DPL,R2
        MOV       DPH,R3
        INC       DPTR
        INC       DPTR
        INC       DPTR
        MOVX      A,@DPTR
        MOV       ?V4,A
        CLR       A
        MOV       ?V6,A
        MOV       A,#0x18
??osal_build_uint32_1:
        MOV       R0,#?V4
        LCALL     ?L_SHL
        MOV       R0,#?V0
        MOV       R1,#?V4
        LCALL     ?L_ADD
//  295   else
//  296     return ( (uint32)swapped[0] );
??osal_build_uint32_3:
        MOV       R2,?V0
        MOV       R3,?V1
        MOV       R4,?V2
        MOV       R5,?V3
        LJMP      ?Subroutine2 & 0xFFFF
//  297 }
          CFI EndBlock cfiBlock14

        RSEG BANKED_CODE:HUGECODE:NOROOT(0)
?Subroutine18:
          CFI Block cfiCond15 Using cfiCommon0
          CFI Function osal_build_uint32
          CFI Conditional ??CrossCallReturnLabel_30
          CFI R6 load(1, XDATA, add(CFA_XSP16, literal(-16)))
          CFI VB load(1, XDATA, add(CFA_XSP16, literal(-15)))
          CFI V0 load(1, XDATA, add(CFA_XSP16, literal(-14)))
          CFI V1 load(1, XDATA, add(CFA_XSP16, literal(-13)))
          CFI V2 load(1, XDATA, add(CFA_XSP16, literal(-12)))
          CFI V3 load(1, XDATA, add(CFA_XSP16, literal(-11)))
          CFI V4 load(1, XDATA, add(CFA_XSP16, literal(-10)))
          CFI V5 load(1, XDATA, add(CFA_XSP16, literal(-9)))
          CFI V6 load(1, XDATA, add(CFA_XSP16, literal(-8)))
          CFI V7 load(1, XDATA, add(CFA_XSP16, literal(-7)))
          CFI R7 load(1, XDATA, add(CFA_XSP16, literal(-6)))
          CFI ?RET_LOW load(1, XDATA, add(CFA_XSP16, literal(-5)))
          CFI ?RET_HIGH load(1, XDATA, add(CFA_XSP16, literal(-4)))
          CFI ?BRET_EXT load(1, XDATA, add(CFA_XSP16, literal(-3)))
          CFI DPL0 load(1, XDATA, add(CFA_XSP16, literal(-2)))
          CFI DPH0 load(1, XDATA, add(CFA_XSP16, literal(-1)))
          CFI CFA_SP SP+-2
          CFI CFA_XSP16 add(XSP16, 16)
          CFI Block cfiCond16 Using cfiCommon0
          CFI (cfiCond16) Function osal_build_uint32
          CFI (cfiCond16) Conditional ??CrossCallReturnLabel_31
          CFI (cfiCond16) R6 load(1, XDATA, add(CFA_XSP16, literal(-16)))
          CFI (cfiCond16) VB load(1, XDATA, add(CFA_XSP16, literal(-15)))
          CFI (cfiCond16) V0 load(1, XDATA, add(CFA_XSP16, literal(-14)))
          CFI (cfiCond16) V1 load(1, XDATA, add(CFA_XSP16, literal(-13)))
          CFI (cfiCond16) V2 load(1, XDATA, add(CFA_XSP16, literal(-12)))
          CFI (cfiCond16) V3 load(1, XDATA, add(CFA_XSP16, literal(-11)))
          CFI (cfiCond16) V4 load(1, XDATA, add(CFA_XSP16, literal(-10)))
          CFI (cfiCond16) V5 load(1, XDATA, add(CFA_XSP16, literal(-9)))
          CFI (cfiCond16) V6 load(1, XDATA, add(CFA_XSP16, literal(-8)))
          CFI (cfiCond16) V7 load(1, XDATA, add(CFA_XSP16, literal(-7)))
          CFI (cfiCond16) R7 load(1, XDATA, add(CFA_XSP16, literal(-6)))
          CFI (cfiCond16) ?RET_LOW load(1, XDATA, add(CFA_XSP16, literal(-5)))
          CFI (cfiCond16) ?RET_HIGH load(1, XDATA, add(CFA_XSP16, literal(-4)))
          CFI (cfiCond16) ?BRET_EXT load(1, XDATA, add(CFA_XSP16, literal(-3)))
          CFI (cfiCond16) DPL0 load(1, XDATA, add(CFA_XSP16, literal(-2)))
          CFI (cfiCond16) DPH0 load(1, XDATA, add(CFA_XSP16, literal(-1)))
          CFI (cfiCond16) CFA_SP SP+-2
          CFI (cfiCond16) CFA_XSP16 add(XSP16, 16)
          CFI Block cfiPicker17 Using cfiCommon1
          CFI (cfiPicker17) NoFunction
          CFI (cfiPicker17) Picker
        MOV       DPL,R2
        MOV       DPH,R3
        INC       DPTR
        INC       DPTR
        MOVX      A,@DPTR
        MOV       ?V4,A
        CLR       A
        MOV       ?V5,A
        MOV       A,#0x10
        RET
          CFI EndBlock cfiCond15
          CFI EndBlock cfiCond16
          CFI EndBlock cfiPicker17

        RSEG BANKED_CODE:HUGECODE:NOROOT(0)
?Subroutine10:
          CFI Block cfiCond18 Using cfiCommon0
          CFI Function osal_build_uint32
          CFI Conditional ??CrossCallReturnLabel_10
          CFI R6 load(1, XDATA, add(CFA_XSP16, literal(-16)))
          CFI VB load(1, XDATA, add(CFA_XSP16, literal(-15)))
          CFI V0 load(1, XDATA, add(CFA_XSP16, literal(-14)))
          CFI V1 load(1, XDATA, add(CFA_XSP16, literal(-13)))
          CFI V2 load(1, XDATA, add(CFA_XSP16, literal(-12)))
          CFI V3 load(1, XDATA, add(CFA_XSP16, literal(-11)))
          CFI V4 load(1, XDATA, add(CFA_XSP16, literal(-10)))
          CFI V5 load(1, XDATA, add(CFA_XSP16, literal(-9)))
          CFI V6 load(1, XDATA, add(CFA_XSP16, literal(-8)))
          CFI V7 load(1, XDATA, add(CFA_XSP16, literal(-7)))
          CFI R7 load(1, XDATA, add(CFA_XSP16, literal(-6)))
          CFI ?RET_LOW load(1, XDATA, add(CFA_XSP16, literal(-5)))
          CFI ?RET_HIGH load(1, XDATA, add(CFA_XSP16, literal(-4)))
          CFI ?BRET_EXT load(1, XDATA, add(CFA_XSP16, literal(-3)))
          CFI DPL0 load(1, XDATA, add(CFA_XSP16, literal(-2)))
          CFI DPH0 load(1, XDATA, add(CFA_XSP16, literal(-1)))
          CFI CFA_SP SP+-2
          CFI CFA_XSP16 add(XSP16, 16)
          CFI Block cfiCond19 Using cfiCommon0
          CFI (cfiCond19) Function osal_build_uint32
          CFI (cfiCond19) Conditional ??CrossCallReturnLabel_11
          CFI (cfiCond19) R6 load(1, XDATA, add(CFA_XSP16, literal(-16)))
          CFI (cfiCond19) VB load(1, XDATA, add(CFA_XSP16, literal(-15)))
          CFI (cfiCond19) V0 load(1, XDATA, add(CFA_XSP16, literal(-14)))
          CFI (cfiCond19) V1 load(1, XDATA, add(CFA_XSP16, literal(-13)))
          CFI (cfiCond19) V2 load(1, XDATA, add(CFA_XSP16, literal(-12)))
          CFI (cfiCond19) V3 load(1, XDATA, add(CFA_XSP16, literal(-11)))
          CFI (cfiCond19) V4 load(1, XDATA, add(CFA_XSP16, literal(-10)))
          CFI (cfiCond19) V5 load(1, XDATA, add(CFA_XSP16, literal(-9)))
          CFI (cfiCond19) V6 load(1, XDATA, add(CFA_XSP16, literal(-8)))
          CFI (cfiCond19) V7 load(1, XDATA, add(CFA_XSP16, literal(-7)))
          CFI (cfiCond19) R7 load(1, XDATA, add(CFA_XSP16, literal(-6)))
          CFI (cfiCond19) ?RET_LOW load(1, XDATA, add(CFA_XSP16, literal(-5)))
          CFI (cfiCond19) ?RET_HIGH load(1, XDATA, add(CFA_XSP16, literal(-4)))
          CFI (cfiCond19) ?BRET_EXT load(1, XDATA, add(CFA_XSP16, literal(-3)))
          CFI (cfiCond19) DPL0 load(1, XDATA, add(CFA_XSP16, literal(-2)))
          CFI (cfiCond19) DPH0 load(1, XDATA, add(CFA_XSP16, literal(-1)))
          CFI (cfiCond19) CFA_SP SP+-2
          CFI (cfiCond19) CFA_XSP16 add(XSP16, 16)
          CFI Block cfiPicker20 Using cfiCommon1
          CFI (cfiPicker20) NoFunction
          CFI (cfiPicker20) Picker
        LCALL     ?Subroutine25 & 0xFFFF
??CrossCallReturnLabel_43:
        MOV       R0,#?V4
        RET
          CFI EndBlock cfiCond18
          CFI EndBlock cfiCond19
          CFI EndBlock cfiPicker20

        RSEG BANKED_CODE:HUGECODE:NOROOT(0)
?Subroutine25:
          CFI Block cfiCond21 Using cfiCommon0
          CFI Function osal_build_uint32
          CFI Conditional ??CrossCallReturnLabel_42
          CFI R6 load(1, XDATA, add(CFA_XSP16, literal(-16)))
          CFI VB load(1, XDATA, add(CFA_XSP16, literal(-15)))
          CFI V0 load(1, XDATA, add(CFA_XSP16, literal(-14)))
          CFI V1 load(1, XDATA, add(CFA_XSP16, literal(-13)))
          CFI V2 load(1, XDATA, add(CFA_XSP16, literal(-12)))
          CFI V3 load(1, XDATA, add(CFA_XSP16, literal(-11)))
          CFI V4 load(1, XDATA, add(CFA_XSP16, literal(-10)))
          CFI V5 load(1, XDATA, add(CFA_XSP16, literal(-9)))
          CFI V6 load(1, XDATA, add(CFA_XSP16, literal(-8)))
          CFI V7 load(1, XDATA, add(CFA_XSP16, literal(-7)))
          CFI R7 load(1, XDATA, add(CFA_XSP16, literal(-6)))
          CFI ?RET_LOW load(1, XDATA, add(CFA_XSP16, literal(-5)))
          CFI ?RET_HIGH load(1, XDATA, add(CFA_XSP16, literal(-4)))
          CFI ?BRET_EXT load(1, XDATA, add(CFA_XSP16, literal(-3)))
          CFI DPL0 load(1, XDATA, add(CFA_XSP16, literal(-2)))
          CFI DPH0 load(1, XDATA, add(CFA_XSP16, literal(-1)))
          CFI CFA_SP SP+-2
          CFI CFA_XSP16 add(XSP16, 16)
          CFI Block cfiCond22 Using cfiCommon0
          CFI (cfiCond22) Function osal_build_uint32
          CFI (cfiCond22) Conditional ??CrossCallReturnLabel_43, ??CrossCallReturnLabel_10
          CFI (cfiCond22) R6 load(1, XDATA, add(CFA_XSP16, literal(-16)))
          CFI (cfiCond22) VB load(1, XDATA, add(CFA_XSP16, literal(-15)))
          CFI (cfiCond22) V0 load(1, XDATA, add(CFA_XSP16, literal(-14)))
          CFI (cfiCond22) V1 load(1, XDATA, add(CFA_XSP16, literal(-13)))
          CFI (cfiCond22) V2 load(1, XDATA, add(CFA_XSP16, literal(-12)))
          CFI (cfiCond22) V3 load(1, XDATA, add(CFA_XSP16, literal(-11)))
          CFI (cfiCond22) V4 load(1, XDATA, add(CFA_XSP16, literal(-10)))
          CFI (cfiCond22) V5 load(1, XDATA, add(CFA_XSP16, literal(-9)))
          CFI (cfiCond22) V6 load(1, XDATA, add(CFA_XSP16, literal(-8)))
          CFI (cfiCond22) V7 load(1, XDATA, add(CFA_XSP16, literal(-7)))
          CFI (cfiCond22) R7 load(1, XDATA, add(CFA_XSP16, literal(-6)))
          CFI (cfiCond22) ?RET_LOW load(1, XDATA, add(CFA_XSP16, literal(-5)))
          CFI (cfiCond22) ?RET_HIGH load(1, XDATA, add(CFA_XSP16, literal(-4)))
          CFI (cfiCond22) ?BRET_EXT load(1, XDATA, add(CFA_XSP16, literal(-3)))
          CFI (cfiCond22) DPL0 load(1, XDATA, add(CFA_XSP16, literal(-2)))
          CFI (cfiCond22) DPH0 load(1, XDATA, add(CFA_XSP16, literal(-1)))
          CFI (cfiCond22) CFA_SP SP+-4
          CFI (cfiCond22) CFA_XSP16 add(XSP16, 16)
          CFI Block cfiCond23 Using cfiCommon0
          CFI (cfiCond23) Function osal_build_uint32
          CFI (cfiCond23) Conditional ??CrossCallReturnLabel_43, ??CrossCallReturnLabel_11
          CFI (cfiCond23) R6 load(1, XDATA, add(CFA_XSP16, literal(-16)))
          CFI (cfiCond23) VB load(1, XDATA, add(CFA_XSP16, literal(-15)))
          CFI (cfiCond23) V0 load(1, XDATA, add(CFA_XSP16, literal(-14)))
          CFI (cfiCond23) V1 load(1, XDATA, add(CFA_XSP16, literal(-13)))
          CFI (cfiCond23) V2 load(1, XDATA, add(CFA_XSP16, literal(-12)))
          CFI (cfiCond23) V3 load(1, XDATA, add(CFA_XSP16, literal(-11)))
          CFI (cfiCond23) V4 load(1, XDATA, add(CFA_XSP16, literal(-10)))
          CFI (cfiCond23) V5 load(1, XDATA, add(CFA_XSP16, literal(-9)))
          CFI (cfiCond23) V6 load(1, XDATA, add(CFA_XSP16, literal(-8)))
          CFI (cfiCond23) V7 load(1, XDATA, add(CFA_XSP16, literal(-7)))
          CFI (cfiCond23) R7 load(1, XDATA, add(CFA_XSP16, literal(-6)))
          CFI (cfiCond23) ?RET_LOW load(1, XDATA, add(CFA_XSP16, literal(-5)))
          CFI (cfiCond23) ?RET_HIGH load(1, XDATA, add(CFA_XSP16, literal(-4)))
          CFI (cfiCond23) ?BRET_EXT load(1, XDATA, add(CFA_XSP16, literal(-3)))
          CFI (cfiCond23) DPL0 load(1, XDATA, add(CFA_XSP16, literal(-2)))
          CFI (cfiCond23) DPH0 load(1, XDATA, add(CFA_XSP16, literal(-1)))
          CFI (cfiCond23) CFA_SP SP+-4
          CFI (cfiCond23) CFA_XSP16 add(XSP16, 16)
          CFI Block cfiPicker24 Using cfiCommon1
          CFI (cfiPicker24) NoFunction
          CFI (cfiPicker24) Picker
        INC       DPTR
        MOVX      A,@DPTR
        MOV       ?V4,A
        CLR       A
        MOV       ?V5,A
        MOV       ?V6,A
        MOV       ?V7,A
        MOV       A,#0x8
        RET
          CFI EndBlock cfiCond21
          CFI EndBlock cfiCond22
          CFI EndBlock cfiCond23
          CFI EndBlock cfiPicker24
//  298 
//  299 #if !defined ( ZBIT ) && !defined ( ZBIT2 ) && !defined (UBIT)
//  300 /*********************************************************************
//  301  * @fn      _ltoa
//  302  *
//  303  * @brief
//  304  *
//  305  *   convert a long unsigned int to a string.
//  306  *
//  307  * @param  l - long to convert
//  308  * @param  buf - buffer to convert to
//  309  * @param  radix - 10 dec, 16 hex
//  310  *
//  311  * @return  pointer to buffer
//  312  */

        RSEG BANKED_CODE:HUGECODE:NOROOT(0)
//  313 unsigned char * _ltoa(unsigned long l, unsigned char *buf, unsigned char radix)
_ltoa:
          CFI Block cfiBlock25 Using cfiCommon0
          CFI Function _ltoa
        CODE
//  314 {
        FUNCALL _ltoa, _itoa
        LOCFRAME ISTACK, 0, STACK
        LOCFRAME PSTACK, 0, STACK
        LOCFRAME XSTACK, 55, STACK
        LOCFRAME IOVERLAY, 0, STATIC
        LOCFRAME DOVERLAY, 0, STATIC
        ARGFRAME ISTACK, 0, STACK
        ARGFRAME PSTACK, 0, STACK
        ARGFRAME XSTACK, 55, STACK
        ARGFRAME IOVERLAY, 0, STATIC
        ARGFRAME DOVERLAY, 0, STATIC
        FUNCALL _ltoa, _itoa
        LOCFRAME ISTACK, 0, STACK
        LOCFRAME PSTACK, 0, STACK
        LOCFRAME XSTACK, 55, STACK
        LOCFRAME IOVERLAY, 0, STATIC
        LOCFRAME DOVERLAY, 0, STATIC
        ARGFRAME ISTACK, 0, STACK
        ARGFRAME PSTACK, 0, STACK
        ARGFRAME XSTACK, 55, STACK
        ARGFRAME IOVERLAY, 0, STATIC
        ARGFRAME DOVERLAY, 0, STATIC
        FUNCALL _ltoa, _itoa
        LOCFRAME ISTACK, 0, STACK
        LOCFRAME PSTACK, 0, STACK
        LOCFRAME XSTACK, 55, STACK
        LOCFRAME IOVERLAY, 0, STATIC
        LOCFRAME DOVERLAY, 0, STATIC
        ARGFRAME ISTACK, 0, STACK
        ARGFRAME PSTACK, 0, STACK
        ARGFRAME XSTACK, 55, STACK
        ARGFRAME IOVERLAY, 0, STATIC
        ARGFRAME DOVERLAY, 0, STATIC
        FUNCALL _ltoa, strcpy
        LOCFRAME ISTACK, 0, STACK
        LOCFRAME PSTACK, 0, STACK
        LOCFRAME XSTACK, 55, STACK
        LOCFRAME IOVERLAY, 0, STATIC
        LOCFRAME DOVERLAY, 0, STATIC
        ARGFRAME ISTACK, 0, STACK
        ARGFRAME PSTACK, 0, STACK
        ARGFRAME XSTACK, 55, STACK
        ARGFRAME IOVERLAY, 0, STATIC
        ARGFRAME DOVERLAY, 0, STATIC
        FUNCALL _ltoa, strcat
        LOCFRAME ISTACK, 0, STACK
        LOCFRAME PSTACK, 0, STACK
        LOCFRAME XSTACK, 55, STACK
        LOCFRAME IOVERLAY, 0, STATIC
        LOCFRAME DOVERLAY, 0, STATIC
        ARGFRAME ISTACK, 0, STACK
        ARGFRAME PSTACK, 0, STACK
        ARGFRAME XSTACK, 55, STACK
        ARGFRAME IOVERLAY, 0, STATIC
        ARGFRAME DOVERLAY, 0, STATIC
        FUNCALL _ltoa, strlen
        LOCFRAME ISTACK, 0, STACK
        LOCFRAME PSTACK, 0, STACK
        LOCFRAME XSTACK, 55, STACK
        LOCFRAME IOVERLAY, 0, STATIC
        LOCFRAME DOVERLAY, 0, STATIC
        ARGFRAME ISTACK, 0, STACK
        ARGFRAME PSTACK, 0, STACK
        ARGFRAME XSTACK, 55, STACK
        ARGFRAME IOVERLAY, 0, STATIC
        ARGFRAME DOVERLAY, 0, STATIC
        FUNCALL _ltoa, strcat
        LOCFRAME ISTACK, 0, STACK
        LOCFRAME PSTACK, 0, STACK
        LOCFRAME XSTACK, 55, STACK
        LOCFRAME IOVERLAY, 0, STATIC
        LOCFRAME DOVERLAY, 0, STATIC
        ARGFRAME ISTACK, 0, STACK
        ARGFRAME PSTACK, 0, STACK
        ARGFRAME XSTACK, 55, STACK
        ARGFRAME IOVERLAY, 0, STATIC
        ARGFRAME DOVERLAY, 0, STATIC
        FUNCALL _ltoa, strcat
        LOCFRAME ISTACK, 0, STACK
        LOCFRAME PSTACK, 0, STACK
        LOCFRAME XSTACK, 55, STACK
        LOCFRAME IOVERLAY, 0, STATIC
        LOCFRAME DOVERLAY, 0, STATIC
        ARGFRAME ISTACK, 0, STACK
        ARGFRAME PSTACK, 0, STACK
        ARGFRAME XSTACK, 55, STACK
        ARGFRAME IOVERLAY, 0, STATIC
        ARGFRAME DOVERLAY, 0, STATIC
        FUNCALL _ltoa, strlen
        LOCFRAME ISTACK, 0, STACK
        LOCFRAME PSTACK, 0, STACK
        LOCFRAME XSTACK, 55, STACK
        LOCFRAME IOVERLAY, 0, STATIC
        LOCFRAME DOVERLAY, 0, STATIC
        ARGFRAME ISTACK, 0, STACK
        ARGFRAME PSTACK, 0, STACK
        ARGFRAME XSTACK, 55, STACK
        ARGFRAME IOVERLAY, 0, STATIC
        ARGFRAME DOVERLAY, 0, STATIC
        FUNCALL _ltoa, strcat
        LOCFRAME ISTACK, 0, STACK
        LOCFRAME PSTACK, 0, STACK
        LOCFRAME XSTACK, 55, STACK
        LOCFRAME IOVERLAY, 0, STATIC
        LOCFRAME DOVERLAY, 0, STATIC
        ARGFRAME ISTACK, 0, STACK
        ARGFRAME PSTACK, 0, STACK
        ARGFRAME XSTACK, 55, STACK
        ARGFRAME IOVERLAY, 0, STATIC
        ARGFRAME DOVERLAY, 0, STATIC
        FUNCALL _ltoa, _itoa
        LOCFRAME ISTACK, 0, STACK
        LOCFRAME PSTACK, 0, STACK
        LOCFRAME XSTACK, 55, STACK
        LOCFRAME IOVERLAY, 0, STATIC
        LOCFRAME DOVERLAY, 0, STATIC
        ARGFRAME ISTACK, 0, STACK
        ARGFRAME PSTACK, 0, STACK
        ARGFRAME XSTACK, 55, STACK
        ARGFRAME IOVERLAY, 0, STATIC
        ARGFRAME DOVERLAY, 0, STATIC
        FUNCALL _ltoa, _itoa
        LOCFRAME ISTACK, 0, STACK
        LOCFRAME PSTACK, 0, STACK
        LOCFRAME XSTACK, 55, STACK
        LOCFRAME IOVERLAY, 0, STATIC
        LOCFRAME DOVERLAY, 0, STATIC
        ARGFRAME ISTACK, 0, STACK
        ARGFRAME PSTACK, 0, STACK
        ARGFRAME XSTACK, 55, STACK
        ARGFRAME IOVERLAY, 0, STATIC
        ARGFRAME DOVERLAY, 0, STATIC
        FUNCALL _ltoa, strcpy
        LOCFRAME ISTACK, 0, STACK
        LOCFRAME PSTACK, 0, STACK
        LOCFRAME XSTACK, 55, STACK
        LOCFRAME IOVERLAY, 0, STATIC
        LOCFRAME DOVERLAY, 0, STATIC
        ARGFRAME ISTACK, 0, STACK
        ARGFRAME PSTACK, 0, STACK
        ARGFRAME XSTACK, 55, STACK
        ARGFRAME IOVERLAY, 0, STATIC
        ARGFRAME DOVERLAY, 0, STATIC
        FUNCALL _ltoa, strcat
        LOCFRAME ISTACK, 0, STACK
        LOCFRAME PSTACK, 0, STACK
        LOCFRAME XSTACK, 55, STACK
        LOCFRAME IOVERLAY, 0, STATIC
        LOCFRAME DOVERLAY, 0, STATIC
        ARGFRAME ISTACK, 0, STACK
        ARGFRAME PSTACK, 0, STACK
        ARGFRAME XSTACK, 55, STACK
        ARGFRAME IOVERLAY, 0, STATIC
        ARGFRAME DOVERLAY, 0, STATIC
        FUNCALL _ltoa, strlen
        LOCFRAME ISTACK, 0, STACK
        LOCFRAME PSTACK, 0, STACK
        LOCFRAME XSTACK, 55, STACK
        LOCFRAME IOVERLAY, 0, STATIC
        LOCFRAME DOVERLAY, 0, STATIC
        ARGFRAME ISTACK, 0, STACK
        ARGFRAME PSTACK, 0, STACK
        ARGFRAME XSTACK, 55, STACK
        ARGFRAME IOVERLAY, 0, STATIC
        ARGFRAME DOVERLAY, 0, STATIC
        FUNCALL _ltoa, strcat
        LOCFRAME ISTACK, 0, STACK
        LOCFRAME PSTACK, 0, STACK
        LOCFRAME XSTACK, 55, STACK
        LOCFRAME IOVERLAY, 0, STATIC
        LOCFRAME DOVERLAY, 0, STATIC
        ARGFRAME ISTACK, 0, STACK
        ARGFRAME PSTACK, 0, STACK
        ARGFRAME XSTACK, 55, STACK
        ARGFRAME IOVERLAY, 0, STATIC
        ARGFRAME DOVERLAY, 0, STATIC
        FUNCALL _ltoa, strcpy
        LOCFRAME ISTACK, 0, STACK
        LOCFRAME PSTACK, 0, STACK
        LOCFRAME XSTACK, 55, STACK
        LOCFRAME IOVERLAY, 0, STATIC
        LOCFRAME DOVERLAY, 0, STATIC
        ARGFRAME ISTACK, 0, STACK
        ARGFRAME PSTACK, 0, STACK
        ARGFRAME XSTACK, 55, STACK
        ARGFRAME IOVERLAY, 0, STATIC
        ARGFRAME DOVERLAY, 0, STATIC
        REQUIRE ?V0
        REQUIRE ?V1
        REQUIRE ?V2
        REQUIRE ?V3
        REQUIRE ?V4
        REQUIRE ?V5
        REQUIRE ?V6
        REQUIRE ?V7
        MOV       A,#-0x10
        LCALL     ?BANKED_ENTER_XDATA
          CFI DPH0 load(1, XDATA, add(CFA_XSP16, literal(-1)))
          CFI DPL0 load(1, XDATA, add(CFA_XSP16, literal(-2)))
          CFI ?BRET_EXT load(1, XDATA, add(CFA_XSP16, literal(-3)))
          CFI ?RET_HIGH load(1, XDATA, add(CFA_XSP16, literal(-4)))
          CFI ?RET_LOW load(1, XDATA, add(CFA_XSP16, literal(-5)))
          CFI R7 load(1, XDATA, add(CFA_XSP16, literal(-6)))
          CFI V7 load(1, XDATA, add(CFA_XSP16, literal(-7)))
          CFI V6 load(1, XDATA, add(CFA_XSP16, literal(-8)))
          CFI V5 load(1, XDATA, add(CFA_XSP16, literal(-9)))
          CFI V4 load(1, XDATA, add(CFA_XSP16, literal(-10)))
          CFI V3 load(1, XDATA, add(CFA_XSP16, literal(-11)))
          CFI V2 load(1, XDATA, add(CFA_XSP16, literal(-12)))
          CFI V1 load(1, XDATA, add(CFA_XSP16, literal(-13)))
          CFI V0 load(1, XDATA, add(CFA_XSP16, literal(-14)))
          CFI VB load(1, XDATA, add(CFA_XSP16, literal(-15)))
          CFI R6 load(1, XDATA, add(CFA_XSP16, literal(-16)))
          CFI CFA_SP SP+0
          CFI CFA_XSP16 add(XSP16, 16)
        ; Saved register size: 16
        ; Auto size: 39
        MOV       A,#-0x27
        LCALL     ?ALLOC_XSTACK8
          CFI CFA_XSP16 add(XSP16, 55)
        MOV       A,#0x5
        LCALL     ?XSTACK_DISP0_8
        MOV       A,R2
        MOVX      @DPTR,A
        INC       DPTR
        MOV       A,R3
        MOVX      @DPTR,A
        INC       DPTR
        MOV       A,R4
        MOVX      @DPTR,A
        INC       DPTR
        MOV       A,R5
        MOVX      @DPTR,A
        MOV       A,#0x2
        LCALL     ?XSTACK_DISP0_8
        MOV       A,R1
        MOVX      @DPTR,A
//  315 #if defined( __GNUC__ )
//  316   return ( (char*)ltoa( l, buf, radix ) );
//  317 #else
//  318   unsigned char tmp1[10] = "", tmp2[10] = "", tmp3[10] = "";
        MOV       DPTR,#`?<Constant "">`
        MOV       A,#0x9
        LCALL     ?XSTACK_DISP102_8
        MOV       A,#0xa
        LCALL     ?MOVE_LONG8_XDATA_XDATA
        MOV       DPTR,#`?<Constant "">_1`
        MOV       A,#0xa
        LCALL     ?MOVE_LONG8_XDATA_XDATA
        MOV       DPTR,#`?<Constant "">_2`
        MOV       A,#0xa
        LCALL     ?MOVE_LONG8_XDATA_XDATA
//  319   unsigned short num1, num2, num3;
//  320   unsigned char i;
//  321 
//  322   buf[0] = '\0';
        MOV       A,#0x37
        LCALL     ?XSTACK_DISP0_8
        LCALL     ?Subroutine17 & 0xFFFF
??CrossCallReturnLabel_28:
        CLR       A
        MOVX      @DPTR,A
//  323 
//  324   if ( radix == 10 )
        MOV       A,#0x3
        LCALL     ?XSTACK_DISP0_8
        MOV       A,#`?<Constant "0">` & 0xff
        MOVX      @DPTR,A
        INC       DPTR
        MOV       A,#(`?<Constant "0">` >> 8) & 0xff
        MOVX      @DPTR,A
        MOV       A,#0x2
        LCALL     ?XSTACK_DISP0_8
        MOVX      A,@DPTR
        XRL       A,#0xa
        JZ        $+5
        LJMP      ??_ltoa_0 & 0xFFFF
//  325   {
//  326     num1 = l % 10000;
        MOV       A,#0x5
        LCALL     ?XSTACK_DISP0_8
        MOV       R0,#?V4
        LCALL     ?L_MOV_X
        MOV       DPTR,#__Constant_2710
        MOV       R0,#?V0
        LCALL     ?L_MOV_X
        MOV       R0,#?V4
        MOV       R1,#?V0
        LCALL     ?UL_DIV_MOD
        MOV       DPL,?XSP + 0
        MOV       DPH,?XSP + 1
        MOV       A,?V0
        MOVX      @DPTR,A
        INC       DPTR
        MOV       A,?V1
        MOVX      @DPTR,A
//  327     num2 = (l / 10000) % 10000;
        MOV       A,#0x5
        LCALL     ?XSTACK_DISP0_8
        MOV       R0,#?V4
        LCALL     ?L_MOV_X
        MOV       DPTR,#__Constant_2710
        MOV       R0,#?V0
        LCALL     ?L_MOV_X
        MOV       R0,#?V4
        MOV       R1,#?V0
        LCALL     ?UL_DIV_MOD
        MOV       DPTR,#__Constant_2710
        MOV       R0,#?V0
        LCALL     ?L_MOV_X
        MOV       R0,#?V4
        MOV       R1,#?V0
        LCALL     ?UL_DIV_MOD
        MOV       R6,?V0
        MOV       R7,?V1
//  328     num3 = (unsigned short)(l / 100000000);
        MOV       A,#0x5
        LCALL     ?XSTACK_DISP0_8
        MOV       R0,#?V4
        LCALL     ?L_MOV_X
        MOV       DPTR,#__Constant_5f5e100
        MOV       R0,#?V0
        LCALL     ?L_MOV_X
        MOV       R0,#?V4
        MOV       R1,#?V0
        LCALL     ?UL_DIV_MOD
        MOV       ?V6,?V4
        MOV       ?V7,?V5
//  329 
//  330     if (num3) _itoa(num3, tmp3, 10);
        MOV       A,?V6
        ORL       A,?V7
        JZ        ??_ltoa_1
        ; Setup parameters for call to function _itoa
        MOV       R1,#0xa
        MOV       A,#0x1d
        LCALL     ?XSTACK_DISP102_8
        MOV       R2,?V6
        MOV       R3,?V7
        LCALL     `??_itoa::?relay`; Banked call to: _itoa
//  331     if (num2) _itoa(num2, tmp2, 10);
??_ltoa_1:
        MOV       A,R6
        ORL       A,R7
        JZ        ??_ltoa_2
        ; Setup parameters for call to function _itoa
        MOV       R1,#0xa
        MOV       A,#0x13
        LCALL     ?XSTACK_DISP102_8
        MOV       A,R6
        MOV       R2,A
        MOV       A,R7
        MOV       R3,A
        LCALL     `??_itoa::?relay`; Banked call to: _itoa
//  332     if (num1) _itoa(num1, tmp1, 10);
??_ltoa_2:
        LCALL     ?Subroutine7 & 0xFFFF
??CrossCallReturnLabel_58:
        JZ        ??CrossCallReturnLabel_21
        ; Setup parameters for call to function _itoa
        MOV       R1,#0xa
        MOV       A,#0x9
        LCALL     ?XSTACK_DISP102_8
        LCALL     ?Subroutine15 & 0xFFFF
//  333 
//  334     if (num3)
??CrossCallReturnLabel_21:
        MOV       A,?V6
        ORL       A,?V7
        JZ        ??_ltoa_3
//  335     {
//  336       strcpy((char*)buf, (char const*)tmp3);
        ; Setup parameters for call to function strcpy
        MOV       A,#0x1d
        LCALL     ?XSTACK_DISP102_8
        MOV       A,#0x37
        LCALL     ?XSTACK_DISP0_8
        LCALL     ?Subroutine13 & 0xFFFF
//  337       for (i = 0; i < 4 - strlen((char const*)tmp2); i++)
??CrossCallReturnLabel_17:
        SJMP      ??CrossCallReturnLabel_3
//  338         strcat((char*)buf, "0");
??_ltoa_4:
        ; Setup parameters for call to function strcat
        MOV       A,#0x3
        LCALL     ?XSTACK_DISP0_8
        LCALL     ?Subroutine9 & 0xFFFF
??CrossCallReturnLabel_6:
        LCALL     ?XSTACK_DISP0_8
        LCALL     ?Subroutine8 & 0xFFFF
??CrossCallReturnLabel_3:
        MOV       A,?V2
        MOV       ?V0,A
        ; Setup parameters for call to function strlen
        MOV       A,#0x13
        LCALL     ?XSTACK_DISP101_8
        LCALL     ?Subroutine6 & 0xFFFF
//  339     }
??CrossCallReturnLabel_0:
        JC        ??_ltoa_4
//  340     strcat((char*)buf, (char const*)tmp2);
??_ltoa_3:
        ; Setup parameters for call to function strcat
        MOV       A,#0x13
        LCALL     ?XSTACK_DISP102_8
        MOV       A,#0x37
        LCALL     ?XSTACK_DISP0_8
        LCALL     ?Subroutine12 & 0xFFFF
//  341     if (num3 || num2)
??CrossCallReturnLabel_15:
        JNZ       ??_ltoa_5
        MOV       A,R6
        ORL       A,R7
        JZ        ??_ltoa_6
//  342     {
//  343       for (i = 0; i < 4 - strlen((char const*)tmp1); i++)
??_ltoa_5:
        MOV       ?V2,#0x0
        SJMP      ??CrossCallReturnLabel_4
//  344         strcat((char*)buf, "0");
??_ltoa_7:
        ; Setup parameters for call to function strcat
        MOV       A,#0x3
        LCALL     ?XSTACK_DISP0_8
        LCALL     ?Subroutine9 & 0xFFFF
??CrossCallReturnLabel_7:
        LCALL     ?XSTACK_DISP0_8
        LCALL     ?Subroutine8 & 0xFFFF
??CrossCallReturnLabel_4:
        MOV       A,?V2
        MOV       ?V0,A
        ; Setup parameters for call to function strlen
        MOV       A,#0x9
        LCALL     ?XSTACK_DISP101_8
        LCALL     ?Subroutine6 & 0xFFFF
//  345     }
??CrossCallReturnLabel_1:
        JC        ??_ltoa_7
//  346     strcat((char*)buf, (char const*)tmp1);
??_ltoa_6:
        ; Setup parameters for call to function strcat
        MOV       A,#0x9
        LCALL     ?XSTACK_DISP102_8
        MOV       A,#0x37
        LCALL     ?XSTACK_DISP0_8
        LCALL     ?Subroutine12 & 0xFFFF
//  347     if (!num3 && !num2 && !num1)
//  348       strcpy((char*)buf, "0");
//  349   }
??CrossCallReturnLabel_16:
        JNZ       ??_ltoa_8
        MOV       A,R6
        ORL       A,R7
        JNZ       $+5
        LJMP      ??_ltoa_9 & 0xFFFF
//  350   else if ( radix == 16 )
//  351   {
//  352     num1 = l & 0x0000FFFF;
//  353     num2 = l >> 16;
//  354 
//  355     if (num2) _itoa(num2, tmp2, 16);
//  356     if (num1) _itoa(num1, tmp1, 16);
//  357 
//  358     if (num2)
//  359     {
//  360       strcpy((char*)buf,(char const*)tmp2);
//  361       for (i = 0; i < 4 - strlen((char const*)tmp1); i++)
//  362         strcat((char*)buf, "0");
//  363     }
//  364     strcat((char*)buf, (char const*)tmp1);
//  365     if (!num2 && !num1)
//  366       strcpy((char*)buf, "0");
//  367   }
//  368   else
//  369     return NULL;
//  370 
//  371   return buf;
??_ltoa_8:
        MOV       A,#0x37
        LCALL     ?XSTACK_DISP0_8
        LCALL     ?Subroutine16 & 0xFFFF
??CrossCallReturnLabel_23:
        MOV       A,#0x27
        LCALL     ?DEALLOC_XSTACK8
          CFI CFA_XSP16 add(XSP16, 16)
        LJMP      ?Subroutine2 & 0xFFFF
          CFI CFA_XSP16 add(XSP16, 55)
??_ltoa_0:
        MOVX      A,@DPTR
        XRL       A,#0x10
        JZ        $+5
        LJMP      ??_ltoa_10 & 0xFFFF
        MOV       A,#0x5
        LCALL     ?XSTACK_DISP0_8
        MOV       R0,#?V0
        LCALL     ?L_MOV_X
        MOV       DPL,?XSP + 0
        MOV       DPH,?XSP + 1
        MOV       A,?V0
        MOVX      @DPTR,A
        INC       DPTR
        MOV       A,?V1
        MOVX      @DPTR,A
        MOV       A,#0x5
        LCALL     ?XSTACK_DISP0_8
        MOV       R0,#?V0
        LCALL     ?L_MOV_X
        MOV       A,#0x10
        MOV       R0,#?V0
        LCALL     ?UL_SHR
        MOV       R6,?V0
        MOV       R7,?V1
        MOV       A,R6
        ORL       A,R7
        JZ        ??_ltoa_11
        ; Setup parameters for call to function _itoa
        MOV       R1,#0x10
        MOV       A,#0x13
        LCALL     ?XSTACK_DISP102_8
        MOV       A,R6
        MOV       R2,A
        MOV       A,R7
        MOV       R3,A
        LCALL     `??_itoa::?relay`; Banked call to: _itoa
??_ltoa_11:
        LCALL     ?Subroutine7 & 0xFFFF
??CrossCallReturnLabel_59:
        JZ        ??CrossCallReturnLabel_22
        ; Setup parameters for call to function _itoa
        MOV       R1,#0x10
        MOV       A,#0x9
        LCALL     ?XSTACK_DISP102_8
        LCALL     ?Subroutine15 & 0xFFFF
??CrossCallReturnLabel_22:
        MOV       A,R6
        ORL       A,R7
        JZ        ??_ltoa_12
        ; Setup parameters for call to function strcpy
        MOV       A,#0x13
        LCALL     ?XSTACK_DISP102_8
        MOV       A,#0x37
        LCALL     ?XSTACK_DISP0_8
        LCALL     ?Subroutine13 & 0xFFFF
??CrossCallReturnLabel_18:
        SJMP      ??CrossCallReturnLabel_5
??_ltoa_13:
        ; Setup parameters for call to function strcat
        MOV       A,#0x3
        LCALL     ?XSTACK_DISP0_8
        LCALL     ?Subroutine9 & 0xFFFF
??CrossCallReturnLabel_8:
        LCALL     ?XSTACK_DISP0_8
        LCALL     ?Subroutine8 & 0xFFFF
??CrossCallReturnLabel_5:
        MOV       A,?V2
        MOV       ?V0,A
        ; Setup parameters for call to function strlen
        MOV       A,#0x9
        LCALL     ?XSTACK_DISP101_8
        LCALL     ?Subroutine6 & 0xFFFF
??CrossCallReturnLabel_2:
        JC        ??_ltoa_13
??_ltoa_12:
        ; Setup parameters for call to function strcat
        MOV       A,#0x9
        LCALL     ?XSTACK_DISP102_8
        MOV       A,#0x37
        LCALL     ?XSTACK_DISP0_8
        LCALL     ?Subroutine16 & 0xFFFF
??CrossCallReturnLabel_24:
        LCALL     `??strcat::?relay`; Banked call to: strcat
        MOV       A,R6
        ORL       A,R7
        JZ        $+5
        LJMP      ??_ltoa_8 & 0xFFFF
??_ltoa_9:
        LCALL     ?Subroutine7 & 0xFFFF
??CrossCallReturnLabel_60:
        JZ        $+5
        LJMP      ??_ltoa_8 & 0xFFFF
        ; Setup parameters for call to function strcpy
        MOV       A,#0x3
        LCALL     ?XSTACK_DISP0_8
        LCALL     ?Subroutine9 & 0xFFFF
??CrossCallReturnLabel_9:
        LCALL     ?XSTACK_DISP0_8
        LCALL     ?Subroutine16 & 0xFFFF
??CrossCallReturnLabel_25:
        LCALL     `??strcpy::?relay`; Banked call to: strcpy
        LJMP      ??_ltoa_8 & 0xFFFF
??_ltoa_10:
        MOV       R2,#0x0
        MOV       R3,#0x0
        LJMP      ??CrossCallReturnLabel_23 & 0xFFFF
//  372 #endif
//  373 }
          CFI EndBlock cfiBlock25

        RSEG BANKED_CODE:HUGECODE:NOROOT(0)
?Subroutine15:
          CFI Block cfiCond26 Using cfiCommon0
          CFI Function _ltoa
          CFI Conditional ??CrossCallReturnLabel_21
          CFI R6 load(1, XDATA, add(CFA_XSP16, literal(-16)))
          CFI VB load(1, XDATA, add(CFA_XSP16, literal(-15)))
          CFI V0 load(1, XDATA, add(CFA_XSP16, literal(-14)))
          CFI V1 load(1, XDATA, add(CFA_XSP16, literal(-13)))
          CFI V2 load(1, XDATA, add(CFA_XSP16, literal(-12)))
          CFI V3 load(1, XDATA, add(CFA_XSP16, literal(-11)))
          CFI V4 load(1, XDATA, add(CFA_XSP16, literal(-10)))
          CFI V5 load(1, XDATA, add(CFA_XSP16, literal(-9)))
          CFI V6 load(1, XDATA, add(CFA_XSP16, literal(-8)))
          CFI V7 load(1, XDATA, add(CFA_XSP16, literal(-7)))
          CFI R7 load(1, XDATA, add(CFA_XSP16, literal(-6)))
          CFI ?RET_LOW load(1, XDATA, add(CFA_XSP16, literal(-5)))
          CFI ?RET_HIGH load(1, XDATA, add(CFA_XSP16, literal(-4)))
          CFI ?BRET_EXT load(1, XDATA, add(CFA_XSP16, literal(-3)))
          CFI DPL0 load(1, XDATA, add(CFA_XSP16, literal(-2)))
          CFI DPH0 load(1, XDATA, add(CFA_XSP16, literal(-1)))
          CFI CFA_SP SP+-2
          CFI CFA_XSP16 add(XSP16, 55)
          CFI Block cfiCond27 Using cfiCommon0
          CFI (cfiCond27) Function _ltoa
          CFI (cfiCond27) Conditional ??CrossCallReturnLabel_22
          CFI (cfiCond27) R6 load(1, XDATA, add(CFA_XSP16, literal(-16)))
          CFI (cfiCond27) VB load(1, XDATA, add(CFA_XSP16, literal(-15)))
          CFI (cfiCond27) V0 load(1, XDATA, add(CFA_XSP16, literal(-14)))
          CFI (cfiCond27) V1 load(1, XDATA, add(CFA_XSP16, literal(-13)))
          CFI (cfiCond27) V2 load(1, XDATA, add(CFA_XSP16, literal(-12)))
          CFI (cfiCond27) V3 load(1, XDATA, add(CFA_XSP16, literal(-11)))
          CFI (cfiCond27) V4 load(1, XDATA, add(CFA_XSP16, literal(-10)))
          CFI (cfiCond27) V5 load(1, XDATA, add(CFA_XSP16, literal(-9)))
          CFI (cfiCond27) V6 load(1, XDATA, add(CFA_XSP16, literal(-8)))
          CFI (cfiCond27) V7 load(1, XDATA, add(CFA_XSP16, literal(-7)))
          CFI (cfiCond27) R7 load(1, XDATA, add(CFA_XSP16, literal(-6)))
          CFI (cfiCond27) ?RET_LOW load(1, XDATA, add(CFA_XSP16, literal(-5)))
          CFI (cfiCond27) ?RET_HIGH load(1, XDATA, add(CFA_XSP16, literal(-4)))
          CFI (cfiCond27) ?BRET_EXT load(1, XDATA, add(CFA_XSP16, literal(-3)))
          CFI (cfiCond27) DPL0 load(1, XDATA, add(CFA_XSP16, literal(-2)))
          CFI (cfiCond27) DPH0 load(1, XDATA, add(CFA_XSP16, literal(-1)))
          CFI (cfiCond27) CFA_SP SP+-2
          CFI (cfiCond27) CFA_XSP16 add(XSP16, 55)
          CFI Block cfiPicker28 Using cfiCommon1
          CFI (cfiPicker28) NoFunction
          CFI (cfiPicker28) Picker
        MOV       DPL,?XSP + 0
        MOV       DPH,?XSP + 1
        LCALL     ?Subroutine27 & 0xFFFF
??CrossCallReturnLabel_48:
        LCALL     `??_itoa::?relay`; Banked call to: _itoa
        RET
          CFI EndBlock cfiCond26
          CFI EndBlock cfiCond27
          CFI EndBlock cfiPicker28

        RSEG BANKED_CODE:HUGECODE:NOROOT(0)
?Subroutine13:
          CFI Block cfiCond29 Using cfiCommon0
          CFI Function _ltoa
          CFI Conditional ??CrossCallReturnLabel_17
          CFI R6 load(1, XDATA, add(CFA_XSP16, literal(-16)))
          CFI VB load(1, XDATA, add(CFA_XSP16, literal(-15)))
          CFI V0 load(1, XDATA, add(CFA_XSP16, literal(-14)))
          CFI V1 load(1, XDATA, add(CFA_XSP16, literal(-13)))
          CFI V2 load(1, XDATA, add(CFA_XSP16, literal(-12)))
          CFI V3 load(1, XDATA, add(CFA_XSP16, literal(-11)))
          CFI V4 load(1, XDATA, add(CFA_XSP16, literal(-10)))
          CFI V5 load(1, XDATA, add(CFA_XSP16, literal(-9)))
          CFI V6 load(1, XDATA, add(CFA_XSP16, literal(-8)))
          CFI V7 load(1, XDATA, add(CFA_XSP16, literal(-7)))
          CFI R7 load(1, XDATA, add(CFA_XSP16, literal(-6)))
          CFI ?RET_LOW load(1, XDATA, add(CFA_XSP16, literal(-5)))
          CFI ?RET_HIGH load(1, XDATA, add(CFA_XSP16, literal(-4)))
          CFI ?BRET_EXT load(1, XDATA, add(CFA_XSP16, literal(-3)))
          CFI DPL0 load(1, XDATA, add(CFA_XSP16, literal(-2)))
          CFI DPH0 load(1, XDATA, add(CFA_XSP16, literal(-1)))
          CFI CFA_SP SP+-2
          CFI CFA_XSP16 add(XSP16, 55)
          CFI Block cfiCond30 Using cfiCommon0
          CFI (cfiCond30) Function _ltoa
          CFI (cfiCond30) Conditional ??CrossCallReturnLabel_18
          CFI (cfiCond30) R6 load(1, XDATA, add(CFA_XSP16, literal(-16)))
          CFI (cfiCond30) VB load(1, XDATA, add(CFA_XSP16, literal(-15)))
          CFI (cfiCond30) V0 load(1, XDATA, add(CFA_XSP16, literal(-14)))
          CFI (cfiCond30) V1 load(1, XDATA, add(CFA_XSP16, literal(-13)))
          CFI (cfiCond30) V2 load(1, XDATA, add(CFA_XSP16, literal(-12)))
          CFI (cfiCond30) V3 load(1, XDATA, add(CFA_XSP16, literal(-11)))
          CFI (cfiCond30) V4 load(1, XDATA, add(CFA_XSP16, literal(-10)))
          CFI (cfiCond30) V5 load(1, XDATA, add(CFA_XSP16, literal(-9)))
          CFI (cfiCond30) V6 load(1, XDATA, add(CFA_XSP16, literal(-8)))
          CFI (cfiCond30) V7 load(1, XDATA, add(CFA_XSP16, literal(-7)))
          CFI (cfiCond30) R7 load(1, XDATA, add(CFA_XSP16, literal(-6)))
          CFI (cfiCond30) ?RET_LOW load(1, XDATA, add(CFA_XSP16, literal(-5)))
          CFI (cfiCond30) ?RET_HIGH load(1, XDATA, add(CFA_XSP16, literal(-4)))
          CFI (cfiCond30) ?BRET_EXT load(1, XDATA, add(CFA_XSP16, literal(-3)))
          CFI (cfiCond30) DPL0 load(1, XDATA, add(CFA_XSP16, literal(-2)))
          CFI (cfiCond30) DPH0 load(1, XDATA, add(CFA_XSP16, literal(-1)))
          CFI (cfiCond30) CFA_SP SP+-2
          CFI (cfiCond30) CFA_XSP16 add(XSP16, 55)
          CFI Block cfiPicker31 Using cfiCommon1
          CFI (cfiPicker31) NoFunction
          CFI (cfiPicker31) Picker
        LCALL     ?Subroutine27 & 0xFFFF
??CrossCallReturnLabel_47:
        LCALL     `??strcpy::?relay`; Banked call to: strcpy
        MOV       ?V2,#0x0
        RET
          CFI EndBlock cfiCond29
          CFI EndBlock cfiCond30
          CFI EndBlock cfiPicker31

        RSEG BANKED_CODE:HUGECODE:NOROOT(0)
?Subroutine12:
          CFI Block cfiCond32 Using cfiCommon0
          CFI Function _ltoa
          CFI Conditional ??CrossCallReturnLabel_15
          CFI R6 load(1, XDATA, add(CFA_XSP16, literal(-16)))
          CFI VB load(1, XDATA, add(CFA_XSP16, literal(-15)))
          CFI V0 load(1, XDATA, add(CFA_XSP16, literal(-14)))
          CFI V1 load(1, XDATA, add(CFA_XSP16, literal(-13)))
          CFI V2 load(1, XDATA, add(CFA_XSP16, literal(-12)))
          CFI V3 load(1, XDATA, add(CFA_XSP16, literal(-11)))
          CFI V4 load(1, XDATA, add(CFA_XSP16, literal(-10)))
          CFI V5 load(1, XDATA, add(CFA_XSP16, literal(-9)))
          CFI V6 load(1, XDATA, add(CFA_XSP16, literal(-8)))
          CFI V7 load(1, XDATA, add(CFA_XSP16, literal(-7)))
          CFI R7 load(1, XDATA, add(CFA_XSP16, literal(-6)))
          CFI ?RET_LOW load(1, XDATA, add(CFA_XSP16, literal(-5)))
          CFI ?RET_HIGH load(1, XDATA, add(CFA_XSP16, literal(-4)))
          CFI ?BRET_EXT load(1, XDATA, add(CFA_XSP16, literal(-3)))
          CFI DPL0 load(1, XDATA, add(CFA_XSP16, literal(-2)))
          CFI DPH0 load(1, XDATA, add(CFA_XSP16, literal(-1)))
          CFI CFA_SP SP+-2
          CFI CFA_XSP16 add(XSP16, 55)
          CFI Block cfiCond33 Using cfiCommon0
          CFI (cfiCond33) Function _ltoa
          CFI (cfiCond33) Conditional ??CrossCallReturnLabel_16
          CFI (cfiCond33) R6 load(1, XDATA, add(CFA_XSP16, literal(-16)))
          CFI (cfiCond33) VB load(1, XDATA, add(CFA_XSP16, literal(-15)))
          CFI (cfiCond33) V0 load(1, XDATA, add(CFA_XSP16, literal(-14)))
          CFI (cfiCond33) V1 load(1, XDATA, add(CFA_XSP16, literal(-13)))
          CFI (cfiCond33) V2 load(1, XDATA, add(CFA_XSP16, literal(-12)))
          CFI (cfiCond33) V3 load(1, XDATA, add(CFA_XSP16, literal(-11)))
          CFI (cfiCond33) V4 load(1, XDATA, add(CFA_XSP16, literal(-10)))
          CFI (cfiCond33) V5 load(1, XDATA, add(CFA_XSP16, literal(-9)))
          CFI (cfiCond33) V6 load(1, XDATA, add(CFA_XSP16, literal(-8)))
          CFI (cfiCond33) V7 load(1, XDATA, add(CFA_XSP16, literal(-7)))
          CFI (cfiCond33) R7 load(1, XDATA, add(CFA_XSP16, literal(-6)))
          CFI (cfiCond33) ?RET_LOW load(1, XDATA, add(CFA_XSP16, literal(-5)))
          CFI (cfiCond33) ?RET_HIGH load(1, XDATA, add(CFA_XSP16, literal(-4)))
          CFI (cfiCond33) ?BRET_EXT load(1, XDATA, add(CFA_XSP16, literal(-3)))
          CFI (cfiCond33) DPL0 load(1, XDATA, add(CFA_XSP16, literal(-2)))
          CFI (cfiCond33) DPH0 load(1, XDATA, add(CFA_XSP16, literal(-1)))
          CFI (cfiCond33) CFA_SP SP+-2
          CFI (cfiCond33) CFA_XSP16 add(XSP16, 55)
          CFI Block cfiPicker34 Using cfiCommon1
          CFI (cfiPicker34) NoFunction
          CFI (cfiPicker34) Picker
        LCALL     ?Subroutine26 & 0xFFFF
??CrossCallReturnLabel_44:
        MOV       A,?V6
        ORL       A,?V7
        RET
          CFI EndBlock cfiCond32
          CFI EndBlock cfiCond33
          CFI EndBlock cfiPicker34

        RSEG BANKED_CODE:HUGECODE:NOROOT(0)
?Subroutine9:
          CFI Block cfiCond35 Using cfiCommon0
          CFI Function _ltoa
          CFI Conditional ??CrossCallReturnLabel_6
          CFI R6 load(1, XDATA, add(CFA_XSP16, literal(-16)))
          CFI VB load(1, XDATA, add(CFA_XSP16, literal(-15)))
          CFI V0 load(1, XDATA, add(CFA_XSP16, literal(-14)))
          CFI V1 load(1, XDATA, add(CFA_XSP16, literal(-13)))
          CFI V2 load(1, XDATA, add(CFA_XSP16, literal(-12)))
          CFI V3 load(1, XDATA, add(CFA_XSP16, literal(-11)))
          CFI V4 load(1, XDATA, add(CFA_XSP16, literal(-10)))
          CFI V5 load(1, XDATA, add(CFA_XSP16, literal(-9)))
          CFI V6 load(1, XDATA, add(CFA_XSP16, literal(-8)))
          CFI V7 load(1, XDATA, add(CFA_XSP16, literal(-7)))
          CFI R7 load(1, XDATA, add(CFA_XSP16, literal(-6)))
          CFI ?RET_LOW load(1, XDATA, add(CFA_XSP16, literal(-5)))
          CFI ?RET_HIGH load(1, XDATA, add(CFA_XSP16, literal(-4)))
          CFI ?BRET_EXT load(1, XDATA, add(CFA_XSP16, literal(-3)))
          CFI DPL0 load(1, XDATA, add(CFA_XSP16, literal(-2)))
          CFI DPH0 load(1, XDATA, add(CFA_XSP16, literal(-1)))
          CFI CFA_SP SP+-2
          CFI CFA_XSP16 add(XSP16, 55)
          CFI Block cfiCond36 Using cfiCommon0
          CFI (cfiCond36) Function _ltoa
          CFI (cfiCond36) Conditional ??CrossCallReturnLabel_7
          CFI (cfiCond36) R6 load(1, XDATA, add(CFA_XSP16, literal(-16)))
          CFI (cfiCond36) VB load(1, XDATA, add(CFA_XSP16, literal(-15)))
          CFI (cfiCond36) V0 load(1, XDATA, add(CFA_XSP16, literal(-14)))
          CFI (cfiCond36) V1 load(1, XDATA, add(CFA_XSP16, literal(-13)))
          CFI (cfiCond36) V2 load(1, XDATA, add(CFA_XSP16, literal(-12)))
          CFI (cfiCond36) V3 load(1, XDATA, add(CFA_XSP16, literal(-11)))
          CFI (cfiCond36) V4 load(1, XDATA, add(CFA_XSP16, literal(-10)))
          CFI (cfiCond36) V5 load(1, XDATA, add(CFA_XSP16, literal(-9)))
          CFI (cfiCond36) V6 load(1, XDATA, add(CFA_XSP16, literal(-8)))
          CFI (cfiCond36) V7 load(1, XDATA, add(CFA_XSP16, literal(-7)))
          CFI (cfiCond36) R7 load(1, XDATA, add(CFA_XSP16, literal(-6)))
          CFI (cfiCond36) ?RET_LOW load(1, XDATA, add(CFA_XSP16, literal(-5)))
          CFI (cfiCond36) ?RET_HIGH load(1, XDATA, add(CFA_XSP16, literal(-4)))
          CFI (cfiCond36) ?BRET_EXT load(1, XDATA, add(CFA_XSP16, literal(-3)))
          CFI (cfiCond36) DPL0 load(1, XDATA, add(CFA_XSP16, literal(-2)))
          CFI (cfiCond36) DPH0 load(1, XDATA, add(CFA_XSP16, literal(-1)))
          CFI (cfiCond36) CFA_SP SP+-2
          CFI (cfiCond36) CFA_XSP16 add(XSP16, 55)
          CFI Block cfiCond37 Using cfiCommon0
          CFI (cfiCond37) Function _ltoa
          CFI (cfiCond37) Conditional ??CrossCallReturnLabel_8
          CFI (cfiCond37) R6 load(1, XDATA, add(CFA_XSP16, literal(-16)))
          CFI (cfiCond37) VB load(1, XDATA, add(CFA_XSP16, literal(-15)))
          CFI (cfiCond37) V0 load(1, XDATA, add(CFA_XSP16, literal(-14)))
          CFI (cfiCond37) V1 load(1, XDATA, add(CFA_XSP16, literal(-13)))
          CFI (cfiCond37) V2 load(1, XDATA, add(CFA_XSP16, literal(-12)))
          CFI (cfiCond37) V3 load(1, XDATA, add(CFA_XSP16, literal(-11)))
          CFI (cfiCond37) V4 load(1, XDATA, add(CFA_XSP16, literal(-10)))
          CFI (cfiCond37) V5 load(1, XDATA, add(CFA_XSP16, literal(-9)))
          CFI (cfiCond37) V6 load(1, XDATA, add(CFA_XSP16, literal(-8)))
          CFI (cfiCond37) V7 load(1, XDATA, add(CFA_XSP16, literal(-7)))
          CFI (cfiCond37) R7 load(1, XDATA, add(CFA_XSP16, literal(-6)))
          CFI (cfiCond37) ?RET_LOW load(1, XDATA, add(CFA_XSP16, literal(-5)))
          CFI (cfiCond37) ?RET_HIGH load(1, XDATA, add(CFA_XSP16, literal(-4)))
          CFI (cfiCond37) ?BRET_EXT load(1, XDATA, add(CFA_XSP16, literal(-3)))
          CFI (cfiCond37) DPL0 load(1, XDATA, add(CFA_XSP16, literal(-2)))
          CFI (cfiCond37) DPH0 load(1, XDATA, add(CFA_XSP16, literal(-1)))
          CFI (cfiCond37) CFA_SP SP+-2
          CFI (cfiCond37) CFA_XSP16 add(XSP16, 55)
          CFI Block cfiCond38 Using cfiCommon0
          CFI (cfiCond38) Function _ltoa
          CFI (cfiCond38) Conditional ??CrossCallReturnLabel_9
          CFI (cfiCond38) R6 load(1, XDATA, add(CFA_XSP16, literal(-16)))
          CFI (cfiCond38) VB load(1, XDATA, add(CFA_XSP16, literal(-15)))
          CFI (cfiCond38) V0 load(1, XDATA, add(CFA_XSP16, literal(-14)))
          CFI (cfiCond38) V1 load(1, XDATA, add(CFA_XSP16, literal(-13)))
          CFI (cfiCond38) V2 load(1, XDATA, add(CFA_XSP16, literal(-12)))
          CFI (cfiCond38) V3 load(1, XDATA, add(CFA_XSP16, literal(-11)))
          CFI (cfiCond38) V4 load(1, XDATA, add(CFA_XSP16, literal(-10)))
          CFI (cfiCond38) V5 load(1, XDATA, add(CFA_XSP16, literal(-9)))
          CFI (cfiCond38) V6 load(1, XDATA, add(CFA_XSP16, literal(-8)))
          CFI (cfiCond38) V7 load(1, XDATA, add(CFA_XSP16, literal(-7)))
          CFI (cfiCond38) R7 load(1, XDATA, add(CFA_XSP16, literal(-6)))
          CFI (cfiCond38) ?RET_LOW load(1, XDATA, add(CFA_XSP16, literal(-5)))
          CFI (cfiCond38) ?RET_HIGH load(1, XDATA, add(CFA_XSP16, literal(-4)))
          CFI (cfiCond38) ?BRET_EXT load(1, XDATA, add(CFA_XSP16, literal(-3)))
          CFI (cfiCond38) DPL0 load(1, XDATA, add(CFA_XSP16, literal(-2)))
          CFI (cfiCond38) DPH0 load(1, XDATA, add(CFA_XSP16, literal(-1)))
          CFI (cfiCond38) CFA_SP SP+-2
          CFI (cfiCond38) CFA_XSP16 add(XSP16, 55)
          CFI Block cfiPicker39 Using cfiCommon1
          CFI (cfiPicker39) NoFunction
          CFI (cfiPicker39) Picker
        MOVX      A,@DPTR
        MOV       R4,A
        INC       DPTR
        MOVX      A,@DPTR
        MOV       R5,A
        MOV       A,#0x37
        RET
          CFI EndBlock cfiCond35
          CFI EndBlock cfiCond36
          CFI EndBlock cfiCond37
          CFI EndBlock cfiCond38
          CFI EndBlock cfiPicker39

        RSEG BANKED_CODE:HUGECODE:NOROOT(0)
?Subroutine8:
          CFI Block cfiCond40 Using cfiCommon0
          CFI Function _ltoa
          CFI Conditional ??CrossCallReturnLabel_3
          CFI R6 load(1, XDATA, add(CFA_XSP16, literal(-16)))
          CFI VB load(1, XDATA, add(CFA_XSP16, literal(-15)))
          CFI V0 load(1, XDATA, add(CFA_XSP16, literal(-14)))
          CFI V1 load(1, XDATA, add(CFA_XSP16, literal(-13)))
          CFI V2 load(1, XDATA, add(CFA_XSP16, literal(-12)))
          CFI V3 load(1, XDATA, add(CFA_XSP16, literal(-11)))
          CFI V4 load(1, XDATA, add(CFA_XSP16, literal(-10)))
          CFI V5 load(1, XDATA, add(CFA_XSP16, literal(-9)))
          CFI V6 load(1, XDATA, add(CFA_XSP16, literal(-8)))
          CFI V7 load(1, XDATA, add(CFA_XSP16, literal(-7)))
          CFI R7 load(1, XDATA, add(CFA_XSP16, literal(-6)))
          CFI ?RET_LOW load(1, XDATA, add(CFA_XSP16, literal(-5)))
          CFI ?RET_HIGH load(1, XDATA, add(CFA_XSP16, literal(-4)))
          CFI ?BRET_EXT load(1, XDATA, add(CFA_XSP16, literal(-3)))
          CFI DPL0 load(1, XDATA, add(CFA_XSP16, literal(-2)))
          CFI DPH0 load(1, XDATA, add(CFA_XSP16, literal(-1)))
          CFI CFA_SP SP+-2
          CFI CFA_XSP16 add(XSP16, 55)
          CFI Block cfiCond41 Using cfiCommon0
          CFI (cfiCond41) Function _ltoa
          CFI (cfiCond41) Conditional ??CrossCallReturnLabel_4
          CFI (cfiCond41) R6 load(1, XDATA, add(CFA_XSP16, literal(-16)))
          CFI (cfiCond41) VB load(1, XDATA, add(CFA_XSP16, literal(-15)))
          CFI (cfiCond41) V0 load(1, XDATA, add(CFA_XSP16, literal(-14)))
          CFI (cfiCond41) V1 load(1, XDATA, add(CFA_XSP16, literal(-13)))
          CFI (cfiCond41) V2 load(1, XDATA, add(CFA_XSP16, literal(-12)))
          CFI (cfiCond41) V3 load(1, XDATA, add(CFA_XSP16, literal(-11)))
          CFI (cfiCond41) V4 load(1, XDATA, add(CFA_XSP16, literal(-10)))
          CFI (cfiCond41) V5 load(1, XDATA, add(CFA_XSP16, literal(-9)))
          CFI (cfiCond41) V6 load(1, XDATA, add(CFA_XSP16, literal(-8)))
          CFI (cfiCond41) V7 load(1, XDATA, add(CFA_XSP16, literal(-7)))
          CFI (cfiCond41) R7 load(1, XDATA, add(CFA_XSP16, literal(-6)))
          CFI (cfiCond41) ?RET_LOW load(1, XDATA, add(CFA_XSP16, literal(-5)))
          CFI (cfiCond41) ?RET_HIGH load(1, XDATA, add(CFA_XSP16, literal(-4)))
          CFI (cfiCond41) ?BRET_EXT load(1, XDATA, add(CFA_XSP16, literal(-3)))
          CFI (cfiCond41) DPL0 load(1, XDATA, add(CFA_XSP16, literal(-2)))
          CFI (cfiCond41) DPH0 load(1, XDATA, add(CFA_XSP16, literal(-1)))
          CFI (cfiCond41) CFA_SP SP+-2
          CFI (cfiCond41) CFA_XSP16 add(XSP16, 55)
          CFI Block cfiCond42 Using cfiCommon0
          CFI (cfiCond42) Function _ltoa
          CFI (cfiCond42) Conditional ??CrossCallReturnLabel_5
          CFI (cfiCond42) R6 load(1, XDATA, add(CFA_XSP16, literal(-16)))
          CFI (cfiCond42) VB load(1, XDATA, add(CFA_XSP16, literal(-15)))
          CFI (cfiCond42) V0 load(1, XDATA, add(CFA_XSP16, literal(-14)))
          CFI (cfiCond42) V1 load(1, XDATA, add(CFA_XSP16, literal(-13)))
          CFI (cfiCond42) V2 load(1, XDATA, add(CFA_XSP16, literal(-12)))
          CFI (cfiCond42) V3 load(1, XDATA, add(CFA_XSP16, literal(-11)))
          CFI (cfiCond42) V4 load(1, XDATA, add(CFA_XSP16, literal(-10)))
          CFI (cfiCond42) V5 load(1, XDATA, add(CFA_XSP16, literal(-9)))
          CFI (cfiCond42) V6 load(1, XDATA, add(CFA_XSP16, literal(-8)))
          CFI (cfiCond42) V7 load(1, XDATA, add(CFA_XSP16, literal(-7)))
          CFI (cfiCond42) R7 load(1, XDATA, add(CFA_XSP16, literal(-6)))
          CFI (cfiCond42) ?RET_LOW load(1, XDATA, add(CFA_XSP16, literal(-5)))
          CFI (cfiCond42) ?RET_HIGH load(1, XDATA, add(CFA_XSP16, literal(-4)))
          CFI (cfiCond42) ?BRET_EXT load(1, XDATA, add(CFA_XSP16, literal(-3)))
          CFI (cfiCond42) DPL0 load(1, XDATA, add(CFA_XSP16, literal(-2)))
          CFI (cfiCond42) DPH0 load(1, XDATA, add(CFA_XSP16, literal(-1)))
          CFI (cfiCond42) CFA_SP SP+-2
          CFI (cfiCond42) CFA_XSP16 add(XSP16, 55)
          CFI Block cfiPicker43 Using cfiCommon1
          CFI (cfiPicker43) NoFunction
          CFI (cfiPicker43) Picker
        LCALL     ?Subroutine26 & 0xFFFF
??CrossCallReturnLabel_45:
        INC       ?V2
        RET
          CFI EndBlock cfiCond40
          CFI EndBlock cfiCond41
          CFI EndBlock cfiCond42
          CFI EndBlock cfiPicker43

        RSEG BANKED_CODE:HUGECODE:NOROOT(0)
?Subroutine26:
          CFI Block cfiCond44 Using cfiCommon0
          CFI Function _ltoa
          CFI Conditional ??CrossCallReturnLabel_44, ??CrossCallReturnLabel_15
          CFI R6 load(1, XDATA, add(CFA_XSP16, literal(-16)))
          CFI VB load(1, XDATA, add(CFA_XSP16, literal(-15)))
          CFI V0 load(1, XDATA, add(CFA_XSP16, literal(-14)))
          CFI V1 load(1, XDATA, add(CFA_XSP16, literal(-13)))
          CFI V2 load(1, XDATA, add(CFA_XSP16, literal(-12)))
          CFI V3 load(1, XDATA, add(CFA_XSP16, literal(-11)))
          CFI V4 load(1, XDATA, add(CFA_XSP16, literal(-10)))
          CFI V5 load(1, XDATA, add(CFA_XSP16, literal(-9)))
          CFI V6 load(1, XDATA, add(CFA_XSP16, literal(-8)))
          CFI V7 load(1, XDATA, add(CFA_XSP16, literal(-7)))
          CFI R7 load(1, XDATA, add(CFA_XSP16, literal(-6)))
          CFI ?RET_LOW load(1, XDATA, add(CFA_XSP16, literal(-5)))
          CFI ?RET_HIGH load(1, XDATA, add(CFA_XSP16, literal(-4)))
          CFI ?BRET_EXT load(1, XDATA, add(CFA_XSP16, literal(-3)))
          CFI DPL0 load(1, XDATA, add(CFA_XSP16, literal(-2)))
          CFI DPH0 load(1, XDATA, add(CFA_XSP16, literal(-1)))
          CFI CFA_SP SP+-4
          CFI CFA_XSP16 add(XSP16, 55)
          CFI Block cfiCond45 Using cfiCommon0
          CFI (cfiCond45) Function _ltoa
          CFI (cfiCond45) Conditional ??CrossCallReturnLabel_44, ??CrossCallReturnLabel_16
          CFI (cfiCond45) R6 load(1, XDATA, add(CFA_XSP16, literal(-16)))
          CFI (cfiCond45) VB load(1, XDATA, add(CFA_XSP16, literal(-15)))
          CFI (cfiCond45) V0 load(1, XDATA, add(CFA_XSP16, literal(-14)))
          CFI (cfiCond45) V1 load(1, XDATA, add(CFA_XSP16, literal(-13)))
          CFI (cfiCond45) V2 load(1, XDATA, add(CFA_XSP16, literal(-12)))
          CFI (cfiCond45) V3 load(1, XDATA, add(CFA_XSP16, literal(-11)))
          CFI (cfiCond45) V4 load(1, XDATA, add(CFA_XSP16, literal(-10)))
          CFI (cfiCond45) V5 load(1, XDATA, add(CFA_XSP16, literal(-9)))
          CFI (cfiCond45) V6 load(1, XDATA, add(CFA_XSP16, literal(-8)))
          CFI (cfiCond45) V7 load(1, XDATA, add(CFA_XSP16, literal(-7)))
          CFI (cfiCond45) R7 load(1, XDATA, add(CFA_XSP16, literal(-6)))
          CFI (cfiCond45) ?RET_LOW load(1, XDATA, add(CFA_XSP16, literal(-5)))
          CFI (cfiCond45) ?RET_HIGH load(1, XDATA, add(CFA_XSP16, literal(-4)))
          CFI (cfiCond45) ?BRET_EXT load(1, XDATA, add(CFA_XSP16, literal(-3)))
          CFI (cfiCond45) DPL0 load(1, XDATA, add(CFA_XSP16, literal(-2)))
          CFI (cfiCond45) DPH0 load(1, XDATA, add(CFA_XSP16, literal(-1)))
          CFI (cfiCond45) CFA_SP SP+-4
          CFI (cfiCond45) CFA_XSP16 add(XSP16, 55)
          CFI Block cfiCond46 Using cfiCommon0
          CFI (cfiCond46) Function _ltoa
          CFI (cfiCond46) Conditional ??CrossCallReturnLabel_45, ??CrossCallReturnLabel_3
          CFI (cfiCond46) R6 load(1, XDATA, add(CFA_XSP16, literal(-16)))
          CFI (cfiCond46) VB load(1, XDATA, add(CFA_XSP16, literal(-15)))
          CFI (cfiCond46) V0 load(1, XDATA, add(CFA_XSP16, literal(-14)))
          CFI (cfiCond46) V1 load(1, XDATA, add(CFA_XSP16, literal(-13)))
          CFI (cfiCond46) V2 load(1, XDATA, add(CFA_XSP16, literal(-12)))
          CFI (cfiCond46) V3 load(1, XDATA, add(CFA_XSP16, literal(-11)))
          CFI (cfiCond46) V4 load(1, XDATA, add(CFA_XSP16, literal(-10)))
          CFI (cfiCond46) V5 load(1, XDATA, add(CFA_XSP16, literal(-9)))
          CFI (cfiCond46) V6 load(1, XDATA, add(CFA_XSP16, literal(-8)))
          CFI (cfiCond46) V7 load(1, XDATA, add(CFA_XSP16, literal(-7)))
          CFI (cfiCond46) R7 load(1, XDATA, add(CFA_XSP16, literal(-6)))
          CFI (cfiCond46) ?RET_LOW load(1, XDATA, add(CFA_XSP16, literal(-5)))
          CFI (cfiCond46) ?RET_HIGH load(1, XDATA, add(CFA_XSP16, literal(-4)))
          CFI (cfiCond46) ?BRET_EXT load(1, XDATA, add(CFA_XSP16, literal(-3)))
          CFI (cfiCond46) DPL0 load(1, XDATA, add(CFA_XSP16, literal(-2)))
          CFI (cfiCond46) DPH0 load(1, XDATA, add(CFA_XSP16, literal(-1)))
          CFI (cfiCond46) CFA_SP SP+-4
          CFI (cfiCond46) CFA_XSP16 add(XSP16, 55)
          CFI Block cfiCond47 Using cfiCommon0
          CFI (cfiCond47) Function _ltoa
          CFI (cfiCond47) Conditional ??CrossCallReturnLabel_45, ??CrossCallReturnLabel_4
          CFI (cfiCond47) R6 load(1, XDATA, add(CFA_XSP16, literal(-16)))
          CFI (cfiCond47) VB load(1, XDATA, add(CFA_XSP16, literal(-15)))
          CFI (cfiCond47) V0 load(1, XDATA, add(CFA_XSP16, literal(-14)))
          CFI (cfiCond47) V1 load(1, XDATA, add(CFA_XSP16, literal(-13)))
          CFI (cfiCond47) V2 load(1, XDATA, add(CFA_XSP16, literal(-12)))
          CFI (cfiCond47) V3 load(1, XDATA, add(CFA_XSP16, literal(-11)))
          CFI (cfiCond47) V4 load(1, XDATA, add(CFA_XSP16, literal(-10)))
          CFI (cfiCond47) V5 load(1, XDATA, add(CFA_XSP16, literal(-9)))
          CFI (cfiCond47) V6 load(1, XDATA, add(CFA_XSP16, literal(-8)))
          CFI (cfiCond47) V7 load(1, XDATA, add(CFA_XSP16, literal(-7)))
          CFI (cfiCond47) R7 load(1, XDATA, add(CFA_XSP16, literal(-6)))
          CFI (cfiCond47) ?RET_LOW load(1, XDATA, add(CFA_XSP16, literal(-5)))
          CFI (cfiCond47) ?RET_HIGH load(1, XDATA, add(CFA_XSP16, literal(-4)))
          CFI (cfiCond47) ?BRET_EXT load(1, XDATA, add(CFA_XSP16, literal(-3)))
          CFI (cfiCond47) DPL0 load(1, XDATA, add(CFA_XSP16, literal(-2)))
          CFI (cfiCond47) DPH0 load(1, XDATA, add(CFA_XSP16, literal(-1)))
          CFI (cfiCond47) CFA_SP SP+-4
          CFI (cfiCond47) CFA_XSP16 add(XSP16, 55)
          CFI Block cfiCond48 Using cfiCommon0
          CFI (cfiCond48) Function _ltoa
          CFI (cfiCond48) Conditional ??CrossCallReturnLabel_45, ??CrossCallReturnLabel_5
          CFI (cfiCond48) R6 load(1, XDATA, add(CFA_XSP16, literal(-16)))
          CFI (cfiCond48) VB load(1, XDATA, add(CFA_XSP16, literal(-15)))
          CFI (cfiCond48) V0 load(1, XDATA, add(CFA_XSP16, literal(-14)))
          CFI (cfiCond48) V1 load(1, XDATA, add(CFA_XSP16, literal(-13)))
          CFI (cfiCond48) V2 load(1, XDATA, add(CFA_XSP16, literal(-12)))
          CFI (cfiCond48) V3 load(1, XDATA, add(CFA_XSP16, literal(-11)))
          CFI (cfiCond48) V4 load(1, XDATA, add(CFA_XSP16, literal(-10)))
          CFI (cfiCond48) V5 load(1, XDATA, add(CFA_XSP16, literal(-9)))
          CFI (cfiCond48) V6 load(1, XDATA, add(CFA_XSP16, literal(-8)))
          CFI (cfiCond48) V7 load(1, XDATA, add(CFA_XSP16, literal(-7)))
          CFI (cfiCond48) R7 load(1, XDATA, add(CFA_XSP16, literal(-6)))
          CFI (cfiCond48) ?RET_LOW load(1, XDATA, add(CFA_XSP16, literal(-5)))
          CFI (cfiCond48) ?RET_HIGH load(1, XDATA, add(CFA_XSP16, literal(-4)))
          CFI (cfiCond48) ?BRET_EXT load(1, XDATA, add(CFA_XSP16, literal(-3)))
          CFI (cfiCond48) DPL0 load(1, XDATA, add(CFA_XSP16, literal(-2)))
          CFI (cfiCond48) DPH0 load(1, XDATA, add(CFA_XSP16, literal(-1)))
          CFI (cfiCond48) CFA_SP SP+-4
          CFI (cfiCond48) CFA_XSP16 add(XSP16, 55)
          CFI Block cfiPicker49 Using cfiCommon1
          CFI (cfiPicker49) NoFunction
          CFI (cfiPicker49) Picker
        MOVX      A,@DPTR
        MOV       R2,A
        INC       DPTR
        MOVX      A,@DPTR
        MOV       R3,A
        LCALL     `??strcat::?relay`; Banked call to: strcat
        RET
          CFI EndBlock cfiCond44
          CFI EndBlock cfiCond45
          CFI EndBlock cfiCond46
          CFI EndBlock cfiCond47
          CFI EndBlock cfiCond48
          CFI EndBlock cfiPicker49

        RSEG BANKED_CODE:HUGECODE:NOROOT(0)
?Subroutine6:
          CFI Block cfiCond50 Using cfiCommon0
          CFI Function _ltoa
          CFI Conditional ??CrossCallReturnLabel_0
          CFI R6 load(1, XDATA, add(CFA_XSP16, literal(-16)))
          CFI VB load(1, XDATA, add(CFA_XSP16, literal(-15)))
          CFI V0 load(1, XDATA, add(CFA_XSP16, literal(-14)))
          CFI V1 load(1, XDATA, add(CFA_XSP16, literal(-13)))
          CFI V2 load(1, XDATA, add(CFA_XSP16, literal(-12)))
          CFI V3 load(1, XDATA, add(CFA_XSP16, literal(-11)))
          CFI V4 load(1, XDATA, add(CFA_XSP16, literal(-10)))
          CFI V5 load(1, XDATA, add(CFA_XSP16, literal(-9)))
          CFI V6 load(1, XDATA, add(CFA_XSP16, literal(-8)))
          CFI V7 load(1, XDATA, add(CFA_XSP16, literal(-7)))
          CFI R7 load(1, XDATA, add(CFA_XSP16, literal(-6)))
          CFI ?RET_LOW load(1, XDATA, add(CFA_XSP16, literal(-5)))
          CFI ?RET_HIGH load(1, XDATA, add(CFA_XSP16, literal(-4)))
          CFI ?BRET_EXT load(1, XDATA, add(CFA_XSP16, literal(-3)))
          CFI DPL0 load(1, XDATA, add(CFA_XSP16, literal(-2)))
          CFI DPH0 load(1, XDATA, add(CFA_XSP16, literal(-1)))
          CFI CFA_SP SP+-2
          CFI CFA_XSP16 add(XSP16, 55)
          CFI Block cfiCond51 Using cfiCommon0
          CFI (cfiCond51) Function _ltoa
          CFI (cfiCond51) Conditional ??CrossCallReturnLabel_1
          CFI (cfiCond51) R6 load(1, XDATA, add(CFA_XSP16, literal(-16)))
          CFI (cfiCond51) VB load(1, XDATA, add(CFA_XSP16, literal(-15)))
          CFI (cfiCond51) V0 load(1, XDATA, add(CFA_XSP16, literal(-14)))
          CFI (cfiCond51) V1 load(1, XDATA, add(CFA_XSP16, literal(-13)))
          CFI (cfiCond51) V2 load(1, XDATA, add(CFA_XSP16, literal(-12)))
          CFI (cfiCond51) V3 load(1, XDATA, add(CFA_XSP16, literal(-11)))
          CFI (cfiCond51) V4 load(1, XDATA, add(CFA_XSP16, literal(-10)))
          CFI (cfiCond51) V5 load(1, XDATA, add(CFA_XSP16, literal(-9)))
          CFI (cfiCond51) V6 load(1, XDATA, add(CFA_XSP16, literal(-8)))
          CFI (cfiCond51) V7 load(1, XDATA, add(CFA_XSP16, literal(-7)))
          CFI (cfiCond51) R7 load(1, XDATA, add(CFA_XSP16, literal(-6)))
          CFI (cfiCond51) ?RET_LOW load(1, XDATA, add(CFA_XSP16, literal(-5)))
          CFI (cfiCond51) ?RET_HIGH load(1, XDATA, add(CFA_XSP16, literal(-4)))
          CFI (cfiCond51) ?BRET_EXT load(1, XDATA, add(CFA_XSP16, literal(-3)))
          CFI (cfiCond51) DPL0 load(1, XDATA, add(CFA_XSP16, literal(-2)))
          CFI (cfiCond51) DPH0 load(1, XDATA, add(CFA_XSP16, literal(-1)))
          CFI (cfiCond51) CFA_SP SP+-2
          CFI (cfiCond51) CFA_XSP16 add(XSP16, 55)
          CFI Block cfiCond52 Using cfiCommon0
          CFI (cfiCond52) Function _ltoa
          CFI (cfiCond52) Conditional ??CrossCallReturnLabel_2
          CFI (cfiCond52) R6 load(1, XDATA, add(CFA_XSP16, literal(-16)))
          CFI (cfiCond52) VB load(1, XDATA, add(CFA_XSP16, literal(-15)))
          CFI (cfiCond52) V0 load(1, XDATA, add(CFA_XSP16, literal(-14)))
          CFI (cfiCond52) V1 load(1, XDATA, add(CFA_XSP16, literal(-13)))
          CFI (cfiCond52) V2 load(1, XDATA, add(CFA_XSP16, literal(-12)))
          CFI (cfiCond52) V3 load(1, XDATA, add(CFA_XSP16, literal(-11)))
          CFI (cfiCond52) V4 load(1, XDATA, add(CFA_XSP16, literal(-10)))
          CFI (cfiCond52) V5 load(1, XDATA, add(CFA_XSP16, literal(-9)))
          CFI (cfiCond52) V6 load(1, XDATA, add(CFA_XSP16, literal(-8)))
          CFI (cfiCond52) V7 load(1, XDATA, add(CFA_XSP16, literal(-7)))
          CFI (cfiCond52) R7 load(1, XDATA, add(CFA_XSP16, literal(-6)))
          CFI (cfiCond52) ?RET_LOW load(1, XDATA, add(CFA_XSP16, literal(-5)))
          CFI (cfiCond52) ?RET_HIGH load(1, XDATA, add(CFA_XSP16, literal(-4)))
          CFI (cfiCond52) ?BRET_EXT load(1, XDATA, add(CFA_XSP16, literal(-3)))
          CFI (cfiCond52) DPL0 load(1, XDATA, add(CFA_XSP16, literal(-2)))
          CFI (cfiCond52) DPH0 load(1, XDATA, add(CFA_XSP16, literal(-1)))
          CFI (cfiCond52) CFA_SP SP+-2
          CFI (cfiCond52) CFA_XSP16 add(XSP16, 55)
          CFI Block cfiPicker53 Using cfiCommon1
          CFI (cfiPicker53) NoFunction
          CFI (cfiPicker53) Picker
        LCALL     `??strlen::?relay`; Banked call to: strlen
        MOV       ?V4,R2
        MOV       ?V5,R3
        MOV       A,#0x4
        CLR       C
        SUBB      A,?V4
        MOV       R0,A
        CLR       A
        SUBB      A,?V5
        MOV       R1,A
        CLR       C
        MOV       A,?V0
        SUBB      A,R0
        CLR       A
        SUBB      A,R1
        RET
          CFI EndBlock cfiCond50
          CFI EndBlock cfiCond51
          CFI EndBlock cfiCond52
          CFI EndBlock cfiPicker53
//  374 #endif // !defined(ZBIT) && !defined(ZBIT2)
//  375 
//  376 /*********************************************************************
//  377  * @fn        osal_rand
//  378  *
//  379  * @brief    Random number generator
//  380  *
//  381  * @param   none
//  382  *
//  383  * @return  uint16 - new random number
//  384  */

        RSEG BANKED_CODE:HUGECODE:NOROOT(0)
//  385 uint16 osal_rand( void )
osal_rand:
          CFI Block cfiBlock54 Using cfiCommon0
          CFI Function osal_rand
        CODE
//  386 {
        FUNCALL osal_rand, Onboard_rand
        LOCFRAME ISTACK, 2, STACK
        LOCFRAME PSTACK, 0, STACK
        LOCFRAME XSTACK, 0, STACK
        LOCFRAME IOVERLAY, 0, STATIC
        LOCFRAME DOVERLAY, 0, STATIC
        ARGFRAME ISTACK, 2, STACK
        ARGFRAME PSTACK, 0, STACK
        ARGFRAME XSTACK, 0, STACK
        ARGFRAME IOVERLAY, 0, STATIC
        ARGFRAME DOVERLAY, 0, STATIC
        PUSH      DPL
          CFI DPL0 Frame(CFA_SP, 4)
          CFI CFA_SP SP+-4
        PUSH      DPH
          CFI DPH0 Frame(CFA_SP, 5)
          CFI CFA_SP SP+-5
        ; Saved register size: 2
        ; Auto size: 0
//  387   return ( Onboard_rand() );
        ; Setup parameters for call to function Onboard_rand
        LCALL     `??Onboard_rand::?relay`; Banked call to: Onboard_rand
        SJMP      ?Subroutine0
//  388 }
          CFI EndBlock cfiBlock54
//  389 
//  390 /*********************************************************************
//  391  * API FUNCTIONS
//  392  *********************************************************************/
//  393 
//  394 /*********************************************************************
//  395  * @fn      osal_msg_allocate
//  396  *
//  397  * @brief
//  398  *
//  399  *    This function is called by a task to allocate a message buffer
//  400  *    into which the task will encode the particular message it wishes
//  401  *    to send.  This common buffer scheme is used to strictly limit the
//  402  *    creation of message buffers within the system due to RAM size
//  403  *    limitations on the microprocessor.   Note that all message buffers
//  404  *    are a fixed size (at least initially).  The parameter len is kept
//  405  *    in case a message pool with varying fixed message sizes is later
//  406  *    created (for example, a pool of message buffers of size LARGE,
//  407  *    MEDIUM and SMALL could be maintained and allocated based on request
//  408  *    from the tasks).
//  409  *
//  410  *
//  411  * @param   uint8 len  - wanted buffer length
//  412  *
//  413  *
//  414  * @return  pointer to allocated buffer or NULL if allocation failed.
//  415  */

        RSEG BANKED_CODE:HUGECODE:NOROOT(0)
//  416 uint8 * osal_msg_allocate( uint16 len )
osal_msg_allocate:
          CFI Block cfiBlock55 Using cfiCommon0
          CFI Function osal_msg_allocate
        CODE
//  417 {
        FUNCALL osal_msg_allocate, osal_mem_alloc
        LOCFRAME ISTACK, 0, STACK
        LOCFRAME PSTACK, 0, STACK
        LOCFRAME XSTACK, 10, STACK
        LOCFRAME IOVERLAY, 0, STATIC
        LOCFRAME DOVERLAY, 0, STATIC
        ARGFRAME ISTACK, 0, STACK
        ARGFRAME PSTACK, 0, STACK
        ARGFRAME XSTACK, 10, STACK
        ARGFRAME IOVERLAY, 0, STATIC
        ARGFRAME DOVERLAY, 0, STATIC
        REQUIRE ?V0
        REQUIRE ?V1
        MOV       A,#-0xa
        LCALL     ?BANKED_ENTER_XDATA
          CFI DPH0 load(1, XDATA, add(CFA_XSP16, literal(-1)))
          CFI DPL0 load(1, XDATA, add(CFA_XSP16, literal(-2)))
          CFI ?BRET_EXT load(1, XDATA, add(CFA_XSP16, literal(-3)))
          CFI ?RET_HIGH load(1, XDATA, add(CFA_XSP16, literal(-4)))
          CFI ?RET_LOW load(1, XDATA, add(CFA_XSP16, literal(-5)))
          CFI R7 load(1, XDATA, add(CFA_XSP16, literal(-6)))
          CFI V1 load(1, XDATA, add(CFA_XSP16, literal(-7)))
          CFI V0 load(1, XDATA, add(CFA_XSP16, literal(-8)))
          CFI VB load(1, XDATA, add(CFA_XSP16, literal(-9)))
          CFI R6 load(1, XDATA, add(CFA_XSP16, literal(-10)))
          CFI CFA_SP SP+0
          CFI CFA_XSP16 add(XSP16, 10)
        ; Saved register size: 10
        ; Auto size: 0
        MOV       A,R2
        MOV       R6,A
        MOV       A,R3
        MOV       R7,A
//  418   osal_msg_hdr_t *hdr;
//  419 
//  420   if ( len == 0 )
        MOV       A,R2
        ORL       A,R7
        JZ        ??osal_msg_allocate_0
//  421     return ( NULL );
//  422 
//  423   hdr = (osal_msg_hdr_t *) osal_mem_alloc( (short)(len + sizeof( osal_msg_hdr_t )) );
        ; Setup parameters for call to function osal_mem_alloc
        MOV       A,R2
        ADD       A,#0x5
        MOV       R2,A
        CLR       A
        ADDC      A,R7
        MOV       R3,A
        LCALL     `??osal_mem_alloc::?relay`; Banked call to: osal_mem_alloc
        MOV       ?V1,R3
        MOV       R1,?V1
//  424   if ( hdr )
        MOV       A,R2
        ORL       A,R1
        JZ        ??osal_msg_allocate_0
//  425   {
//  426     hdr->next = NULL;
        MOV       DPL,R2
        MOV       DPH,R3
        CLR       A
        MOVX      @DPTR,A
        INC       DPTR
        MOVX      @DPTR,A
//  427     hdr->len = len;
        MOV       DPL,R2
        MOV       DPH,R3
        INC       DPTR
        INC       DPTR
        LCALL     ?Subroutine23 & 0xFFFF
//  428     hdr->dest_id = TASK_NO_TASK;
??CrossCallReturnLabel_38:
        INC       DPTR
        INC       DPTR
        INC       DPTR
        INC       DPTR
        MOV       A,#-0x1
        MOVX      @DPTR,A
//  429     return ( (uint8 *) (hdr + 1) );
        MOV       A,R2
        ADD       A,#0x5
        MOV       R2,A
        CLR       A
        ADDC      A,R1
        MOV       R3,A
        SJMP      ??osal_msg_allocate_1
//  430   }
//  431   else
//  432     return ( NULL );
??osal_msg_allocate_0:
        MOV       R2,#0x0
        MOV       R3,#0x0
??osal_msg_allocate_1:
        LJMP      ?Subroutine3 & 0xFFFF
//  433 }
          CFI EndBlock cfiBlock55
//  434 
//  435 /*********************************************************************
//  436  * @fn      osal_msg_deallocate
//  437  *
//  438  * @brief
//  439  *
//  440  *    This function is used to deallocate a message buffer. This function
//  441  *    is called by a task (or processing element) after it has finished
//  442  *    processing a received message.
//  443  *
//  444  *
//  445  * @param   uint8 *msg_ptr - pointer to new message buffer
//  446  *
//  447  * @return  SUCCESS, INVALID_MSG_POINTER
//  448  */

        RSEG BANKED_CODE:HUGECODE:NOROOT(0)
//  449 uint8 osal_msg_deallocate( uint8 *msg_ptr )
osal_msg_deallocate:
          CFI Block cfiBlock56 Using cfiCommon0
          CFI Function osal_msg_deallocate
        CODE
//  450 {
        FUNCALL osal_msg_deallocate, osal_mem_free
        LOCFRAME ISTACK, 2, STACK
        LOCFRAME PSTACK, 0, STACK
        LOCFRAME XSTACK, 0, STACK
        LOCFRAME IOVERLAY, 0, STATIC
        LOCFRAME DOVERLAY, 0, STATIC
        ARGFRAME ISTACK, 2, STACK
        ARGFRAME PSTACK, 0, STACK
        ARGFRAME XSTACK, 0, STACK
        ARGFRAME IOVERLAY, 0, STATIC
        ARGFRAME DOVERLAY, 0, STATIC
        PUSH      DPL
          CFI DPL0 Frame(CFA_SP, 4)
          CFI CFA_SP SP+-4
        PUSH      DPH
          CFI DPH0 Frame(CFA_SP, 5)
          CFI CFA_SP SP+-5
        ; Saved register size: 2
        ; Auto size: 0
//  451   uint8 *x;
//  452 
//  453   if ( msg_ptr == NULL )
        MOV       A,R2
        ORL       A,R3
        JNZ       ??osal_msg_deallocate_0
//  454     return ( INVALID_MSG_POINTER );
        MOV       R1,#0x5
        SJMP      ??osal_msg_deallocate_1
//  455 
//  456   // don't deallocate queued buffer
//  457   if ( OSAL_MSG_ID( msg_ptr ) != TASK_NO_TASK )
??osal_msg_deallocate_0:
        LCALL     ?Subroutine19 & 0xFFFF
??CrossCallReturnLabel_32:
        JZ        ??osal_msg_deallocate_2
//  458     return ( MSG_BUFFER_NOT_AVAIL );
        MOV       R1,#0x4
        SJMP      ??osal_msg_deallocate_1
//  459 
//  460   x = (uint8 *)((uint8 *)msg_ptr - sizeof( osal_msg_hdr_t ));
//  461 
//  462   osal_mem_free( (void *)x );
??osal_msg_deallocate_2:
        ; Setup parameters for call to function osal_mem_free
        MOV       A,R2
        ADD       A,#-0x5
        MOV       R2,A
        MOV       A,R3
        ADDC      A,#-0x1
        MOV       R3,A
        LCALL     `??osal_mem_free::?relay`; Banked call to: osal_mem_free
//  463 
//  464   return ( SUCCESS );
        MOV       R1,#0x0
??osal_msg_deallocate_1:
          CFI EndBlock cfiBlock56
        REQUIRE ?Subroutine0
        ; // Fall through to label ?Subroutine0
//  465 }

        RSEG BANKED_CODE:HUGECODE:NOROOT(0)
?Subroutine0:
          CFI Block cfiBlock57 Using cfiCommon0
          CFI NoFunction
          CFI CFA_SP SP+-5
          CFI DPL0 Frame(CFA_SP, 4)
          CFI DPH0 Frame(CFA_SP, 5)
        POP       DPH
          CFI CFA_SP SP+-4
          CFI DPH0 SameValue
        POP       DPL
          CFI CFA_SP SP+-3
          CFI DPL0 SameValue
        LJMP      ?BRET
          CFI EndBlock cfiBlock57
//  466 
//  467 /*********************************************************************
//  468  * @fn      osal_msg_send
//  469  *
//  470  * @brief
//  471  *
//  472  *    This function is called by a task to send a command message to
//  473  *    another task or processing element.  The sending_task field must
//  474  *    refer to a valid task, since the task ID will be used
//  475  *    for the response message.  This function will also set a message
//  476  *    ready event in the destination tasks event list.
//  477  *
//  478  *
//  479  * @param   uint8 destination task - Send msg to?  Task ID
//  480  * @param   uint8 *msg_ptr - pointer to new message buffer
//  481  * @param   uint8 len - length of data in message
//  482  *
//  483  * @return  SUCCESS, INVALID_TASK, INVALID_MSG_POINTER
//  484  */

        RSEG BANKED_CODE:HUGECODE:NOROOT(0)
//  485 uint8 osal_msg_send( uint8 destination_task, uint8 *msg_ptr )
osal_msg_send:
          CFI Block cfiBlock58 Using cfiCommon0
          CFI Function osal_msg_send
        CODE
//  486 {
        FUNCALL osal_msg_send, osal_msg_deallocate
        LOCFRAME ISTACK, 0, STACK
        LOCFRAME PSTACK, 0, STACK
        LOCFRAME XSTACK, 9, STACK
        LOCFRAME IOVERLAY, 0, STATIC
        LOCFRAME DOVERLAY, 0, STATIC
        ARGFRAME ISTACK, 0, STACK
        ARGFRAME PSTACK, 0, STACK
        ARGFRAME XSTACK, 9, STACK
        ARGFRAME IOVERLAY, 0, STATIC
        ARGFRAME DOVERLAY, 0, STATIC
        FUNCALL osal_msg_send, osal_msg_deallocate
        LOCFRAME ISTACK, 0, STACK
        LOCFRAME PSTACK, 0, STACK
        LOCFRAME XSTACK, 9, STACK
        LOCFRAME IOVERLAY, 0, STATIC
        LOCFRAME DOVERLAY, 0, STATIC
        ARGFRAME ISTACK, 0, STACK
        ARGFRAME PSTACK, 0, STACK
        ARGFRAME XSTACK, 9, STACK
        ARGFRAME IOVERLAY, 0, STATIC
        ARGFRAME DOVERLAY, 0, STATIC
        FUNCALL osal_msg_send, osal_msg_enqueue
        LOCFRAME ISTACK, 0, STACK
        LOCFRAME PSTACK, 0, STACK
        LOCFRAME XSTACK, 9, STACK
        LOCFRAME IOVERLAY, 0, STATIC
        LOCFRAME DOVERLAY, 0, STATIC
        ARGFRAME ISTACK, 0, STACK
        ARGFRAME PSTACK, 0, STACK
        ARGFRAME XSTACK, 9, STACK
        ARGFRAME IOVERLAY, 0, STATIC
        ARGFRAME DOVERLAY, 0, STATIC
        FUNCALL osal_msg_send, osal_set_event
        LOCFRAME ISTACK, 0, STACK
        LOCFRAME PSTACK, 0, STACK
        LOCFRAME XSTACK, 9, STACK
        LOCFRAME IOVERLAY, 0, STATIC
        LOCFRAME DOVERLAY, 0, STATIC
        ARGFRAME ISTACK, 0, STACK
        ARGFRAME PSTACK, 0, STACK
        ARGFRAME XSTACK, 9, STACK
        ARGFRAME IOVERLAY, 0, STATIC
        ARGFRAME DOVERLAY, 0, STATIC
        MOV       A,#-0x9
        LCALL     ?BANKED_ENTER_XDATA
          CFI DPH0 load(1, XDATA, add(CFA_XSP16, literal(-1)))
          CFI DPL0 load(1, XDATA, add(CFA_XSP16, literal(-2)))
          CFI ?BRET_EXT load(1, XDATA, add(CFA_XSP16, literal(-3)))
          CFI ?RET_HIGH load(1, XDATA, add(CFA_XSP16, literal(-4)))
          CFI ?RET_LOW load(1, XDATA, add(CFA_XSP16, literal(-5)))
          CFI R7 load(1, XDATA, add(CFA_XSP16, literal(-6)))
          CFI V0 load(1, XDATA, add(CFA_XSP16, literal(-7)))
          CFI VB load(1, XDATA, add(CFA_XSP16, literal(-8)))
          CFI R6 load(1, XDATA, add(CFA_XSP16, literal(-9)))
          CFI CFA_SP SP+0
          CFI CFA_XSP16 add(XSP16, 9)
        ; Saved register size: 9
        ; Auto size: 0
        MOV       A,R1
        MOV       R6,A
//  487   if ( msg_ptr == NULL )
        MOV       A,R2
        ORL       A,R3
        JZ        ??osal_msg_send_0
//  488     return ( INVALID_MSG_POINTER );
//  489 
//  490   if ( destination_task >= tasksCnt )
        MOV       DPTR,#tasksCnt
        MOVX      A,@DPTR
        MOV       R0,A
        MOV       A,R1
        CLR       C
        SUBB      A,R0
        JC        ??osal_msg_send_1
//  491   {
//  492     osal_msg_deallocate( msg_ptr );
        ; Setup parameters for call to function osal_msg_deallocate
        LCALL     `??osal_msg_deallocate::?relay`; Banked call to: osal_msg_deallocate
//  493     return ( INVALID_TASK );
        MOV       R1,#0x3
        SJMP      ??osal_msg_send_2
//  494   }
//  495 
//  496   // Check the message header
//  497   if ( OSAL_MSG_NEXT( msg_ptr ) != NULL ||
//  498        OSAL_MSG_ID( msg_ptr ) != TASK_NO_TASK )
??osal_msg_send_1:
        LCALL     ?Subroutine20 & 0xFFFF
??CrossCallReturnLabel_69:
        LCALL     ??Subroutine29_0 & 0xFFFF
??CrossCallReturnLabel_51:
        JNZ       ??osal_msg_send_3
        LCALL     ?Subroutine19 & 0xFFFF
??CrossCallReturnLabel_33:
        JZ        ??osal_msg_send_4
//  499   {
//  500     osal_msg_deallocate( msg_ptr );
??osal_msg_send_3:
        ; Setup parameters for call to function osal_msg_deallocate
        LCALL     `??osal_msg_deallocate::?relay`; Banked call to: osal_msg_deallocate
//  501     return ( INVALID_MSG_POINTER );
??osal_msg_send_0:
        MOV       R1,#0x5
        SJMP      ??osal_msg_send_2
//  502   }
//  503 
//  504   OSAL_MSG_ID( msg_ptr ) = destination_task;
??osal_msg_send_4:
        MOV       A,R6
        MOVX      @DPTR,A
//  505 
//  506   // queue message
//  507   osal_msg_enqueue( &osal_qHead, msg_ptr );
        ; Setup parameters for call to function osal_msg_enqueue
        MOV       A,R2
        MOV       R4,A
        MOV       A,R3
        MOV       R5,A
        MOV       R2,#osal_qHead & 0xff
        MOV       R3,#(osal_qHead >> 8) & 0xff
        LCALL     `??osal_msg_enqueue::?relay`; Banked call to: osal_msg_enqueue
//  508 
//  509   // Signal the task that a message is waiting
//  510   osal_set_event( destination_task, SYS_EVENT_MSG );
        ; Setup parameters for call to function osal_set_event
        MOV       R2,#0x0
        MOV       R3,#-0x80
        MOV       A,R6
        MOV       R1,A
        LCALL     `??osal_set_event::?relay`; Banked call to: osal_set_event
//  511 
//  512   return ( SUCCESS );
        MOV       R1,#0x0
??osal_msg_send_2:
        LJMP      ??Subroutine28_0 & 0xFFFF
//  513 }
          CFI EndBlock cfiBlock58

        RSEG BANKED_CODE:HUGECODE:NOROOT(0)
?Subroutine19:
          CFI Block cfiCond59 Using cfiCommon0
          CFI Function osal_msg_deallocate
          CFI Conditional ??CrossCallReturnLabel_32
          CFI DPL0 Frame(CFA_SP, 4)
          CFI DPH0 Frame(CFA_SP, 5)
          CFI CFA_SP SP+-7
          CFI Block cfiCond60 Using cfiCommon0
          CFI (cfiCond60) Function osal_msg_send
          CFI (cfiCond60) Conditional ??CrossCallReturnLabel_33
          CFI (cfiCond60) R6 load(1, XDATA, add(CFA_XSP16, literal(-9)))
          CFI (cfiCond60) VB load(1, XDATA, add(CFA_XSP16, literal(-8)))
          CFI (cfiCond60) V0 load(1, XDATA, add(CFA_XSP16, literal(-7)))
          CFI (cfiCond60) R7 load(1, XDATA, add(CFA_XSP16, literal(-6)))
          CFI (cfiCond60) ?RET_LOW load(1, XDATA, add(CFA_XSP16, literal(-5)))
          CFI (cfiCond60) ?RET_HIGH load(1, XDATA, add(CFA_XSP16, literal(-4)))
          CFI (cfiCond60) ?BRET_EXT load(1, XDATA, add(CFA_XSP16, literal(-3)))
          CFI (cfiCond60) DPL0 load(1, XDATA, add(CFA_XSP16, literal(-2)))
          CFI (cfiCond60) DPH0 load(1, XDATA, add(CFA_XSP16, literal(-1)))
          CFI (cfiCond60) CFA_SP SP+-2
          CFI (cfiCond60) CFA_XSP16 add(XSP16, 9)
          CFI Block cfiPicker61 Using cfiCommon1
          CFI (cfiPicker61) NoFunction
          CFI (cfiPicker61) Picker
        MOV       A,R2
        ADD       A,#-0x1
        MOV       DPL,A
        MOV       A,R3
        ADDC      A,#-0x1
        MOV       DPH,A
        MOVX      A,@DPTR
        CPL       A
        RET
          CFI EndBlock cfiCond59
          CFI EndBlock cfiCond60
          CFI EndBlock cfiPicker61
//  514 
//  515 /*********************************************************************
//  516  * @fn      osal_msg_receive
//  517  *
//  518  * @brief
//  519  *
//  520  *    This function is called by a task to retrieve a received command
//  521  *    message. The calling task must deallocate the message buffer after
//  522  *    processing the message using the osal_msg_deallocate() call.
//  523  *
//  524  * @param   uint8 task_id - receiving tasks ID
//  525  *
//  526  * @return  *uint8 - message information or NULL if no message
//  527  */

        RSEG BANKED_CODE:HUGECODE:NOROOT(0)
//  528 uint8 *osal_msg_receive( uint8 task_id )
osal_msg_receive:
          CFI Block cfiBlock62 Using cfiCommon0
          CFI Function osal_msg_receive
        CODE
//  529 {
        FUNCALL osal_msg_receive, osal_set_event
        LOCFRAME ISTACK, 0, STACK
        LOCFRAME PSTACK, 0, STACK
        LOCFRAME XSTACK, 12, STACK
        LOCFRAME IOVERLAY, 0, STATIC
        LOCFRAME DOVERLAY, 0, STATIC
        ARGFRAME ISTACK, 0, STACK
        ARGFRAME PSTACK, 0, STACK
        ARGFRAME XSTACK, 12, STACK
        ARGFRAME IOVERLAY, 0, STATIC
        ARGFRAME DOVERLAY, 0, STATIC
        FUNCALL osal_msg_receive, osal_clear_event
        LOCFRAME ISTACK, 0, STACK
        LOCFRAME PSTACK, 0, STACK
        LOCFRAME XSTACK, 12, STACK
        LOCFRAME IOVERLAY, 0, STATIC
        LOCFRAME DOVERLAY, 0, STATIC
        ARGFRAME ISTACK, 0, STACK
        ARGFRAME PSTACK, 0, STACK
        ARGFRAME XSTACK, 12, STACK
        ARGFRAME IOVERLAY, 0, STATIC
        ARGFRAME DOVERLAY, 0, STATIC
        FUNCALL osal_msg_receive, osal_msg_extract
        LOCFRAME ISTACK, 0, STACK
        LOCFRAME PSTACK, 0, STACK
        LOCFRAME XSTACK, 14, STACK
        LOCFRAME IOVERLAY, 0, STATIC
        LOCFRAME DOVERLAY, 0, STATIC
        ARGFRAME ISTACK, 0, STACK
        ARGFRAME PSTACK, 0, STACK
        ARGFRAME XSTACK, 14, STACK
        ARGFRAME IOVERLAY, 0, STATIC
        ARGFRAME DOVERLAY, 0, STATIC
        REQUIRE ?V0
        REQUIRE ?V1
        REQUIRE ?V2
        REQUIRE ?V3
        MOV       A,#-0xc
        LCALL     ?BANKED_ENTER_XDATA
          CFI DPH0 load(1, XDATA, add(CFA_XSP16, literal(-1)))
          CFI DPL0 load(1, XDATA, add(CFA_XSP16, literal(-2)))
          CFI ?BRET_EXT load(1, XDATA, add(CFA_XSP16, literal(-3)))
          CFI ?RET_HIGH load(1, XDATA, add(CFA_XSP16, literal(-4)))
          CFI ?RET_LOW load(1, XDATA, add(CFA_XSP16, literal(-5)))
          CFI R7 load(1, XDATA, add(CFA_XSP16, literal(-6)))
          CFI V3 load(1, XDATA, add(CFA_XSP16, literal(-7)))
          CFI V2 load(1, XDATA, add(CFA_XSP16, literal(-8)))
          CFI V1 load(1, XDATA, add(CFA_XSP16, literal(-9)))
          CFI V0 load(1, XDATA, add(CFA_XSP16, literal(-10)))
          CFI VB load(1, XDATA, add(CFA_XSP16, literal(-11)))
          CFI R6 load(1, XDATA, add(CFA_XSP16, literal(-12)))
          CFI CFA_SP SP+0
          CFI CFA_XSP16 add(XSP16, 12)
        ; Saved register size: 12
        ; Auto size: 0
        MOV       ?V0,R1
//  530   osal_msg_hdr_t *listHdr;
//  531   osal_msg_hdr_t *prevHdr = NULL;
        MOV       ?V2,#0x0
        MOV       ?V3,#0x0
//  532   osal_msg_hdr_t *foundHdr = NULL;
        MOV       R6,#0x0
        MOV       R7,#0x0
//  533   halIntState_t   intState;
//  534 
//  535   // Hold off interrupts
//  536   HAL_ENTER_CRITICAL_SECTION(intState);
        MOV       C,0xa8.7
        CLR       A
        RLC       A
        MOV       ?V1,A
        CLR       0xa8.7
//  537 
//  538   // Point to the top of the queue
//  539   listHdr = osal_qHead;
        MOV       DPTR,#osal_qHead
        SJMP      ??CrossCallReturnLabel_61
//  540 
//  541   // Look through the queue for a message that belongs to the asking task
//  542   while ( listHdr != NULL )
//  543   {
//  544     if ( (listHdr - 1)->dest_id == task_id )
//  545     {
//  546       if ( foundHdr == NULL )
//  547       {
//  548         // Save the first one
//  549         foundHdr = listHdr;
//  550       }
//  551       else
//  552       {
//  553         // Second msg found, stop looking
//  554         break;
//  555       }
//  556     }
//  557     if ( foundHdr == NULL )
??osal_msg_receive_0:
        MOV       A,R6
        ORL       A,R7
        JNZ       ??osal_msg_receive_1
//  558     {
//  559       prevHdr = listHdr;
        MOV       ?V2,R0
        MOV       ?V3,R1
//  560     }
//  561     listHdr = OSAL_MSG_NEXT( listHdr );
??osal_msg_receive_1:
        MOV       A,R0
        ADD       A,#-0x5
        MOV       DPL,A
        MOV       A,R1
        LCALL     ??Subroutine31_0 & 0xFFFF
??CrossCallReturnLabel_61:
        LCALL     ??Subroutine29_0 & 0xFFFF
??CrossCallReturnLabel_50:
        JZ        ??osal_msg_receive_2
        MOV       A,R0
        ADD       A,#-0x1
        MOV       DPL,A
        MOV       A,R1
        LCALL     ??Subroutine31_0 & 0xFFFF
??CrossCallReturnLabel_62:
        MOVX      A,@DPTR
        XRL       A,?V0
        JNZ       ??osal_msg_receive_0
        MOV       A,R6
        ORL       A,R7
        JNZ       ??osal_msg_receive_3
        MOV       A,R0
        MOV       R6,A
        MOV       A,R1
        MOV       R7,A
        SJMP      ??osal_msg_receive_1
//  562   }
//  563   
//  564   // Is there more than one?
//  565   if ( listHdr != NULL )
//  566   {
//  567     // Yes, Signal the task that a message is waiting
//  568     osal_set_event( task_id, SYS_EVENT_MSG );
??osal_msg_receive_3:
        ; Setup parameters for call to function osal_set_event
        MOV       R2,#0x0
        MOV       R3,#-0x80
        MOV       R1,?V0
        LCALL     `??osal_set_event::?relay`; Banked call to: osal_set_event
        SJMP      ??osal_msg_receive_4
//  569   }
//  570   else
//  571   {
//  572     // No more
//  573     osal_clear_event( task_id, SYS_EVENT_MSG );
??osal_msg_receive_2:
        ; Setup parameters for call to function osal_clear_event
        MOV       R2,#0x0
        MOV       R3,#-0x80
        MOV       R1,?V0
        LCALL     `??osal_clear_event::?relay`; Banked call to: osal_clear_event
//  574   }
//  575 
//  576   // Did we find a message?
//  577   if ( foundHdr != NULL )
        MOV       A,R6
        ORL       A,R7
        JZ        ??osal_msg_receive_5
//  578   {
//  579     // Take out of the link list
//  580     osal_msg_extract( &osal_qHead, foundHdr, prevHdr );
??osal_msg_receive_4:
        ; Setup parameters for call to function osal_msg_extract
        MOV       R0,#?V2
        LCALL     ?PUSH_XSTACK_I_TWO
          CFI CFA_XSP16 add(XSP16, 14)
        MOV       A,R6
        MOV       R4,A
        MOV       A,R7
        MOV       R5,A
        MOV       R2,#osal_qHead & 0xff
        MOV       R3,#(osal_qHead >> 8) & 0xff
        LCALL     `??osal_msg_extract::?relay`; Banked call to: osal_msg_extract
        MOV       A,#0x2
        LCALL     ?DEALLOC_XSTACK8
          CFI CFA_XSP16 add(XSP16, 12)
//  581   }
//  582 
//  583   // Release interrupts
//  584   HAL_EXIT_CRITICAL_SECTION(intState);
??osal_msg_receive_5:
        MOV       A,?V1
        MOV       C,0xE0 /* A   */.0
        MOV       0xa8.7,C
//  585 
//  586   return ( (uint8*) foundHdr );
        MOV       A,R6
        MOV       R2,A
        MOV       A,R7
        MOV       R3,A
          CFI EndBlock cfiBlock62
        REQUIRE ?Subroutine4
        REQUIRE _A_IEN0
        ; // Fall through to label ?Subroutine4
//  587 }

        RSEG BANKED_CODE:HUGECODE:NOROOT(0)
?Subroutine4:
          CFI Block cfiBlock63 Using cfiCommon0
          CFI NoFunction
          CFI CFA_SP SP+0
          CFI CFA_XSP16 add(XSP16, 12)
          CFI VB load(1, XDATA, add(CFA_XSP16, literal(-11)))
          CFI DPL0 load(1, XDATA, add(CFA_XSP16, literal(-2)))
          CFI DPH0 load(1, XDATA, add(CFA_XSP16, literal(-1)))
          CFI R6 load(1, XDATA, add(CFA_XSP16, literal(-12)))
          CFI R7 load(1, XDATA, add(CFA_XSP16, literal(-6)))
          CFI V0 load(1, XDATA, add(CFA_XSP16, literal(-10)))
          CFI V1 load(1, XDATA, add(CFA_XSP16, literal(-9)))
          CFI V2 load(1, XDATA, add(CFA_XSP16, literal(-8)))
          CFI V3 load(1, XDATA, add(CFA_XSP16, literal(-7)))
          CFI ?BRET_EXT load(1, XDATA, add(CFA_XSP16, literal(-3)))
          CFI ?RET_HIGH load(1, XDATA, add(CFA_XSP16, literal(-4)))
          CFI ?RET_LOW load(1, XDATA, add(CFA_XSP16, literal(-5)))
        MOV       R7,#0x4
        LJMP      ?BANKED_LEAVE_XDATA
          CFI EndBlock cfiBlock63
//  588 
//  589 /**************************************************************************************************
//  590  * @fn          osal_msg_find
//  591  *
//  592  * @brief       This function finds in place an OSAL message matching the task_id and event
//  593  *              parameters.
//  594  *
//  595  * input parameters
//  596  *
//  597  * @param       task_id - The OSAL task id that the enqueued OSAL message must match.
//  598  * @param       event - The OSAL event id that the enqueued OSAL message must match.
//  599  *
//  600  * output parameters
//  601  *
//  602  * None.
//  603  *
//  604  * @return      NULL if no match, otherwise an in place pointer to the matching OSAL message.
//  605  **************************************************************************************************
//  606  */

        RSEG BANKED_CODE:HUGECODE:NOROOT(0)
//  607 osal_event_hdr_t *osal_msg_find(uint8 task_id, uint8 event)
osal_msg_find:
          CFI Block cfiBlock64 Using cfiCommon0
          CFI Function osal_msg_find
        CODE
//  608 {
        PUSH      DPL
          CFI DPL0 Frame(CFA_SP, 4)
          CFI CFA_SP SP+-4
        PUSH      DPH
          CFI DPH0 Frame(CFA_SP, 5)
          CFI CFA_SP SP+-5
        ; Saved register size: 2
        ; Auto size: 0
        MOV       A,R2
        MOV       R4,A
//  609   osal_msg_hdr_t *pHdr;
//  610   halIntState_t intState;
//  611 
//  612   HAL_ENTER_CRITICAL_SECTION(intState);  // Hold off interrupts.
        MOV       C,0xa8.7
        CLR       A
        RLC       A
        MOV       R0,A
        CLR       0xa8.7
//  613 
//  614   pHdr = osal_qHead;  // Point to the top of the queue.
        MOV       DPTR,#osal_qHead
        SJMP      ??CrossCallReturnLabel_70
//  615 
//  616   // Look through the queue for a message that matches the task_id and event parameters.
//  617   while (pHdr != NULL)
//  618   {
//  619     if (((pHdr-1)->dest_id == task_id) && (((osal_event_hdr_t *)pHdr)->event == event))
//  620     {
//  621       break;
//  622     }
//  623 
//  624     pHdr = OSAL_MSG_NEXT(pHdr);
??osal_msg_find_0:
        LCALL     ?Subroutine20 & 0xFFFF
??CrossCallReturnLabel_70:
        LCALL     ?Subroutine16 & 0xFFFF
??CrossCallReturnLabel_26:
        MOV       A,R2
        ORL       A,R3
        JZ        ??osal_msg_find_1
        MOV       A,R2
        ADD       A,#-0x1
        LCALL     ??Subroutine30_0 & 0xFFFF
//  625   }
??CrossCallReturnLabel_67:
        MOVX      A,@DPTR
        XRL       A,R1
        JNZ       ??osal_msg_find_0
        MOV       DPL,R2
        MOV       DPH,R3
        MOVX      A,@DPTR
        XRL       A,R4
        JNZ       ??osal_msg_find_0
//  626   
//  627   HAL_EXIT_CRITICAL_SECTION(intState);  // Release interrupts.
??osal_msg_find_1:
        MOV       A,R0
        MOV       C,0xE0 /* A   */.0
        MOV       0xa8.7,C
//  628 
//  629   return (osal_event_hdr_t *)pHdr;
        LJMP      ?Subroutine0 & 0xFFFF
          CFI EndBlock cfiBlock64
        REQUIRE _A_IEN0
//  630 }

        RSEG BANKED_CODE:HUGECODE:NOROOT(0)
?Subroutine16:
          CFI Block cfiCond65 Using cfiCommon0
          CFI Function _ltoa
          CFI Conditional ??CrossCallReturnLabel_23
          CFI R6 load(1, XDATA, add(CFA_XSP16, literal(-16)))
          CFI VB load(1, XDATA, add(CFA_XSP16, literal(-15)))
          CFI V0 load(1, XDATA, add(CFA_XSP16, literal(-14)))
          CFI V1 load(1, XDATA, add(CFA_XSP16, literal(-13)))
          CFI V2 load(1, XDATA, add(CFA_XSP16, literal(-12)))
          CFI V3 load(1, XDATA, add(CFA_XSP16, literal(-11)))
          CFI V4 load(1, XDATA, add(CFA_XSP16, literal(-10)))
          CFI V5 load(1, XDATA, add(CFA_XSP16, literal(-9)))
          CFI V6 load(1, XDATA, add(CFA_XSP16, literal(-8)))
          CFI V7 load(1, XDATA, add(CFA_XSP16, literal(-7)))
          CFI R7 load(1, XDATA, add(CFA_XSP16, literal(-6)))
          CFI ?RET_LOW load(1, XDATA, add(CFA_XSP16, literal(-5)))
          CFI ?RET_HIGH load(1, XDATA, add(CFA_XSP16, literal(-4)))
          CFI ?BRET_EXT load(1, XDATA, add(CFA_XSP16, literal(-3)))
          CFI DPL0 load(1, XDATA, add(CFA_XSP16, literal(-2)))
          CFI DPH0 load(1, XDATA, add(CFA_XSP16, literal(-1)))
          CFI CFA_SP SP+-2
          CFI CFA_XSP16 add(XSP16, 55)
          CFI Block cfiCond66 Using cfiCommon0
          CFI (cfiCond66) Function _ltoa
          CFI (cfiCond66) Conditional ??CrossCallReturnLabel_24
          CFI (cfiCond66) R6 load(1, XDATA, add(CFA_XSP16, literal(-16)))
          CFI (cfiCond66) VB load(1, XDATA, add(CFA_XSP16, literal(-15)))
          CFI (cfiCond66) V0 load(1, XDATA, add(CFA_XSP16, literal(-14)))
          CFI (cfiCond66) V1 load(1, XDATA, add(CFA_XSP16, literal(-13)))
          CFI (cfiCond66) V2 load(1, XDATA, add(CFA_XSP16, literal(-12)))
          CFI (cfiCond66) V3 load(1, XDATA, add(CFA_XSP16, literal(-11)))
          CFI (cfiCond66) V4 load(1, XDATA, add(CFA_XSP16, literal(-10)))
          CFI (cfiCond66) V5 load(1, XDATA, add(CFA_XSP16, literal(-9)))
          CFI (cfiCond66) V6 load(1, XDATA, add(CFA_XSP16, literal(-8)))
          CFI (cfiCond66) V7 load(1, XDATA, add(CFA_XSP16, literal(-7)))
          CFI (cfiCond66) R7 load(1, XDATA, add(CFA_XSP16, literal(-6)))
          CFI (cfiCond66) ?RET_LOW load(1, XDATA, add(CFA_XSP16, literal(-5)))
          CFI (cfiCond66) ?RET_HIGH load(1, XDATA, add(CFA_XSP16, literal(-4)))
          CFI (cfiCond66) ?BRET_EXT load(1, XDATA, add(CFA_XSP16, literal(-3)))
          CFI (cfiCond66) DPL0 load(1, XDATA, add(CFA_XSP16, literal(-2)))
          CFI (cfiCond66) DPH0 load(1, XDATA, add(CFA_XSP16, literal(-1)))
          CFI (cfiCond66) CFA_SP SP+-2
          CFI (cfiCond66) CFA_XSP16 add(XSP16, 55)
          CFI Block cfiCond67 Using cfiCommon0
          CFI (cfiCond67) Function _ltoa
          CFI (cfiCond67) Conditional ??CrossCallReturnLabel_25
          CFI (cfiCond67) R6 load(1, XDATA, add(CFA_XSP16, literal(-16)))
          CFI (cfiCond67) VB load(1, XDATA, add(CFA_XSP16, literal(-15)))
          CFI (cfiCond67) V0 load(1, XDATA, add(CFA_XSP16, literal(-14)))
          CFI (cfiCond67) V1 load(1, XDATA, add(CFA_XSP16, literal(-13)))
          CFI (cfiCond67) V2 load(1, XDATA, add(CFA_XSP16, literal(-12)))
          CFI (cfiCond67) V3 load(1, XDATA, add(CFA_XSP16, literal(-11)))
          CFI (cfiCond67) V4 load(1, XDATA, add(CFA_XSP16, literal(-10)))
          CFI (cfiCond67) V5 load(1, XDATA, add(CFA_XSP16, literal(-9)))
          CFI (cfiCond67) V6 load(1, XDATA, add(CFA_XSP16, literal(-8)))
          CFI (cfiCond67) V7 load(1, XDATA, add(CFA_XSP16, literal(-7)))
          CFI (cfiCond67) R7 load(1, XDATA, add(CFA_XSP16, literal(-6)))
          CFI (cfiCond67) ?RET_LOW load(1, XDATA, add(CFA_XSP16, literal(-5)))
          CFI (cfiCond67) ?RET_HIGH load(1, XDATA, add(CFA_XSP16, literal(-4)))
          CFI (cfiCond67) ?BRET_EXT load(1, XDATA, add(CFA_XSP16, literal(-3)))
          CFI (cfiCond67) DPL0 load(1, XDATA, add(CFA_XSP16, literal(-2)))
          CFI (cfiCond67) DPH0 load(1, XDATA, add(CFA_XSP16, literal(-1)))
          CFI (cfiCond67) CFA_SP SP+-2
          CFI (cfiCond67) CFA_XSP16 add(XSP16, 55)
          CFI Block cfiCond68 Using cfiCommon0
          CFI (cfiCond68) Function osal_msg_find
          CFI (cfiCond68) Conditional ??CrossCallReturnLabel_26
          CFI (cfiCond68) DPL0 Frame(CFA_SP, 4)
          CFI (cfiCond68) DPH0 Frame(CFA_SP, 5)
          CFI (cfiCond68) CFA_SP SP+-7
          CFI Block cfiCond69 Using cfiCommon0
          CFI (cfiCond69) Function osal_start_system
          CFI (cfiCond69) Conditional ??CrossCallReturnLabel_27
          CFI (cfiCond69) R6 load(1, XDATA, add(CFA_XSP16, literal(-10)))
          CFI (cfiCond69) VB load(1, XDATA, add(CFA_XSP16, literal(-9)))
          CFI (cfiCond69) V0 load(1, XDATA, add(CFA_XSP16, literal(-8)))
          CFI (cfiCond69) V1 load(1, XDATA, add(CFA_XSP16, literal(-7)))
          CFI (cfiCond69) R7 load(1, XDATA, add(CFA_XSP16, literal(-6)))
          CFI (cfiCond69) ?RET_LOW load(1, XDATA, add(CFA_XSP16, literal(-5)))
          CFI (cfiCond69) ?RET_HIGH load(1, XDATA, add(CFA_XSP16, literal(-4)))
          CFI (cfiCond69) ?BRET_EXT load(1, XDATA, add(CFA_XSP16, literal(-3)))
          CFI (cfiCond69) DPL0 load(1, XDATA, add(CFA_XSP16, literal(-2)))
          CFI (cfiCond69) DPH0 load(1, XDATA, add(CFA_XSP16, literal(-1)))
          CFI (cfiCond69) CFA_SP SP+-2
          CFI (cfiCond69) CFA_XSP16 add(XSP16, 10)
          CFI Block cfiPicker70 Using cfiCommon1
          CFI (cfiPicker70) NoFunction
          CFI (cfiPicker70) Picker
        LCALL     ?Subroutine27 & 0xFFFF
??CrossCallReturnLabel_49:
        RET
          CFI EndBlock cfiCond65
          CFI EndBlock cfiCond66
          CFI EndBlock cfiCond67
          CFI EndBlock cfiCond68
          CFI EndBlock cfiCond69
          CFI EndBlock cfiPicker70

        RSEG BANKED_CODE:HUGECODE:NOROOT(0)
?Subroutine27:
          CFI Block cfiCond71 Using cfiCommon0
          CFI Function osal_memcpy
          CFI Conditional ??CrossCallReturnLabel_46, ??CrossCallReturnLabel_12
          CFI R6 load(1, XDATA, add(CFA_XSP16, literal(-9)))
          CFI VB load(1, XDATA, add(CFA_XSP16, literal(-8)))
          CFI V0 load(1, XDATA, add(CFA_XSP16, literal(-7)))
          CFI R7 load(1, XDATA, add(CFA_XSP16, literal(-6)))
          CFI ?RET_LOW load(1, XDATA, add(CFA_XSP16, literal(-5)))
          CFI ?RET_HIGH load(1, XDATA, add(CFA_XSP16, literal(-4)))
          CFI ?BRET_EXT load(1, XDATA, add(CFA_XSP16, literal(-3)))
          CFI DPL0 load(1, XDATA, add(CFA_XSP16, literal(-2)))
          CFI DPH0 load(1, XDATA, add(CFA_XSP16, literal(-1)))
          CFI CFA_SP SP+-4
          CFI CFA_XSP16 add(XSP16, 9)
          CFI Block cfiCond72 Using cfiCommon0
          CFI (cfiCond72) Function osal_revmemcpy
          CFI (cfiCond72) Conditional ??CrossCallReturnLabel_46, ??CrossCallReturnLabel_13
          CFI (cfiCond72) R6 load(1, XDATA, add(CFA_XSP16, literal(-9)))
          CFI (cfiCond72) VB load(1, XDATA, add(CFA_XSP16, literal(-8)))
          CFI (cfiCond72) V0 load(1, XDATA, add(CFA_XSP16, literal(-7)))
          CFI (cfiCond72) R7 load(1, XDATA, add(CFA_XSP16, literal(-6)))
          CFI (cfiCond72) ?RET_LOW load(1, XDATA, add(CFA_XSP16, literal(-5)))
          CFI (cfiCond72) ?RET_HIGH load(1, XDATA, add(CFA_XSP16, literal(-4)))
          CFI (cfiCond72) ?BRET_EXT load(1, XDATA, add(CFA_XSP16, literal(-3)))
          CFI (cfiCond72) DPL0 load(1, XDATA, add(CFA_XSP16, literal(-2)))
          CFI (cfiCond72) DPH0 load(1, XDATA, add(CFA_XSP16, literal(-1)))
          CFI (cfiCond72) CFA_SP SP+-4
          CFI (cfiCond72) CFA_XSP16 add(XSP16, 9)
          CFI Block cfiCond73 Using cfiCommon0
          CFI (cfiCond73) Function osal_memcmp
          CFI (cfiCond73) Conditional ??CrossCallReturnLabel_46, ??CrossCallReturnLabel_14
          CFI (cfiCond73) R6 load(1, XDATA, add(CFA_XSP16, literal(-15)))
          CFI (cfiCond73) VB load(1, XDATA, add(CFA_XSP16, literal(-14)))
          CFI (cfiCond73) V0 load(1, XDATA, add(CFA_XSP16, literal(-13)))
          CFI (cfiCond73) V1 load(1, XDATA, add(CFA_XSP16, literal(-12)))
          CFI (cfiCond73) V2 load(1, XDATA, add(CFA_XSP16, literal(-11)))
          CFI (cfiCond73) V3 load(1, XDATA, add(CFA_XSP16, literal(-10)))
          CFI (cfiCond73) V4 load(1, XDATA, add(CFA_XSP16, literal(-9)))
          CFI (cfiCond73) V5 load(1, XDATA, add(CFA_XSP16, literal(-8)))
          CFI (cfiCond73) V6 load(1, XDATA, add(CFA_XSP16, literal(-7)))
          CFI (cfiCond73) R7 load(1, XDATA, add(CFA_XSP16, literal(-6)))
          CFI (cfiCond73) ?RET_LOW load(1, XDATA, add(CFA_XSP16, literal(-5)))
          CFI (cfiCond73) ?RET_HIGH load(1, XDATA, add(CFA_XSP16, literal(-4)))
          CFI (cfiCond73) ?BRET_EXT load(1, XDATA, add(CFA_XSP16, literal(-3)))
          CFI (cfiCond73) DPL0 load(1, XDATA, add(CFA_XSP16, literal(-2)))
          CFI (cfiCond73) DPH0 load(1, XDATA, add(CFA_XSP16, literal(-1)))
          CFI (cfiCond73) CFA_SP SP+-4
          CFI (cfiCond73) CFA_XSP16 add(XSP16, 18)
          CFI Block cfiCond74 Using cfiCommon0
          CFI (cfiCond74) Function _ltoa
          CFI (cfiCond74) Conditional ??CrossCallReturnLabel_48, ??CrossCallReturnLabel_21
          CFI (cfiCond74) R6 load(1, XDATA, add(CFA_XSP16, literal(-16)))
          CFI (cfiCond74) VB load(1, XDATA, add(CFA_XSP16, literal(-15)))
          CFI (cfiCond74) V0 load(1, XDATA, add(CFA_XSP16, literal(-14)))
          CFI (cfiCond74) V1 load(1, XDATA, add(CFA_XSP16, literal(-13)))
          CFI (cfiCond74) V2 load(1, XDATA, add(CFA_XSP16, literal(-12)))
          CFI (cfiCond74) V3 load(1, XDATA, add(CFA_XSP16, literal(-11)))
          CFI (cfiCond74) V4 load(1, XDATA, add(CFA_XSP16, literal(-10)))
          CFI (cfiCond74) V5 load(1, XDATA, add(CFA_XSP16, literal(-9)))
          CFI (cfiCond74) V6 load(1, XDATA, add(CFA_XSP16, literal(-8)))
          CFI (cfiCond74) V7 load(1, XDATA, add(CFA_XSP16, literal(-7)))
          CFI (cfiCond74) R7 load(1, XDATA, add(CFA_XSP16, literal(-6)))
          CFI (cfiCond74) ?RET_LOW load(1, XDATA, add(CFA_XSP16, literal(-5)))
          CFI (cfiCond74) ?RET_HIGH load(1, XDATA, add(CFA_XSP16, literal(-4)))
          CFI (cfiCond74) ?BRET_EXT load(1, XDATA, add(CFA_XSP16, literal(-3)))
          CFI (cfiCond74) DPL0 load(1, XDATA, add(CFA_XSP16, literal(-2)))
          CFI (cfiCond74) DPH0 load(1, XDATA, add(CFA_XSP16, literal(-1)))
          CFI (cfiCond74) CFA_SP SP+-4
          CFI (cfiCond74) CFA_XSP16 add(XSP16, 55)
          CFI Block cfiCond75 Using cfiCommon0
          CFI (cfiCond75) Function _ltoa
          CFI (cfiCond75) Conditional ??CrossCallReturnLabel_48, ??CrossCallReturnLabel_22
          CFI (cfiCond75) R6 load(1, XDATA, add(CFA_XSP16, literal(-16)))
          CFI (cfiCond75) VB load(1, XDATA, add(CFA_XSP16, literal(-15)))
          CFI (cfiCond75) V0 load(1, XDATA, add(CFA_XSP16, literal(-14)))
          CFI (cfiCond75) V1 load(1, XDATA, add(CFA_XSP16, literal(-13)))
          CFI (cfiCond75) V2 load(1, XDATA, add(CFA_XSP16, literal(-12)))
          CFI (cfiCond75) V3 load(1, XDATA, add(CFA_XSP16, literal(-11)))
          CFI (cfiCond75) V4 load(1, XDATA, add(CFA_XSP16, literal(-10)))
          CFI (cfiCond75) V5 load(1, XDATA, add(CFA_XSP16, literal(-9)))
          CFI (cfiCond75) V6 load(1, XDATA, add(CFA_XSP16, literal(-8)))
          CFI (cfiCond75) V7 load(1, XDATA, add(CFA_XSP16, literal(-7)))
          CFI (cfiCond75) R7 load(1, XDATA, add(CFA_XSP16, literal(-6)))
          CFI (cfiCond75) ?RET_LOW load(1, XDATA, add(CFA_XSP16, literal(-5)))
          CFI (cfiCond75) ?RET_HIGH load(1, XDATA, add(CFA_XSP16, literal(-4)))
          CFI (cfiCond75) ?BRET_EXT load(1, XDATA, add(CFA_XSP16, literal(-3)))
          CFI (cfiCond75) DPL0 load(1, XDATA, add(CFA_XSP16, literal(-2)))
          CFI (cfiCond75) DPH0 load(1, XDATA, add(CFA_XSP16, literal(-1)))
          CFI (cfiCond75) CFA_SP SP+-4
          CFI (cfiCond75) CFA_XSP16 add(XSP16, 55)
          CFI Block cfiCond76 Using cfiCommon0
          CFI (cfiCond76) Function _ltoa
          CFI (cfiCond76) Conditional ??CrossCallReturnLabel_47, ??CrossCallReturnLabel_17
          CFI (cfiCond76) R6 load(1, XDATA, add(CFA_XSP16, literal(-16)))
          CFI (cfiCond76) VB load(1, XDATA, add(CFA_XSP16, literal(-15)))
          CFI (cfiCond76) V0 load(1, XDATA, add(CFA_XSP16, literal(-14)))
          CFI (cfiCond76) V1 load(1, XDATA, add(CFA_XSP16, literal(-13)))
          CFI (cfiCond76) V2 load(1, XDATA, add(CFA_XSP16, literal(-12)))
          CFI (cfiCond76) V3 load(1, XDATA, add(CFA_XSP16, literal(-11)))
          CFI (cfiCond76) V4 load(1, XDATA, add(CFA_XSP16, literal(-10)))
          CFI (cfiCond76) V5 load(1, XDATA, add(CFA_XSP16, literal(-9)))
          CFI (cfiCond76) V6 load(1, XDATA, add(CFA_XSP16, literal(-8)))
          CFI (cfiCond76) V7 load(1, XDATA, add(CFA_XSP16, literal(-7)))
          CFI (cfiCond76) R7 load(1, XDATA, add(CFA_XSP16, literal(-6)))
          CFI (cfiCond76) ?RET_LOW load(1, XDATA, add(CFA_XSP16, literal(-5)))
          CFI (cfiCond76) ?RET_HIGH load(1, XDATA, add(CFA_XSP16, literal(-4)))
          CFI (cfiCond76) ?BRET_EXT load(1, XDATA, add(CFA_XSP16, literal(-3)))
          CFI (cfiCond76) DPL0 load(1, XDATA, add(CFA_XSP16, literal(-2)))
          CFI (cfiCond76) DPH0 load(1, XDATA, add(CFA_XSP16, literal(-1)))
          CFI (cfiCond76) CFA_SP SP+-4
          CFI (cfiCond76) CFA_XSP16 add(XSP16, 55)
          CFI Block cfiCond77 Using cfiCommon0
          CFI (cfiCond77) Function _ltoa
          CFI (cfiCond77) Conditional ??CrossCallReturnLabel_47, ??CrossCallReturnLabel_18
          CFI (cfiCond77) R6 load(1, XDATA, add(CFA_XSP16, literal(-16)))
          CFI (cfiCond77) VB load(1, XDATA, add(CFA_XSP16, literal(-15)))
          CFI (cfiCond77) V0 load(1, XDATA, add(CFA_XSP16, literal(-14)))
          CFI (cfiCond77) V1 load(1, XDATA, add(CFA_XSP16, literal(-13)))
          CFI (cfiCond77) V2 load(1, XDATA, add(CFA_XSP16, literal(-12)))
          CFI (cfiCond77) V3 load(1, XDATA, add(CFA_XSP16, literal(-11)))
          CFI (cfiCond77) V4 load(1, XDATA, add(CFA_XSP16, literal(-10)))
          CFI (cfiCond77) V5 load(1, XDATA, add(CFA_XSP16, literal(-9)))
          CFI (cfiCond77) V6 load(1, XDATA, add(CFA_XSP16, literal(-8)))
          CFI (cfiCond77) V7 load(1, XDATA, add(CFA_XSP16, literal(-7)))
          CFI (cfiCond77) R7 load(1, XDATA, add(CFA_XSP16, literal(-6)))
          CFI (cfiCond77) ?RET_LOW load(1, XDATA, add(CFA_XSP16, literal(-5)))
          CFI (cfiCond77) ?RET_HIGH load(1, XDATA, add(CFA_XSP16, literal(-4)))
          CFI (cfiCond77) ?BRET_EXT load(1, XDATA, add(CFA_XSP16, literal(-3)))
          CFI (cfiCond77) DPL0 load(1, XDATA, add(CFA_XSP16, literal(-2)))
          CFI (cfiCond77) DPH0 load(1, XDATA, add(CFA_XSP16, literal(-1)))
          CFI (cfiCond77) CFA_SP SP+-4
          CFI (cfiCond77) CFA_XSP16 add(XSP16, 55)
          CFI Block cfiCond78 Using cfiCommon0
          CFI (cfiCond78) Function _ltoa
          CFI (cfiCond78) Conditional ??CrossCallReturnLabel_49, ??CrossCallReturnLabel_23
          CFI (cfiCond78) R6 load(1, XDATA, add(CFA_XSP16, literal(-16)))
          CFI (cfiCond78) VB load(1, XDATA, add(CFA_XSP16, literal(-15)))
          CFI (cfiCond78) V0 load(1, XDATA, add(CFA_XSP16, literal(-14)))
          CFI (cfiCond78) V1 load(1, XDATA, add(CFA_XSP16, literal(-13)))
          CFI (cfiCond78) V2 load(1, XDATA, add(CFA_XSP16, literal(-12)))
          CFI (cfiCond78) V3 load(1, XDATA, add(CFA_XSP16, literal(-11)))
          CFI (cfiCond78) V4 load(1, XDATA, add(CFA_XSP16, literal(-10)))
          CFI (cfiCond78) V5 load(1, XDATA, add(CFA_XSP16, literal(-9)))
          CFI (cfiCond78) V6 load(1, XDATA, add(CFA_XSP16, literal(-8)))
          CFI (cfiCond78) V7 load(1, XDATA, add(CFA_XSP16, literal(-7)))
          CFI (cfiCond78) R7 load(1, XDATA, add(CFA_XSP16, literal(-6)))
          CFI (cfiCond78) ?RET_LOW load(1, XDATA, add(CFA_XSP16, literal(-5)))
          CFI (cfiCond78) ?RET_HIGH load(1, XDATA, add(CFA_XSP16, literal(-4)))
          CFI (cfiCond78) ?BRET_EXT load(1, XDATA, add(CFA_XSP16, literal(-3)))
          CFI (cfiCond78) DPL0 load(1, XDATA, add(CFA_XSP16, literal(-2)))
          CFI (cfiCond78) DPH0 load(1, XDATA, add(CFA_XSP16, literal(-1)))
          CFI (cfiCond78) CFA_SP SP+-4
          CFI (cfiCond78) CFA_XSP16 add(XSP16, 55)
          CFI Block cfiCond79 Using cfiCommon0
          CFI (cfiCond79) Function _ltoa
          CFI (cfiCond79) Conditional ??CrossCallReturnLabel_49, ??CrossCallReturnLabel_24
          CFI (cfiCond79) R6 load(1, XDATA, add(CFA_XSP16, literal(-16)))
          CFI (cfiCond79) VB load(1, XDATA, add(CFA_XSP16, literal(-15)))
          CFI (cfiCond79) V0 load(1, XDATA, add(CFA_XSP16, literal(-14)))
          CFI (cfiCond79) V1 load(1, XDATA, add(CFA_XSP16, literal(-13)))
          CFI (cfiCond79) V2 load(1, XDATA, add(CFA_XSP16, literal(-12)))
          CFI (cfiCond79) V3 load(1, XDATA, add(CFA_XSP16, literal(-11)))
          CFI (cfiCond79) V4 load(1, XDATA, add(CFA_XSP16, literal(-10)))
          CFI (cfiCond79) V5 load(1, XDATA, add(CFA_XSP16, literal(-9)))
          CFI (cfiCond79) V6 load(1, XDATA, add(CFA_XSP16, literal(-8)))
          CFI (cfiCond79) V7 load(1, XDATA, add(CFA_XSP16, literal(-7)))
          CFI (cfiCond79) R7 load(1, XDATA, add(CFA_XSP16, literal(-6)))
          CFI (cfiCond79) ?RET_LOW load(1, XDATA, add(CFA_XSP16, literal(-5)))
          CFI (cfiCond79) ?RET_HIGH load(1, XDATA, add(CFA_XSP16, literal(-4)))
          CFI (cfiCond79) ?BRET_EXT load(1, XDATA, add(CFA_XSP16, literal(-3)))
          CFI (cfiCond79) DPL0 load(1, XDATA, add(CFA_XSP16, literal(-2)))
          CFI (cfiCond79) DPH0 load(1, XDATA, add(CFA_XSP16, literal(-1)))
          CFI (cfiCond79) CFA_SP SP+-4
          CFI (cfiCond79) CFA_XSP16 add(XSP16, 55)
          CFI Block cfiCond80 Using cfiCommon0
          CFI (cfiCond80) Function _ltoa
          CFI (cfiCond80) Conditional ??CrossCallReturnLabel_49, ??CrossCallReturnLabel_25
          CFI (cfiCond80) R6 load(1, XDATA, add(CFA_XSP16, literal(-16)))
          CFI (cfiCond80) VB load(1, XDATA, add(CFA_XSP16, literal(-15)))
          CFI (cfiCond80) V0 load(1, XDATA, add(CFA_XSP16, literal(-14)))
          CFI (cfiCond80) V1 load(1, XDATA, add(CFA_XSP16, literal(-13)))
          CFI (cfiCond80) V2 load(1, XDATA, add(CFA_XSP16, literal(-12)))
          CFI (cfiCond80) V3 load(1, XDATA, add(CFA_XSP16, literal(-11)))
          CFI (cfiCond80) V4 load(1, XDATA, add(CFA_XSP16, literal(-10)))
          CFI (cfiCond80) V5 load(1, XDATA, add(CFA_XSP16, literal(-9)))
          CFI (cfiCond80) V6 load(1, XDATA, add(CFA_XSP16, literal(-8)))
          CFI (cfiCond80) V7 load(1, XDATA, add(CFA_XSP16, literal(-7)))
          CFI (cfiCond80) R7 load(1, XDATA, add(CFA_XSP16, literal(-6)))
          CFI (cfiCond80) ?RET_LOW load(1, XDATA, add(CFA_XSP16, literal(-5)))
          CFI (cfiCond80) ?RET_HIGH load(1, XDATA, add(CFA_XSP16, literal(-4)))
          CFI (cfiCond80) ?BRET_EXT load(1, XDATA, add(CFA_XSP16, literal(-3)))
          CFI (cfiCond80) DPL0 load(1, XDATA, add(CFA_XSP16, literal(-2)))
          CFI (cfiCond80) DPH0 load(1, XDATA, add(CFA_XSP16, literal(-1)))
          CFI (cfiCond80) CFA_SP SP+-4
          CFI (cfiCond80) CFA_XSP16 add(XSP16, 55)
          CFI Block cfiCond81 Using cfiCommon0
          CFI (cfiCond81) Function osal_msg_find
          CFI (cfiCond81) Conditional ??CrossCallReturnLabel_49, ??CrossCallReturnLabel_26
          CFI (cfiCond81) DPL0 Frame(CFA_SP, 4)
          CFI (cfiCond81) DPH0 Frame(CFA_SP, 5)
          CFI (cfiCond81) CFA_SP SP+-9
          CFI Block cfiCond82 Using cfiCommon0
          CFI (cfiCond82) Function osal_start_system
          CFI (cfiCond82) Conditional ??CrossCallReturnLabel_49, ??CrossCallReturnLabel_27
          CFI (cfiCond82) R6 load(1, XDATA, add(CFA_XSP16, literal(-10)))
          CFI (cfiCond82) VB load(1, XDATA, add(CFA_XSP16, literal(-9)))
          CFI (cfiCond82) V0 load(1, XDATA, add(CFA_XSP16, literal(-8)))
          CFI (cfiCond82) V1 load(1, XDATA, add(CFA_XSP16, literal(-7)))
          CFI (cfiCond82) R7 load(1, XDATA, add(CFA_XSP16, literal(-6)))
          CFI (cfiCond82) ?RET_LOW load(1, XDATA, add(CFA_XSP16, literal(-5)))
          CFI (cfiCond82) ?RET_HIGH load(1, XDATA, add(CFA_XSP16, literal(-4)))
          CFI (cfiCond82) ?BRET_EXT load(1, XDATA, add(CFA_XSP16, literal(-3)))
          CFI (cfiCond82) DPL0 load(1, XDATA, add(CFA_XSP16, literal(-2)))
          CFI (cfiCond82) DPH0 load(1, XDATA, add(CFA_XSP16, literal(-1)))
          CFI (cfiCond82) CFA_SP SP+-4
          CFI (cfiCond82) CFA_XSP16 add(XSP16, 10)
          CFI Block cfiPicker83 Using cfiCommon1
          CFI (cfiPicker83) NoFunction
          CFI (cfiPicker83) Picker
        MOVX      A,@DPTR
        MOV       R2,A
        INC       DPTR
        MOVX      A,@DPTR
        MOV       R3,A
        RET
          CFI EndBlock cfiCond71
          CFI EndBlock cfiCond72
          CFI EndBlock cfiCond73
          CFI EndBlock cfiCond74
          CFI EndBlock cfiCond75
          CFI EndBlock cfiCond76
          CFI EndBlock cfiCond77
          CFI EndBlock cfiCond78
          CFI EndBlock cfiCond79
          CFI EndBlock cfiCond80
          CFI EndBlock cfiCond81
          CFI EndBlock cfiCond82
          CFI EndBlock cfiPicker83
//  631 
//  632 /*********************************************************************
//  633  * @fn      osal_msg_enqueue
//  634  *
//  635  * @brief
//  636  *
//  637  *    This function enqueues an OSAL message into an OSAL queue.
//  638  *
//  639  * @param   osal_msg_q_t *q_ptr - OSAL queue
//  640  * @param   void *msg_ptr  - OSAL message
//  641  *
//  642  * @return  none
//  643  */

        RSEG BANKED_CODE:HUGECODE:NOROOT(0)
//  644 void osal_msg_enqueue( osal_msg_q_t *q_ptr, void *msg_ptr )
osal_msg_enqueue:
          CFI Block cfiBlock84 Using cfiCommon0
          CFI Function osal_msg_enqueue
        CODE
//  645 {
        MOV       A,#-0x9
        LCALL     ?BANKED_ENTER_XDATA
          CFI DPH0 load(1, XDATA, add(CFA_XSP16, literal(-1)))
          CFI DPL0 load(1, XDATA, add(CFA_XSP16, literal(-2)))
          CFI ?BRET_EXT load(1, XDATA, add(CFA_XSP16, literal(-3)))
          CFI ?RET_HIGH load(1, XDATA, add(CFA_XSP16, literal(-4)))
          CFI ?RET_LOW load(1, XDATA, add(CFA_XSP16, literal(-5)))
          CFI R7 load(1, XDATA, add(CFA_XSP16, literal(-6)))
          CFI V0 load(1, XDATA, add(CFA_XSP16, literal(-7)))
          CFI VB load(1, XDATA, add(CFA_XSP16, literal(-8)))
          CFI R6 load(1, XDATA, add(CFA_XSP16, literal(-9)))
          CFI CFA_SP SP+0
          CFI CFA_XSP16 add(XSP16, 9)
        ; Saved register size: 9
        ; Auto size: 0
        MOV       A,R2
        MOV       R6,A
//  646   void *list;
//  647   halIntState_t intState;
//  648 
//  649   // Hold off interrupts
//  650   HAL_ENTER_CRITICAL_SECTION(intState);
        MOV       C,0xa8.7
        CLR       A
        RLC       A
        MOV       R2,A
        CLR       0xa8.7
//  651 
//  652   OSAL_MSG_NEXT( msg_ptr ) = NULL;
        MOV       A,R4
        ADD       A,#-0x5
        MOV       DPL,A
        MOV       A,R5
        LCALL     ??Subroutine31_0 & 0xFFFF
??CrossCallReturnLabel_63:
        CLR       A
        MOVX      @DPTR,A
        INC       DPTR
        MOVX      @DPTR,A
//  653   // If first message in queue
//  654   if ( *q_ptr == NULL )
        MOV       DPL,R6
        MOV       DPH,R3
        LCALL     ??Subroutine29_0 & 0xFFFF
??CrossCallReturnLabel_52:
        JNZ       ??osal_msg_enqueue_0
//  655   {
//  656     *q_ptr = msg_ptr;
        MOV       DPL,R6
        MOV       DPH,R3
        SJMP      ??osal_msg_enqueue_1
//  657   }
//  658   else
//  659   {
//  660     // Find end of queue
//  661     for ( list = *q_ptr; OSAL_MSG_NEXT( list ) != NULL; list = OSAL_MSG_NEXT( list ) );
??osal_msg_enqueue_0:
        MOV       A,R0
        ADD       A,#-0x5
        MOV       R0,A
        MOV       A,R1
        ADDC      A,#-0x1
        MOV       R1,A
        MOV       A,R0
        MOV       R6,A
        MOV       A,R1
        MOV       R7,A
        MOV       DPL,R0
        MOV       DPH,A
        LCALL     ??Subroutine29_0 & 0xFFFF
??CrossCallReturnLabel_53:
        JNZ       ??osal_msg_enqueue_0
//  662 
//  663     // Add message to end of queue
//  664     OSAL_MSG_NEXT( list ) = msg_ptr;
        MOV       DPL,R6
        MOV       DPH,R7
??osal_msg_enqueue_1:
        MOV       A,R4
        MOVX      @DPTR,A
        INC       DPTR
        MOV       A,R5
        MOVX      @DPTR,A
//  665   }
//  666 
//  667   // Re-enable interrupts
//  668   HAL_EXIT_CRITICAL_SECTION(intState);
        MOV       A,R2
        MOV       C,0xE0 /* A   */.0
          CFI EndBlock cfiBlock84
        REQUIRE ?Subroutine5
        REQUIRE _A_IEN0
        ; // Fall through to label ?Subroutine5
//  669 }

        RSEG BANKED_CODE:HUGECODE:NOROOT(0)
?Subroutine5:
          CFI Block cfiBlock85 Using cfiCommon0
          CFI NoFunction
          CFI CFA_SP SP+0
          CFI CFA_XSP16 add(XSP16, 9)
          CFI VB load(1, XDATA, add(CFA_XSP16, literal(-8)))
          CFI DPL0 load(1, XDATA, add(CFA_XSP16, literal(-2)))
          CFI DPH0 load(1, XDATA, add(CFA_XSP16, literal(-1)))
          CFI R6 load(1, XDATA, add(CFA_XSP16, literal(-9)))
          CFI R7 load(1, XDATA, add(CFA_XSP16, literal(-6)))
          CFI V0 load(1, XDATA, add(CFA_XSP16, literal(-7)))
          CFI ?BRET_EXT load(1, XDATA, add(CFA_XSP16, literal(-3)))
          CFI ?RET_HIGH load(1, XDATA, add(CFA_XSP16, literal(-4)))
          CFI ?RET_LOW load(1, XDATA, add(CFA_XSP16, literal(-5)))
        MOV       0xa8.7,C
        SJMP      ??Subroutine28_0
          CFI EndBlock cfiBlock85

        RSEG BANKED_CODE:HUGECODE:NOROOT(0)
?Subroutine1:
          CFI Block cfiBlock86 Using cfiCommon0
          CFI NoFunction
          CFI CFA_SP SP+0
          CFI CFA_XSP16 add(XSP16, 9)
          CFI VB load(1, XDATA, add(CFA_XSP16, literal(-8)))
          CFI DPL0 load(1, XDATA, add(CFA_XSP16, literal(-2)))
          CFI DPH0 load(1, XDATA, add(CFA_XSP16, literal(-1)))
          CFI R6 load(1, XDATA, add(CFA_XSP16, literal(-9)))
          CFI R7 load(1, XDATA, add(CFA_XSP16, literal(-6)))
          CFI V0 load(1, XDATA, add(CFA_XSP16, literal(-7)))
          CFI ?BRET_EXT load(1, XDATA, add(CFA_XSP16, literal(-3)))
          CFI ?RET_HIGH load(1, XDATA, add(CFA_XSP16, literal(-4)))
          CFI ?RET_LOW load(1, XDATA, add(CFA_XSP16, literal(-5)))
        MOV       R2,DPL
        MOV       R3,DPH
          CFI EndBlock cfiBlock86
        REQUIRE ??Subroutine28_0
        ; // Fall through to label ??Subroutine28_0

        RSEG BANKED_CODE:HUGECODE:NOROOT(0)
??Subroutine28_0:
          CFI Block cfiBlock87 Using cfiCommon0
          CFI NoFunction
          CFI CFA_SP SP+0
          CFI CFA_XSP16 add(XSP16, 9)
          CFI VB load(1, XDATA, add(CFA_XSP16, literal(-8)))
          CFI DPL0 load(1, XDATA, add(CFA_XSP16, literal(-2)))
          CFI DPH0 load(1, XDATA, add(CFA_XSP16, literal(-1)))
          CFI R6 load(1, XDATA, add(CFA_XSP16, literal(-9)))
          CFI R7 load(1, XDATA, add(CFA_XSP16, literal(-6)))
          CFI V0 load(1, XDATA, add(CFA_XSP16, literal(-7)))
          CFI ?BRET_EXT load(1, XDATA, add(CFA_XSP16, literal(-3)))
          CFI ?RET_HIGH load(1, XDATA, add(CFA_XSP16, literal(-4)))
          CFI ?RET_LOW load(1, XDATA, add(CFA_XSP16, literal(-5)))
        MOV       R7,#0x1
        LJMP      ?BANKED_LEAVE_XDATA
          CFI EndBlock cfiBlock87
//  670 
//  671 /*********************************************************************
//  672  * @fn      osal_msg_dequeue
//  673  *
//  674  * @brief
//  675  *
//  676  *    This function dequeues an OSAL message from an OSAL queue.
//  677  *
//  678  * @param   osal_msg_q_t *q_ptr - OSAL queue
//  679  *
//  680  * @return  void * - pointer to OSAL message or NULL of queue is empty.
//  681  */

        RSEG BANKED_CODE:HUGECODE:NOROOT(0)
//  682 void *osal_msg_dequeue( osal_msg_q_t *q_ptr )
osal_msg_dequeue:
          CFI Block cfiBlock88 Using cfiCommon0
          CFI Function osal_msg_dequeue
        CODE
//  683 {
        REQUIRE ?V0
        REQUIRE ?V1
        MOV       A,#-0xa
        LCALL     ?BANKED_ENTER_XDATA
          CFI DPH0 load(1, XDATA, add(CFA_XSP16, literal(-1)))
          CFI DPL0 load(1, XDATA, add(CFA_XSP16, literal(-2)))
          CFI ?BRET_EXT load(1, XDATA, add(CFA_XSP16, literal(-3)))
          CFI ?RET_HIGH load(1, XDATA, add(CFA_XSP16, literal(-4)))
          CFI ?RET_LOW load(1, XDATA, add(CFA_XSP16, literal(-5)))
          CFI R7 load(1, XDATA, add(CFA_XSP16, literal(-6)))
          CFI V1 load(1, XDATA, add(CFA_XSP16, literal(-7)))
          CFI V0 load(1, XDATA, add(CFA_XSP16, literal(-8)))
          CFI VB load(1, XDATA, add(CFA_XSP16, literal(-9)))
          CFI R6 load(1, XDATA, add(CFA_XSP16, literal(-10)))
          CFI CFA_SP SP+0
          CFI CFA_XSP16 add(XSP16, 10)
        ; Saved register size: 10
        ; Auto size: 0
        MOV       A,R2
        MOV       R4,A
        MOV       A,R3
        MOV       R5,A
//  684   void *msg_ptr = NULL;
        MOV       R2,#0x0
        MOV       R3,#0x0
//  685   halIntState_t intState;
//  686 
//  687   // Hold off interrupts
//  688   HAL_ENTER_CRITICAL_SECTION(intState);
        MOV       C,0xa8.7
        CLR       A
        RLC       A
        MOV       R6,A
        CLR       0xa8.7
//  689 
//  690   if ( *q_ptr != NULL )
        MOV       DPL,R4
        MOV       DPH,R5
        LCALL     ??Subroutine29_0 & 0xFFFF
??CrossCallReturnLabel_54:
        JZ        ??osal_msg_dequeue_0
//  691   {
//  692     // Dequeue message
//  693     msg_ptr = *q_ptr;
        MOV       A,R0
        MOV       R2,A
        MOV       A,R1
        MOV       R3,A
//  694     *q_ptr = OSAL_MSG_NEXT( msg_ptr );
        MOV       A,R0
        ADD       A,#-0x5
        MOV       R0,A
        MOV       A,R1
        ADDC      A,#-0x1
        MOV       R1,A
        MOV       DPL,R0
        MOV       DPH,A
        MOVX      A,@DPTR
        MOV       ?V0,A
        INC       DPTR
        MOVX      A,@DPTR
        MOV       ?V1,A
        MOV       DPL,R4
        MOV       DPH,R5
        MOV       A,?V0
        MOVX      @DPTR,A
        INC       DPTR
        MOV       A,?V1
        MOVX      @DPTR,A
//  695     OSAL_MSG_NEXT( msg_ptr ) = NULL;
        MOV       DPL,R0
        MOV       DPH,R1
        CLR       A
        MOVX      @DPTR,A
        INC       DPTR
        MOVX      @DPTR,A
//  696     OSAL_MSG_ID( msg_ptr ) = TASK_NO_TASK;
        MOV       A,R2
        ADD       A,#-0x1
        LCALL     ??Subroutine30_0 & 0xFFFF
//  697   }
??CrossCallReturnLabel_68:
        MOV       A,#-0x1
        MOVX      @DPTR,A
//  698 
//  699   // Re-enable interrupts
//  700   HAL_EXIT_CRITICAL_SECTION(intState);
??osal_msg_dequeue_0:
        MOV       A,R6
        MOV       C,0xE0 /* A   */.0
        MOV       0xa8.7,C
//  701 
//  702   return msg_ptr;
          CFI EndBlock cfiBlock88
        REQUIRE ?Subroutine3
        REQUIRE _A_IEN0
        ; // Fall through to label ?Subroutine3
//  703 }

        RSEG BANKED_CODE:HUGECODE:NOROOT(0)
?Subroutine3:
          CFI Block cfiBlock89 Using cfiCommon0
          CFI NoFunction
          CFI CFA_SP SP+0
          CFI CFA_XSP16 add(XSP16, 10)
          CFI VB load(1, XDATA, add(CFA_XSP16, literal(-9)))
          CFI DPL0 load(1, XDATA, add(CFA_XSP16, literal(-2)))
          CFI DPH0 load(1, XDATA, add(CFA_XSP16, literal(-1)))
          CFI R6 load(1, XDATA, add(CFA_XSP16, literal(-10)))
          CFI R7 load(1, XDATA, add(CFA_XSP16, literal(-6)))
          CFI V0 load(1, XDATA, add(CFA_XSP16, literal(-8)))
          CFI V1 load(1, XDATA, add(CFA_XSP16, literal(-7)))
          CFI ?BRET_EXT load(1, XDATA, add(CFA_XSP16, literal(-3)))
          CFI ?RET_HIGH load(1, XDATA, add(CFA_XSP16, literal(-4)))
          CFI ?RET_LOW load(1, XDATA, add(CFA_XSP16, literal(-5)))
        MOV       R7,#0x2
        LJMP      ?BANKED_LEAVE_XDATA
          CFI EndBlock cfiBlock89

        RSEG BANKED_CODE:HUGECODE:NOROOT(0)
?Subroutine7:
          CFI Block cfiCond90 Using cfiCommon0
          CFI Function _ltoa
          CFI Conditional ??CrossCallReturnLabel_58
          CFI R6 load(1, XDATA, add(CFA_XSP16, literal(-16)))
          CFI VB load(1, XDATA, add(CFA_XSP16, literal(-15)))
          CFI V0 load(1, XDATA, add(CFA_XSP16, literal(-14)))
          CFI V1 load(1, XDATA, add(CFA_XSP16, literal(-13)))
          CFI V2 load(1, XDATA, add(CFA_XSP16, literal(-12)))
          CFI V3 load(1, XDATA, add(CFA_XSP16, literal(-11)))
          CFI V4 load(1, XDATA, add(CFA_XSP16, literal(-10)))
          CFI V5 load(1, XDATA, add(CFA_XSP16, literal(-9)))
          CFI V6 load(1, XDATA, add(CFA_XSP16, literal(-8)))
          CFI V7 load(1, XDATA, add(CFA_XSP16, literal(-7)))
          CFI R7 load(1, XDATA, add(CFA_XSP16, literal(-6)))
          CFI ?RET_LOW load(1, XDATA, add(CFA_XSP16, literal(-5)))
          CFI ?RET_HIGH load(1, XDATA, add(CFA_XSP16, literal(-4)))
          CFI ?BRET_EXT load(1, XDATA, add(CFA_XSP16, literal(-3)))
          CFI DPL0 load(1, XDATA, add(CFA_XSP16, literal(-2)))
          CFI DPH0 load(1, XDATA, add(CFA_XSP16, literal(-1)))
          CFI CFA_SP SP+-2
          CFI CFA_XSP16 add(XSP16, 55)
          CFI Block cfiCond91 Using cfiCommon0
          CFI (cfiCond91) Function _ltoa
          CFI (cfiCond91) Conditional ??CrossCallReturnLabel_59
          CFI (cfiCond91) R6 load(1, XDATA, add(CFA_XSP16, literal(-16)))
          CFI (cfiCond91) VB load(1, XDATA, add(CFA_XSP16, literal(-15)))
          CFI (cfiCond91) V0 load(1, XDATA, add(CFA_XSP16, literal(-14)))
          CFI (cfiCond91) V1 load(1, XDATA, add(CFA_XSP16, literal(-13)))
          CFI (cfiCond91) V2 load(1, XDATA, add(CFA_XSP16, literal(-12)))
          CFI (cfiCond91) V3 load(1, XDATA, add(CFA_XSP16, literal(-11)))
          CFI (cfiCond91) V4 load(1, XDATA, add(CFA_XSP16, literal(-10)))
          CFI (cfiCond91) V5 load(1, XDATA, add(CFA_XSP16, literal(-9)))
          CFI (cfiCond91) V6 load(1, XDATA, add(CFA_XSP16, literal(-8)))
          CFI (cfiCond91) V7 load(1, XDATA, add(CFA_XSP16, literal(-7)))
          CFI (cfiCond91) R7 load(1, XDATA, add(CFA_XSP16, literal(-6)))
          CFI (cfiCond91) ?RET_LOW load(1, XDATA, add(CFA_XSP16, literal(-5)))
          CFI (cfiCond91) ?RET_HIGH load(1, XDATA, add(CFA_XSP16, literal(-4)))
          CFI (cfiCond91) ?BRET_EXT load(1, XDATA, add(CFA_XSP16, literal(-3)))
          CFI (cfiCond91) DPL0 load(1, XDATA, add(CFA_XSP16, literal(-2)))
          CFI (cfiCond91) DPH0 load(1, XDATA, add(CFA_XSP16, literal(-1)))
          CFI (cfiCond91) CFA_SP SP+-2
          CFI (cfiCond91) CFA_XSP16 add(XSP16, 55)
          CFI Block cfiCond92 Using cfiCommon0
          CFI (cfiCond92) Function _ltoa
          CFI (cfiCond92) Conditional ??CrossCallReturnLabel_60
          CFI (cfiCond92) R6 load(1, XDATA, add(CFA_XSP16, literal(-16)))
          CFI (cfiCond92) VB load(1, XDATA, add(CFA_XSP16, literal(-15)))
          CFI (cfiCond92) V0 load(1, XDATA, add(CFA_XSP16, literal(-14)))
          CFI (cfiCond92) V1 load(1, XDATA, add(CFA_XSP16, literal(-13)))
          CFI (cfiCond92) V2 load(1, XDATA, add(CFA_XSP16, literal(-12)))
          CFI (cfiCond92) V3 load(1, XDATA, add(CFA_XSP16, literal(-11)))
          CFI (cfiCond92) V4 load(1, XDATA, add(CFA_XSP16, literal(-10)))
          CFI (cfiCond92) V5 load(1, XDATA, add(CFA_XSP16, literal(-9)))
          CFI (cfiCond92) V6 load(1, XDATA, add(CFA_XSP16, literal(-8)))
          CFI (cfiCond92) V7 load(1, XDATA, add(CFA_XSP16, literal(-7)))
          CFI (cfiCond92) R7 load(1, XDATA, add(CFA_XSP16, literal(-6)))
          CFI (cfiCond92) ?RET_LOW load(1, XDATA, add(CFA_XSP16, literal(-5)))
          CFI (cfiCond92) ?RET_HIGH load(1, XDATA, add(CFA_XSP16, literal(-4)))
          CFI (cfiCond92) ?BRET_EXT load(1, XDATA, add(CFA_XSP16, literal(-3)))
          CFI (cfiCond92) DPL0 load(1, XDATA, add(CFA_XSP16, literal(-2)))
          CFI (cfiCond92) DPH0 load(1, XDATA, add(CFA_XSP16, literal(-1)))
          CFI (cfiCond92) CFA_SP SP+-2
          CFI (cfiCond92) CFA_XSP16 add(XSP16, 55)
          CFI Block cfiPicker93 Using cfiCommon1
          CFI (cfiPicker93) NoFunction
          CFI (cfiPicker93) Picker
        MOV       DPL,?XSP + 0
        MOV       DPH,?XSP + 1
          CFI EndBlock cfiCond90
          CFI EndBlock cfiCond91
          CFI EndBlock cfiCond92
          CFI EndBlock cfiPicker93
        REQUIRE ??Subroutine29_0
        ; // Fall through to label ??Subroutine29_0

        RSEG BANKED_CODE:HUGECODE:NOROOT(0)
??Subroutine29_0:
          CFI Block cfiCond94 Using cfiCommon0
          CFI Function osal_msg_send
          CFI Conditional ??CrossCallReturnLabel_51
          CFI R6 load(1, XDATA, add(CFA_XSP16, literal(-9)))
          CFI VB load(1, XDATA, add(CFA_XSP16, literal(-8)))
          CFI V0 load(1, XDATA, add(CFA_XSP16, literal(-7)))
          CFI R7 load(1, XDATA, add(CFA_XSP16, literal(-6)))
          CFI ?RET_LOW load(1, XDATA, add(CFA_XSP16, literal(-5)))
          CFI ?RET_HIGH load(1, XDATA, add(CFA_XSP16, literal(-4)))
          CFI ?BRET_EXT load(1, XDATA, add(CFA_XSP16, literal(-3)))
          CFI DPL0 load(1, XDATA, add(CFA_XSP16, literal(-2)))
          CFI DPH0 load(1, XDATA, add(CFA_XSP16, literal(-1)))
          CFI CFA_SP SP+-2
          CFI CFA_XSP16 add(XSP16, 9)
          CFI Block cfiCond95 Using cfiCommon0
          CFI (cfiCond95) Function osal_msg_receive
          CFI (cfiCond95) Conditional ??CrossCallReturnLabel_50
          CFI (cfiCond95) R6 load(1, XDATA, add(CFA_XSP16, literal(-12)))
          CFI (cfiCond95) VB load(1, XDATA, add(CFA_XSP16, literal(-11)))
          CFI (cfiCond95) V0 load(1, XDATA, add(CFA_XSP16, literal(-10)))
          CFI (cfiCond95) V1 load(1, XDATA, add(CFA_XSP16, literal(-9)))
          CFI (cfiCond95) V2 load(1, XDATA, add(CFA_XSP16, literal(-8)))
          CFI (cfiCond95) V3 load(1, XDATA, add(CFA_XSP16, literal(-7)))
          CFI (cfiCond95) R7 load(1, XDATA, add(CFA_XSP16, literal(-6)))
          CFI (cfiCond95) ?RET_LOW load(1, XDATA, add(CFA_XSP16, literal(-5)))
          CFI (cfiCond95) ?RET_HIGH load(1, XDATA, add(CFA_XSP16, literal(-4)))
          CFI (cfiCond95) ?BRET_EXT load(1, XDATA, add(CFA_XSP16, literal(-3)))
          CFI (cfiCond95) DPL0 load(1, XDATA, add(CFA_XSP16, literal(-2)))
          CFI (cfiCond95) DPH0 load(1, XDATA, add(CFA_XSP16, literal(-1)))
          CFI (cfiCond95) CFA_SP SP+-2
          CFI (cfiCond95) CFA_XSP16 add(XSP16, 12)
          CFI Block cfiCond96 Using cfiCommon0
          CFI (cfiCond96) Function osal_msg_enqueue
          CFI (cfiCond96) Conditional ??CrossCallReturnLabel_52
          CFI (cfiCond96) R6 load(1, XDATA, add(CFA_XSP16, literal(-9)))
          CFI (cfiCond96) VB load(1, XDATA, add(CFA_XSP16, literal(-8)))
          CFI (cfiCond96) V0 load(1, XDATA, add(CFA_XSP16, literal(-7)))
          CFI (cfiCond96) R7 load(1, XDATA, add(CFA_XSP16, literal(-6)))
          CFI (cfiCond96) ?RET_LOW load(1, XDATA, add(CFA_XSP16, literal(-5)))
          CFI (cfiCond96) ?RET_HIGH load(1, XDATA, add(CFA_XSP16, literal(-4)))
          CFI (cfiCond96) ?BRET_EXT load(1, XDATA, add(CFA_XSP16, literal(-3)))
          CFI (cfiCond96) DPL0 load(1, XDATA, add(CFA_XSP16, literal(-2)))
          CFI (cfiCond96) DPH0 load(1, XDATA, add(CFA_XSP16, literal(-1)))
          CFI (cfiCond96) CFA_SP SP+-2
          CFI (cfiCond96) CFA_XSP16 add(XSP16, 9)
          CFI Block cfiCond97 Using cfiCommon0
          CFI (cfiCond97) Function osal_msg_enqueue
          CFI (cfiCond97) Conditional ??CrossCallReturnLabel_53
          CFI (cfiCond97) R6 load(1, XDATA, add(CFA_XSP16, literal(-9)))
          CFI (cfiCond97) VB load(1, XDATA, add(CFA_XSP16, literal(-8)))
          CFI (cfiCond97) V0 load(1, XDATA, add(CFA_XSP16, literal(-7)))
          CFI (cfiCond97) R7 load(1, XDATA, add(CFA_XSP16, literal(-6)))
          CFI (cfiCond97) ?RET_LOW load(1, XDATA, add(CFA_XSP16, literal(-5)))
          CFI (cfiCond97) ?RET_HIGH load(1, XDATA, add(CFA_XSP16, literal(-4)))
          CFI (cfiCond97) ?BRET_EXT load(1, XDATA, add(CFA_XSP16, literal(-3)))
          CFI (cfiCond97) DPL0 load(1, XDATA, add(CFA_XSP16, literal(-2)))
          CFI (cfiCond97) DPH0 load(1, XDATA, add(CFA_XSP16, literal(-1)))
          CFI (cfiCond97) CFA_SP SP+-2
          CFI (cfiCond97) CFA_XSP16 add(XSP16, 9)
          CFI Block cfiCond98 Using cfiCommon0
          CFI (cfiCond98) Function osal_msg_dequeue
          CFI (cfiCond98) Conditional ??CrossCallReturnLabel_54
          CFI (cfiCond98) R6 load(1, XDATA, add(CFA_XSP16, literal(-10)))
          CFI (cfiCond98) VB load(1, XDATA, add(CFA_XSP16, literal(-9)))
          CFI (cfiCond98) V0 load(1, XDATA, add(CFA_XSP16, literal(-8)))
          CFI (cfiCond98) V1 load(1, XDATA, add(CFA_XSP16, literal(-7)))
          CFI (cfiCond98) R7 load(1, XDATA, add(CFA_XSP16, literal(-6)))
          CFI (cfiCond98) ?RET_LOW load(1, XDATA, add(CFA_XSP16, literal(-5)))
          CFI (cfiCond98) ?RET_HIGH load(1, XDATA, add(CFA_XSP16, literal(-4)))
          CFI (cfiCond98) ?BRET_EXT load(1, XDATA, add(CFA_XSP16, literal(-3)))
          CFI (cfiCond98) DPL0 load(1, XDATA, add(CFA_XSP16, literal(-2)))
          CFI (cfiCond98) DPH0 load(1, XDATA, add(CFA_XSP16, literal(-1)))
          CFI (cfiCond98) CFA_SP SP+-2
          CFI (cfiCond98) CFA_XSP16 add(XSP16, 10)
          CFI Block cfiCond99 Using cfiCommon0
          CFI (cfiCond99) Function osal_msg_enqueue_max
          CFI (cfiCond99) Conditional ??CrossCallReturnLabel_55
          CFI (cfiCond99) R6 load(1, XDATA, add(CFA_XSP16, literal(-10)))
          CFI (cfiCond99) VB load(1, XDATA, add(CFA_XSP16, literal(-9)))
          CFI (cfiCond99) V0 load(1, XDATA, add(CFA_XSP16, literal(-8)))
          CFI (cfiCond99) V1 load(1, XDATA, add(CFA_XSP16, literal(-7)))
          CFI (cfiCond99) R7 load(1, XDATA, add(CFA_XSP16, literal(-6)))
          CFI (cfiCond99) ?RET_LOW load(1, XDATA, add(CFA_XSP16, literal(-5)))
          CFI (cfiCond99) ?RET_HIGH load(1, XDATA, add(CFA_XSP16, literal(-4)))
          CFI (cfiCond99) ?BRET_EXT load(1, XDATA, add(CFA_XSP16, literal(-3)))
          CFI (cfiCond99) DPL0 load(1, XDATA, add(CFA_XSP16, literal(-2)))
          CFI (cfiCond99) DPH0 load(1, XDATA, add(CFA_XSP16, literal(-1)))
          CFI (cfiCond99) CFA_SP SP+-2
          CFI (cfiCond99) CFA_XSP16 add(XSP16, 10)
          CFI Block cfiCond100 Using cfiCommon0
          CFI (cfiCond100) Function osal_msg_enqueue_max
          CFI (cfiCond100) Conditional ??CrossCallReturnLabel_56
          CFI (cfiCond100) R6 load(1, XDATA, add(CFA_XSP16, literal(-10)))
          CFI (cfiCond100) VB load(1, XDATA, add(CFA_XSP16, literal(-9)))
          CFI (cfiCond100) V0 load(1, XDATA, add(CFA_XSP16, literal(-8)))
          CFI (cfiCond100) V1 load(1, XDATA, add(CFA_XSP16, literal(-7)))
          CFI (cfiCond100) R7 load(1, XDATA, add(CFA_XSP16, literal(-6)))
          CFI (cfiCond100) ?RET_LOW load(1, XDATA, add(CFA_XSP16, literal(-5)))
          CFI (cfiCond100) ?RET_HIGH load(1, XDATA, add(CFA_XSP16, literal(-4)))
          CFI (cfiCond100) ?BRET_EXT load(1, XDATA, add(CFA_XSP16, literal(-3)))
          CFI (cfiCond100) DPL0 load(1, XDATA, add(CFA_XSP16, literal(-2)))
          CFI (cfiCond100) DPH0 load(1, XDATA, add(CFA_XSP16, literal(-1)))
          CFI (cfiCond100) CFA_SP SP+-2
          CFI (cfiCond100) CFA_XSP16 add(XSP16, 10)
          CFI Block cfiCond101 Using cfiCommon0
          CFI (cfiCond101) Function osal_start_system
          CFI (cfiCond101) Conditional ??CrossCallReturnLabel_57
          CFI (cfiCond101) R6 load(1, XDATA, add(CFA_XSP16, literal(-10)))
          CFI (cfiCond101) VB load(1, XDATA, add(CFA_XSP16, literal(-9)))
          CFI (cfiCond101) V0 load(1, XDATA, add(CFA_XSP16, literal(-8)))
          CFI (cfiCond101) V1 load(1, XDATA, add(CFA_XSP16, literal(-7)))
          CFI (cfiCond101) R7 load(1, XDATA, add(CFA_XSP16, literal(-6)))
          CFI (cfiCond101) ?RET_LOW load(1, XDATA, add(CFA_XSP16, literal(-5)))
          CFI (cfiCond101) ?RET_HIGH load(1, XDATA, add(CFA_XSP16, literal(-4)))
          CFI (cfiCond101) ?BRET_EXT load(1, XDATA, add(CFA_XSP16, literal(-3)))
          CFI (cfiCond101) DPL0 load(1, XDATA, add(CFA_XSP16, literal(-2)))
          CFI (cfiCond101) DPH0 load(1, XDATA, add(CFA_XSP16, literal(-1)))
          CFI (cfiCond101) CFA_SP SP+-2
          CFI (cfiCond101) CFA_XSP16 add(XSP16, 10)
          CFI Block cfiCond102 Using cfiCommon0
          CFI (cfiCond102) Function _ltoa
          CFI (cfiCond102) Conditional ??CrossCallReturnLabel_58
          CFI (cfiCond102) R6 load(1, XDATA, add(CFA_XSP16, literal(-16)))
          CFI (cfiCond102) VB load(1, XDATA, add(CFA_XSP16, literal(-15)))
          CFI (cfiCond102) V0 load(1, XDATA, add(CFA_XSP16, literal(-14)))
          CFI (cfiCond102) V1 load(1, XDATA, add(CFA_XSP16, literal(-13)))
          CFI (cfiCond102) V2 load(1, XDATA, add(CFA_XSP16, literal(-12)))
          CFI (cfiCond102) V3 load(1, XDATA, add(CFA_XSP16, literal(-11)))
          CFI (cfiCond102) V4 load(1, XDATA, add(CFA_XSP16, literal(-10)))
          CFI (cfiCond102) V5 load(1, XDATA, add(CFA_XSP16, literal(-9)))
          CFI (cfiCond102) V6 load(1, XDATA, add(CFA_XSP16, literal(-8)))
          CFI (cfiCond102) V7 load(1, XDATA, add(CFA_XSP16, literal(-7)))
          CFI (cfiCond102) R7 load(1, XDATA, add(CFA_XSP16, literal(-6)))
          CFI (cfiCond102) ?RET_LOW load(1, XDATA, add(CFA_XSP16, literal(-5)))
          CFI (cfiCond102) ?RET_HIGH load(1, XDATA, add(CFA_XSP16, literal(-4)))
          CFI (cfiCond102) ?BRET_EXT load(1, XDATA, add(CFA_XSP16, literal(-3)))
          CFI (cfiCond102) DPL0 load(1, XDATA, add(CFA_XSP16, literal(-2)))
          CFI (cfiCond102) DPH0 load(1, XDATA, add(CFA_XSP16, literal(-1)))
          CFI (cfiCond102) CFA_SP SP+-2
          CFI (cfiCond102) CFA_XSP16 add(XSP16, 55)
          CFI Block cfiCond103 Using cfiCommon0
          CFI (cfiCond103) Function _ltoa
          CFI (cfiCond103) Conditional ??CrossCallReturnLabel_59
          CFI (cfiCond103) R6 load(1, XDATA, add(CFA_XSP16, literal(-16)))
          CFI (cfiCond103) VB load(1, XDATA, add(CFA_XSP16, literal(-15)))
          CFI (cfiCond103) V0 load(1, XDATA, add(CFA_XSP16, literal(-14)))
          CFI (cfiCond103) V1 load(1, XDATA, add(CFA_XSP16, literal(-13)))
          CFI (cfiCond103) V2 load(1, XDATA, add(CFA_XSP16, literal(-12)))
          CFI (cfiCond103) V3 load(1, XDATA, add(CFA_XSP16, literal(-11)))
          CFI (cfiCond103) V4 load(1, XDATA, add(CFA_XSP16, literal(-10)))
          CFI (cfiCond103) V5 load(1, XDATA, add(CFA_XSP16, literal(-9)))
          CFI (cfiCond103) V6 load(1, XDATA, add(CFA_XSP16, literal(-8)))
          CFI (cfiCond103) V7 load(1, XDATA, add(CFA_XSP16, literal(-7)))
          CFI (cfiCond103) R7 load(1, XDATA, add(CFA_XSP16, literal(-6)))
          CFI (cfiCond103) ?RET_LOW load(1, XDATA, add(CFA_XSP16, literal(-5)))
          CFI (cfiCond103) ?RET_HIGH load(1, XDATA, add(CFA_XSP16, literal(-4)))
          CFI (cfiCond103) ?BRET_EXT load(1, XDATA, add(CFA_XSP16, literal(-3)))
          CFI (cfiCond103) DPL0 load(1, XDATA, add(CFA_XSP16, literal(-2)))
          CFI (cfiCond103) DPH0 load(1, XDATA, add(CFA_XSP16, literal(-1)))
          CFI (cfiCond103) CFA_SP SP+-2
          CFI (cfiCond103) CFA_XSP16 add(XSP16, 55)
          CFI Block cfiCond104 Using cfiCommon0
          CFI (cfiCond104) Function _ltoa
          CFI (cfiCond104) Conditional ??CrossCallReturnLabel_60
          CFI (cfiCond104) R6 load(1, XDATA, add(CFA_XSP16, literal(-16)))
          CFI (cfiCond104) VB load(1, XDATA, add(CFA_XSP16, literal(-15)))
          CFI (cfiCond104) V0 load(1, XDATA, add(CFA_XSP16, literal(-14)))
          CFI (cfiCond104) V1 load(1, XDATA, add(CFA_XSP16, literal(-13)))
          CFI (cfiCond104) V2 load(1, XDATA, add(CFA_XSP16, literal(-12)))
          CFI (cfiCond104) V3 load(1, XDATA, add(CFA_XSP16, literal(-11)))
          CFI (cfiCond104) V4 load(1, XDATA, add(CFA_XSP16, literal(-10)))
          CFI (cfiCond104) V5 load(1, XDATA, add(CFA_XSP16, literal(-9)))
          CFI (cfiCond104) V6 load(1, XDATA, add(CFA_XSP16, literal(-8)))
          CFI (cfiCond104) V7 load(1, XDATA, add(CFA_XSP16, literal(-7)))
          CFI (cfiCond104) R7 load(1, XDATA, add(CFA_XSP16, literal(-6)))
          CFI (cfiCond104) ?RET_LOW load(1, XDATA, add(CFA_XSP16, literal(-5)))
          CFI (cfiCond104) ?RET_HIGH load(1, XDATA, add(CFA_XSP16, literal(-4)))
          CFI (cfiCond104) ?BRET_EXT load(1, XDATA, add(CFA_XSP16, literal(-3)))
          CFI (cfiCond104) DPL0 load(1, XDATA, add(CFA_XSP16, literal(-2)))
          CFI (cfiCond104) DPH0 load(1, XDATA, add(CFA_XSP16, literal(-1)))
          CFI (cfiCond104) CFA_SP SP+-2
          CFI (cfiCond104) CFA_XSP16 add(XSP16, 55)
          CFI Block cfiPicker105 Using cfiCommon1
          CFI (cfiPicker105) NoFunction
          CFI (cfiPicker105) Picker
        MOVX      A,@DPTR
        MOV       R0,A
        INC       DPTR
        MOVX      A,@DPTR
        MOV       R1,A
        MOV       A,R0
        ORL       A,R1
        RET
          CFI EndBlock cfiCond94
          CFI EndBlock cfiCond95
          CFI EndBlock cfiCond96
          CFI EndBlock cfiCond97
          CFI EndBlock cfiCond98
          CFI EndBlock cfiCond99
          CFI EndBlock cfiCond100
          CFI EndBlock cfiCond101
          CFI EndBlock cfiCond102
          CFI EndBlock cfiCond103
          CFI EndBlock cfiCond104
          CFI EndBlock cfiPicker105
//  704 
//  705 /*********************************************************************
//  706  * @fn      osal_msg_push
//  707  *
//  708  * @brief
//  709  *
//  710  *    This function pushes an OSAL message to the head of an OSAL
//  711  *    queue.
//  712  *
//  713  * @param   osal_msg_q_t *q_ptr - OSAL queue
//  714  * @param   void *msg_ptr  - OSAL message
//  715  *
//  716  * @return  none
//  717  */

        RSEG BANKED_CODE:HUGECODE:NOROOT(0)
//  718 void osal_msg_push( osal_msg_q_t *q_ptr, void *msg_ptr )
osal_msg_push:
          CFI Block cfiBlock106 Using cfiCommon0
          CFI Function osal_msg_push
        CODE
//  719 {
        MOV       A,#-0x9
        LCALL     ?BANKED_ENTER_XDATA
          CFI DPH0 load(1, XDATA, add(CFA_XSP16, literal(-1)))
          CFI DPL0 load(1, XDATA, add(CFA_XSP16, literal(-2)))
          CFI ?BRET_EXT load(1, XDATA, add(CFA_XSP16, literal(-3)))
          CFI ?RET_HIGH load(1, XDATA, add(CFA_XSP16, literal(-4)))
          CFI ?RET_LOW load(1, XDATA, add(CFA_XSP16, literal(-5)))
          CFI R7 load(1, XDATA, add(CFA_XSP16, literal(-6)))
          CFI V0 load(1, XDATA, add(CFA_XSP16, literal(-7)))
          CFI VB load(1, XDATA, add(CFA_XSP16, literal(-8)))
          CFI R6 load(1, XDATA, add(CFA_XSP16, literal(-9)))
          CFI CFA_SP SP+0
          CFI CFA_XSP16 add(XSP16, 9)
        ; Saved register size: 9
        ; Auto size: 0
//  720   halIntState_t intState;
//  721 
//  722   // Hold off interrupts
//  723   HAL_ENTER_CRITICAL_SECTION(intState);
        MOV       R0,0xa8+0x0
        CLR       0xa8.7
//  724 
//  725   // Push message to head of queue
//  726   OSAL_MSG_NEXT( msg_ptr ) = *q_ptr;
        MOV       DPL,R2
        MOV       DPH,R3
        MOVX      A,@DPTR
        MOV       R6,A
        INC       DPTR
        MOVX      A,@DPTR
        MOV       R7,A
        MOV       A,R4
        ADD       A,#-0x5
        MOV       DPL,A
        MOV       A,R5
        LCALL     ??Subroutine31_0 & 0xFFFF
??CrossCallReturnLabel_64:
        LCALL     ?Subroutine23 & 0xFFFF
//  727   *q_ptr = msg_ptr;
??CrossCallReturnLabel_39:
        MOV       A,R4
        MOVX      @DPTR,A
        INC       DPTR
        MOV       A,R5
        MOVX      @DPTR,A
//  728 
//  729   // Re-enable interrupts
//  730   HAL_EXIT_CRITICAL_SECTION(intState);
        MOV       A,R0
        MOV       C,0xE0 /* A   */.7
        LJMP      ?Subroutine5 & 0xFFFF
          CFI EndBlock cfiBlock106
        REQUIRE _A_IEN0
//  731 }

        RSEG BANKED_CODE:HUGECODE:NOROOT(0)
?Subroutine23:
          CFI Block cfiCond107 Using cfiCommon0
          CFI Function osal_msg_allocate
          CFI Conditional ??CrossCallReturnLabel_38
          CFI R6 load(1, XDATA, add(CFA_XSP16, literal(-10)))
          CFI VB load(1, XDATA, add(CFA_XSP16, literal(-9)))
          CFI V0 load(1, XDATA, add(CFA_XSP16, literal(-8)))
          CFI V1 load(1, XDATA, add(CFA_XSP16, literal(-7)))
          CFI R7 load(1, XDATA, add(CFA_XSP16, literal(-6)))
          CFI ?RET_LOW load(1, XDATA, add(CFA_XSP16, literal(-5)))
          CFI ?RET_HIGH load(1, XDATA, add(CFA_XSP16, literal(-4)))
          CFI ?BRET_EXT load(1, XDATA, add(CFA_XSP16, literal(-3)))
          CFI DPL0 load(1, XDATA, add(CFA_XSP16, literal(-2)))
          CFI DPH0 load(1, XDATA, add(CFA_XSP16, literal(-1)))
          CFI CFA_SP SP+-2
          CFI CFA_XSP16 add(XSP16, 10)
          CFI Block cfiCond108 Using cfiCommon0
          CFI (cfiCond108) Function osal_msg_push
          CFI (cfiCond108) Conditional ??CrossCallReturnLabel_39
          CFI (cfiCond108) R6 load(1, XDATA, add(CFA_XSP16, literal(-9)))
          CFI (cfiCond108) VB load(1, XDATA, add(CFA_XSP16, literal(-8)))
          CFI (cfiCond108) V0 load(1, XDATA, add(CFA_XSP16, literal(-7)))
          CFI (cfiCond108) R7 load(1, XDATA, add(CFA_XSP16, literal(-6)))
          CFI (cfiCond108) ?RET_LOW load(1, XDATA, add(CFA_XSP16, literal(-5)))
          CFI (cfiCond108) ?RET_HIGH load(1, XDATA, add(CFA_XSP16, literal(-4)))
          CFI (cfiCond108) ?BRET_EXT load(1, XDATA, add(CFA_XSP16, literal(-3)))
          CFI (cfiCond108) DPL0 load(1, XDATA, add(CFA_XSP16, literal(-2)))
          CFI (cfiCond108) DPH0 load(1, XDATA, add(CFA_XSP16, literal(-1)))
          CFI (cfiCond108) CFA_SP SP+-2
          CFI (cfiCond108) CFA_XSP16 add(XSP16, 9)
          CFI Block cfiPicker109 Using cfiCommon1
          CFI (cfiPicker109) NoFunction
          CFI (cfiPicker109) Picker
        MOV       A,R6
        MOVX      @DPTR,A
        INC       DPTR
        MOV       A,R7
        MOVX      @DPTR,A
        MOV       DPL,R2
        MOV       DPH,R3
        RET
          CFI EndBlock cfiCond107
          CFI EndBlock cfiCond108
          CFI EndBlock cfiPicker109
//  732 
//  733 /*********************************************************************
//  734  * @fn      osal_msg_extract
//  735  *
//  736  * @brief
//  737  *
//  738  *    This function extracts and removes an OSAL message from the
//  739  *    middle of an OSAL queue.
//  740  *
//  741  * @param   osal_msg_q_t *q_ptr - OSAL queue
//  742  * @param   void *msg_ptr  - OSAL message to be extracted
//  743  * @param   void *prev_ptr  - OSAL message before msg_ptr in queue
//  744  *
//  745  * @return  none
//  746  */

        RSEG BANKED_CODE:HUGECODE:NOROOT(0)
//  747 void osal_msg_extract( osal_msg_q_t *q_ptr, void *msg_ptr, void *prev_ptr )
osal_msg_extract:
          CFI Block cfiBlock110 Using cfiCommon0
          CFI Function osal_msg_extract
        CODE
//  748 {
        REQUIRE ?V0
        REQUIRE ?V1
        REQUIRE ?V2
        REQUIRE ?V3
        MOV       A,#-0xc
        LCALL     ?BANKED_ENTER_XDATA
          CFI DPH0 load(1, XDATA, add(CFA_XSP16, literal(-1)))
          CFI DPL0 load(1, XDATA, add(CFA_XSP16, literal(-2)))
          CFI ?BRET_EXT load(1, XDATA, add(CFA_XSP16, literal(-3)))
          CFI ?RET_HIGH load(1, XDATA, add(CFA_XSP16, literal(-4)))
          CFI ?RET_LOW load(1, XDATA, add(CFA_XSP16, literal(-5)))
          CFI R7 load(1, XDATA, add(CFA_XSP16, literal(-6)))
          CFI V3 load(1, XDATA, add(CFA_XSP16, literal(-7)))
          CFI V2 load(1, XDATA, add(CFA_XSP16, literal(-8)))
          CFI V1 load(1, XDATA, add(CFA_XSP16, literal(-9)))
          CFI V0 load(1, XDATA, add(CFA_XSP16, literal(-10)))
          CFI VB load(1, XDATA, add(CFA_XSP16, literal(-11)))
          CFI R6 load(1, XDATA, add(CFA_XSP16, literal(-12)))
          CFI CFA_SP SP+0
          CFI CFA_XSP16 add(XSP16, 12)
        ; Saved register size: 12
        ; Auto size: 0
//  749   halIntState_t intState;
//  750 
//  751   // Hold off interrupts
//  752   HAL_ENTER_CRITICAL_SECTION(intState);
        MOV       C,0xa8.7
        CLR       A
        RLC       A
        MOV       R6,A
        CLR       0xa8.7
//  753 
//  754   if ( msg_ptr == *q_ptr )
        MOV       A,R4
        ADD       A,#-0x5
        MOV       R0,A
        MOV       A,R5
        LCALL     ?Subroutine21 & 0xFFFF
??CrossCallReturnLabel_34:
        MOVX      A,@DPTR
        MOV       R0,A
        INC       DPTR
        MOVX      A,@DPTR
        MOV       R1,A
        MOV       DPL,R2
        MOV       DPH,R3
        MOVX      A,@DPTR
        MOV       ?V2,A
        INC       DPTR
        MOVX      A,@DPTR
        MOV       ?V3,A
        MOV       A,R4
        XRL       A,?V2
        JNZ       ??osal_msg_extract_0
        MOV       A,R5
        XRL       A,?V3
??osal_msg_extract_0:
        JNZ       ??osal_msg_extract_1
//  755   {
//  756     // remove from first
//  757     *q_ptr = OSAL_MSG_NEXT( msg_ptr );
        MOV       DPL,R2
        MOV       DPH,R3
        SJMP      ??CrossCallReturnLabel_65
//  758   }
//  759   else
//  760   {
//  761     // remove from middle
//  762     OSAL_MSG_NEXT( prev_ptr ) = OSAL_MSG_NEXT( msg_ptr );
??osal_msg_extract_1:
        MOV       A,#0xc
        LCALL     ?XSTACK_DISP0_8
        MOVX      A,@DPTR
        MOV       R2,A
        INC       DPTR
        MOVX      A,@DPTR
        XCH       A,R2
        ADD       A,#-0x5
        MOV       DPL,A
        MOV       A,R2
        LCALL     ??Subroutine31_0 & 0xFFFF
//  763   }
??CrossCallReturnLabel_65:
        MOV       A,R0
        MOVX      @DPTR,A
        INC       DPTR
        MOV       A,R1
        MOVX      @DPTR,A
//  764   OSAL_MSG_NEXT( msg_ptr ) = NULL;
        MOV       DPL,?V0
        MOV       DPH,?V1
        CLR       A
        MOVX      @DPTR,A
        INC       DPTR
        MOVX      @DPTR,A
//  765   OSAL_MSG_ID( msg_ptr ) = TASK_NO_TASK;
        MOV       A,R4
        ADD       A,#-0x1
        MOV       DPL,A
        MOV       A,R5
        LCALL     ??Subroutine31_0 & 0xFFFF
??CrossCallReturnLabel_66:
        MOV       A,#-0x1
        MOVX      @DPTR,A
//  766 
//  767   // Re-enable interrupts
//  768   HAL_EXIT_CRITICAL_SECTION(intState);
        MOV       A,R6
        MOV       C,0xE0 /* A   */.0
        MOV       0xa8.7,C
//  769 }
        LJMP      ?Subroutine4 & 0xFFFF
          CFI EndBlock cfiBlock110
        REQUIRE _A_IEN0

        RSEG BANKED_CODE:HUGECODE:NOROOT(0)
?Subroutine20:
          CFI Block cfiCond111 Using cfiCommon0
          CFI Function osal_msg_send
          CFI Conditional ??CrossCallReturnLabel_69
          CFI R6 load(1, XDATA, add(CFA_XSP16, literal(-9)))
          CFI VB load(1, XDATA, add(CFA_XSP16, literal(-8)))
          CFI V0 load(1, XDATA, add(CFA_XSP16, literal(-7)))
          CFI R7 load(1, XDATA, add(CFA_XSP16, literal(-6)))
          CFI ?RET_LOW load(1, XDATA, add(CFA_XSP16, literal(-5)))
          CFI ?RET_HIGH load(1, XDATA, add(CFA_XSP16, literal(-4)))
          CFI ?BRET_EXT load(1, XDATA, add(CFA_XSP16, literal(-3)))
          CFI DPL0 load(1, XDATA, add(CFA_XSP16, literal(-2)))
          CFI DPH0 load(1, XDATA, add(CFA_XSP16, literal(-1)))
          CFI CFA_SP SP+-2
          CFI CFA_XSP16 add(XSP16, 9)
          CFI Block cfiCond112 Using cfiCommon0
          CFI (cfiCond112) Function osal_msg_find
          CFI (cfiCond112) Conditional ??CrossCallReturnLabel_70
          CFI (cfiCond112) DPL0 Frame(CFA_SP, 4)
          CFI (cfiCond112) DPH0 Frame(CFA_SP, 5)
          CFI (cfiCond112) CFA_SP SP+-7
          CFI Block cfiPicker113 Using cfiCommon1
          CFI (cfiPicker113) NoFunction
          CFI (cfiPicker113) Picker
        MOV       A,R2
        ADD       A,#-0x5
          CFI EndBlock cfiCond111
          CFI EndBlock cfiCond112
          CFI EndBlock cfiPicker113
        REQUIRE ??Subroutine30_0
        ; // Fall through to label ??Subroutine30_0

        RSEG BANKED_CODE:HUGECODE:NOROOT(0)
??Subroutine30_0:
          CFI Block cfiCond114 Using cfiCommon0
          CFI Function osal_msg_find
          CFI Conditional ??CrossCallReturnLabel_67
          CFI DPL0 Frame(CFA_SP, 4)
          CFI DPH0 Frame(CFA_SP, 5)
          CFI CFA_SP SP+-7
          CFI Block cfiCond115 Using cfiCommon0
          CFI (cfiCond115) Function osal_msg_dequeue
          CFI (cfiCond115) Conditional ??CrossCallReturnLabel_68
          CFI (cfiCond115) R6 load(1, XDATA, add(CFA_XSP16, literal(-10)))
          CFI (cfiCond115) VB load(1, XDATA, add(CFA_XSP16, literal(-9)))
          CFI (cfiCond115) V0 load(1, XDATA, add(CFA_XSP16, literal(-8)))
          CFI (cfiCond115) V1 load(1, XDATA, add(CFA_XSP16, literal(-7)))
          CFI (cfiCond115) R7 load(1, XDATA, add(CFA_XSP16, literal(-6)))
          CFI (cfiCond115) ?RET_LOW load(1, XDATA, add(CFA_XSP16, literal(-5)))
          CFI (cfiCond115) ?RET_HIGH load(1, XDATA, add(CFA_XSP16, literal(-4)))
          CFI (cfiCond115) ?BRET_EXT load(1, XDATA, add(CFA_XSP16, literal(-3)))
          CFI (cfiCond115) DPL0 load(1, XDATA, add(CFA_XSP16, literal(-2)))
          CFI (cfiCond115) DPH0 load(1, XDATA, add(CFA_XSP16, literal(-1)))
          CFI (cfiCond115) CFA_SP SP+-2
          CFI (cfiCond115) CFA_XSP16 add(XSP16, 10)
          CFI Block cfiCond116 Using cfiCommon0
          CFI (cfiCond116) Function osal_msg_send
          CFI (cfiCond116) Conditional ??CrossCallReturnLabel_69
          CFI (cfiCond116) R6 load(1, XDATA, add(CFA_XSP16, literal(-9)))
          CFI (cfiCond116) VB load(1, XDATA, add(CFA_XSP16, literal(-8)))
          CFI (cfiCond116) V0 load(1, XDATA, add(CFA_XSP16, literal(-7)))
          CFI (cfiCond116) R7 load(1, XDATA, add(CFA_XSP16, literal(-6)))
          CFI (cfiCond116) ?RET_LOW load(1, XDATA, add(CFA_XSP16, literal(-5)))
          CFI (cfiCond116) ?RET_HIGH load(1, XDATA, add(CFA_XSP16, literal(-4)))
          CFI (cfiCond116) ?BRET_EXT load(1, XDATA, add(CFA_XSP16, literal(-3)))
          CFI (cfiCond116) DPL0 load(1, XDATA, add(CFA_XSP16, literal(-2)))
          CFI (cfiCond116) DPH0 load(1, XDATA, add(CFA_XSP16, literal(-1)))
          CFI (cfiCond116) CFA_SP SP+-2
          CFI (cfiCond116) CFA_XSP16 add(XSP16, 9)
          CFI Block cfiCond117 Using cfiCommon0
          CFI (cfiCond117) Function osal_msg_find
          CFI (cfiCond117) Conditional ??CrossCallReturnLabel_70
          CFI (cfiCond117) DPL0 Frame(CFA_SP, 4)
          CFI (cfiCond117) DPH0 Frame(CFA_SP, 5)
          CFI (cfiCond117) CFA_SP SP+-7
          CFI Block cfiPicker118 Using cfiCommon1
          CFI (cfiPicker118) NoFunction
          CFI (cfiPicker118) Picker
        MOV       DPL,A
        MOV       A,R3
          CFI EndBlock cfiCond114
          CFI EndBlock cfiCond115
          CFI EndBlock cfiCond116
          CFI EndBlock cfiCond117
          CFI EndBlock cfiPicker118
        REQUIRE ??Subroutine31_0
        ; // Fall through to label ??Subroutine31_0

        RSEG BANKED_CODE:HUGECODE:NOROOT(0)
??Subroutine31_0:
          CFI Block cfiCond119 Using cfiCommon0
          CFI Function osal_msg_receive
          CFI Conditional ??CrossCallReturnLabel_61
          CFI R6 load(1, XDATA, add(CFA_XSP16, literal(-12)))
          CFI VB load(1, XDATA, add(CFA_XSP16, literal(-11)))
          CFI V0 load(1, XDATA, add(CFA_XSP16, literal(-10)))
          CFI V1 load(1, XDATA, add(CFA_XSP16, literal(-9)))
          CFI V2 load(1, XDATA, add(CFA_XSP16, literal(-8)))
          CFI V3 load(1, XDATA, add(CFA_XSP16, literal(-7)))
          CFI R7 load(1, XDATA, add(CFA_XSP16, literal(-6)))
          CFI ?RET_LOW load(1, XDATA, add(CFA_XSP16, literal(-5)))
          CFI ?RET_HIGH load(1, XDATA, add(CFA_XSP16, literal(-4)))
          CFI ?BRET_EXT load(1, XDATA, add(CFA_XSP16, literal(-3)))
          CFI DPL0 load(1, XDATA, add(CFA_XSP16, literal(-2)))
          CFI DPH0 load(1, XDATA, add(CFA_XSP16, literal(-1)))
          CFI CFA_SP SP+-2
          CFI CFA_XSP16 add(XSP16, 12)
          CFI Block cfiCond120 Using cfiCommon0
          CFI (cfiCond120) Function osal_msg_receive
          CFI (cfiCond120) Conditional ??CrossCallReturnLabel_62
          CFI (cfiCond120) R6 load(1, XDATA, add(CFA_XSP16, literal(-12)))
          CFI (cfiCond120) VB load(1, XDATA, add(CFA_XSP16, literal(-11)))
          CFI (cfiCond120) V0 load(1, XDATA, add(CFA_XSP16, literal(-10)))
          CFI (cfiCond120) V1 load(1, XDATA, add(CFA_XSP16, literal(-9)))
          CFI (cfiCond120) V2 load(1, XDATA, add(CFA_XSP16, literal(-8)))
          CFI (cfiCond120) V3 load(1, XDATA, add(CFA_XSP16, literal(-7)))
          CFI (cfiCond120) R7 load(1, XDATA, add(CFA_XSP16, literal(-6)))
          CFI (cfiCond120) ?RET_LOW load(1, XDATA, add(CFA_XSP16, literal(-5)))
          CFI (cfiCond120) ?RET_HIGH load(1, XDATA, add(CFA_XSP16, literal(-4)))
          CFI (cfiCond120) ?BRET_EXT load(1, XDATA, add(CFA_XSP16, literal(-3)))
          CFI (cfiCond120) DPL0 load(1, XDATA, add(CFA_XSP16, literal(-2)))
          CFI (cfiCond120) DPH0 load(1, XDATA, add(CFA_XSP16, literal(-1)))
          CFI (cfiCond120) CFA_SP SP+-2
          CFI (cfiCond120) CFA_XSP16 add(XSP16, 12)
          CFI Block cfiCond121 Using cfiCommon0
          CFI (cfiCond121) Function osal_msg_enqueue
          CFI (cfiCond121) Conditional ??CrossCallReturnLabel_63
          CFI (cfiCond121) R6 load(1, XDATA, add(CFA_XSP16, literal(-9)))
          CFI (cfiCond121) VB load(1, XDATA, add(CFA_XSP16, literal(-8)))
          CFI (cfiCond121) V0 load(1, XDATA, add(CFA_XSP16, literal(-7)))
          CFI (cfiCond121) R7 load(1, XDATA, add(CFA_XSP16, literal(-6)))
          CFI (cfiCond121) ?RET_LOW load(1, XDATA, add(CFA_XSP16, literal(-5)))
          CFI (cfiCond121) ?RET_HIGH load(1, XDATA, add(CFA_XSP16, literal(-4)))
          CFI (cfiCond121) ?BRET_EXT load(1, XDATA, add(CFA_XSP16, literal(-3)))
          CFI (cfiCond121) DPL0 load(1, XDATA, add(CFA_XSP16, literal(-2)))
          CFI (cfiCond121) DPH0 load(1, XDATA, add(CFA_XSP16, literal(-1)))
          CFI (cfiCond121) CFA_SP SP+-2
          CFI (cfiCond121) CFA_XSP16 add(XSP16, 9)
          CFI Block cfiCond122 Using cfiCommon0
          CFI (cfiCond122) Function osal_msg_push
          CFI (cfiCond122) Conditional ??CrossCallReturnLabel_64
          CFI (cfiCond122) R6 load(1, XDATA, add(CFA_XSP16, literal(-9)))
          CFI (cfiCond122) VB load(1, XDATA, add(CFA_XSP16, literal(-8)))
          CFI (cfiCond122) V0 load(1, XDATA, add(CFA_XSP16, literal(-7)))
          CFI (cfiCond122) R7 load(1, XDATA, add(CFA_XSP16, literal(-6)))
          CFI (cfiCond122) ?RET_LOW load(1, XDATA, add(CFA_XSP16, literal(-5)))
          CFI (cfiCond122) ?RET_HIGH load(1, XDATA, add(CFA_XSP16, literal(-4)))
          CFI (cfiCond122) ?BRET_EXT load(1, XDATA, add(CFA_XSP16, literal(-3)))
          CFI (cfiCond122) DPL0 load(1, XDATA, add(CFA_XSP16, literal(-2)))
          CFI (cfiCond122) DPH0 load(1, XDATA, add(CFA_XSP16, literal(-1)))
          CFI (cfiCond122) CFA_SP SP+-2
          CFI (cfiCond122) CFA_XSP16 add(XSP16, 9)
          CFI Block cfiCond123 Using cfiCommon0
          CFI (cfiCond123) Function osal_msg_extract
          CFI (cfiCond123) Conditional ??CrossCallReturnLabel_65
          CFI (cfiCond123) R6 load(1, XDATA, add(CFA_XSP16, literal(-12)))
          CFI (cfiCond123) VB load(1, XDATA, add(CFA_XSP16, literal(-11)))
          CFI (cfiCond123) V0 load(1, XDATA, add(CFA_XSP16, literal(-10)))
          CFI (cfiCond123) V1 load(1, XDATA, add(CFA_XSP16, literal(-9)))
          CFI (cfiCond123) V2 load(1, XDATA, add(CFA_XSP16, literal(-8)))
          CFI (cfiCond123) V3 load(1, XDATA, add(CFA_XSP16, literal(-7)))
          CFI (cfiCond123) R7 load(1, XDATA, add(CFA_XSP16, literal(-6)))
          CFI (cfiCond123) ?RET_LOW load(1, XDATA, add(CFA_XSP16, literal(-5)))
          CFI (cfiCond123) ?RET_HIGH load(1, XDATA, add(CFA_XSP16, literal(-4)))
          CFI (cfiCond123) ?BRET_EXT load(1, XDATA, add(CFA_XSP16, literal(-3)))
          CFI (cfiCond123) DPL0 load(1, XDATA, add(CFA_XSP16, literal(-2)))
          CFI (cfiCond123) DPH0 load(1, XDATA, add(CFA_XSP16, literal(-1)))
          CFI (cfiCond123) CFA_SP SP+-2
          CFI (cfiCond123) CFA_XSP16 add(XSP16, 12)
          CFI Block cfiCond124 Using cfiCommon0
          CFI (cfiCond124) Function osal_msg_extract
          CFI (cfiCond124) Conditional ??CrossCallReturnLabel_66
          CFI (cfiCond124) R6 load(1, XDATA, add(CFA_XSP16, literal(-12)))
          CFI (cfiCond124) VB load(1, XDATA, add(CFA_XSP16, literal(-11)))
          CFI (cfiCond124) V0 load(1, XDATA, add(CFA_XSP16, literal(-10)))
          CFI (cfiCond124) V1 load(1, XDATA, add(CFA_XSP16, literal(-9)))
          CFI (cfiCond124) V2 load(1, XDATA, add(CFA_XSP16, literal(-8)))
          CFI (cfiCond124) V3 load(1, XDATA, add(CFA_XSP16, literal(-7)))
          CFI (cfiCond124) R7 load(1, XDATA, add(CFA_XSP16, literal(-6)))
          CFI (cfiCond124) ?RET_LOW load(1, XDATA, add(CFA_XSP16, literal(-5)))
          CFI (cfiCond124) ?RET_HIGH load(1, XDATA, add(CFA_XSP16, literal(-4)))
          CFI (cfiCond124) ?BRET_EXT load(1, XDATA, add(CFA_XSP16, literal(-3)))
          CFI (cfiCond124) DPL0 load(1, XDATA, add(CFA_XSP16, literal(-2)))
          CFI (cfiCond124) DPH0 load(1, XDATA, add(CFA_XSP16, literal(-1)))
          CFI (cfiCond124) CFA_SP SP+-2
          CFI (cfiCond124) CFA_XSP16 add(XSP16, 12)
          CFI Block cfiCond125 Using cfiCommon0
          CFI (cfiCond125) Function osal_msg_find
          CFI (cfiCond125) Conditional ??CrossCallReturnLabel_67
          CFI (cfiCond125) DPL0 Frame(CFA_SP, 4)
          CFI (cfiCond125) DPH0 Frame(CFA_SP, 5)
          CFI (cfiCond125) CFA_SP SP+-7
          CFI Block cfiCond126 Using cfiCommon0
          CFI (cfiCond126) Function osal_msg_dequeue
          CFI (cfiCond126) Conditional ??CrossCallReturnLabel_68
          CFI (cfiCond126) R6 load(1, XDATA, add(CFA_XSP16, literal(-10)))
          CFI (cfiCond126) VB load(1, XDATA, add(CFA_XSP16, literal(-9)))
          CFI (cfiCond126) V0 load(1, XDATA, add(CFA_XSP16, literal(-8)))
          CFI (cfiCond126) V1 load(1, XDATA, add(CFA_XSP16, literal(-7)))
          CFI (cfiCond126) R7 load(1, XDATA, add(CFA_XSP16, literal(-6)))
          CFI (cfiCond126) ?RET_LOW load(1, XDATA, add(CFA_XSP16, literal(-5)))
          CFI (cfiCond126) ?RET_HIGH load(1, XDATA, add(CFA_XSP16, literal(-4)))
          CFI (cfiCond126) ?BRET_EXT load(1, XDATA, add(CFA_XSP16, literal(-3)))
          CFI (cfiCond126) DPL0 load(1, XDATA, add(CFA_XSP16, literal(-2)))
          CFI (cfiCond126) DPH0 load(1, XDATA, add(CFA_XSP16, literal(-1)))
          CFI (cfiCond126) CFA_SP SP+-2
          CFI (cfiCond126) CFA_XSP16 add(XSP16, 10)
          CFI Block cfiCond127 Using cfiCommon0
          CFI (cfiCond127) Function osal_msg_send
          CFI (cfiCond127) Conditional ??CrossCallReturnLabel_69
          CFI (cfiCond127) R6 load(1, XDATA, add(CFA_XSP16, literal(-9)))
          CFI (cfiCond127) VB load(1, XDATA, add(CFA_XSP16, literal(-8)))
          CFI (cfiCond127) V0 load(1, XDATA, add(CFA_XSP16, literal(-7)))
          CFI (cfiCond127) R7 load(1, XDATA, add(CFA_XSP16, literal(-6)))
          CFI (cfiCond127) ?RET_LOW load(1, XDATA, add(CFA_XSP16, literal(-5)))
          CFI (cfiCond127) ?RET_HIGH load(1, XDATA, add(CFA_XSP16, literal(-4)))
          CFI (cfiCond127) ?BRET_EXT load(1, XDATA, add(CFA_XSP16, literal(-3)))
          CFI (cfiCond127) DPL0 load(1, XDATA, add(CFA_XSP16, literal(-2)))
          CFI (cfiCond127) DPH0 load(1, XDATA, add(CFA_XSP16, literal(-1)))
          CFI (cfiCond127) CFA_SP SP+-2
          CFI (cfiCond127) CFA_XSP16 add(XSP16, 9)
          CFI Block cfiCond128 Using cfiCommon0
          CFI (cfiCond128) Function osal_msg_find
          CFI (cfiCond128) Conditional ??CrossCallReturnLabel_70
          CFI (cfiCond128) DPL0 Frame(CFA_SP, 4)
          CFI (cfiCond128) DPH0 Frame(CFA_SP, 5)
          CFI (cfiCond128) CFA_SP SP+-7
          CFI Block cfiPicker129 Using cfiCommon1
          CFI (cfiPicker129) NoFunction
          CFI (cfiPicker129) Picker
        ADDC      A,#-0x1
        MOV       DPH,A
        RET
          CFI EndBlock cfiCond119
          CFI EndBlock cfiCond120
          CFI EndBlock cfiCond121
          CFI EndBlock cfiCond122
          CFI EndBlock cfiCond123
          CFI EndBlock cfiCond124
          CFI EndBlock cfiCond125
          CFI EndBlock cfiCond126
          CFI EndBlock cfiCond127
          CFI EndBlock cfiCond128
          CFI EndBlock cfiPicker129
//  770 
//  771 /*********************************************************************
//  772  * @fn      osal_msg_enqueue_max
//  773  *
//  774  * @brief
//  775  *
//  776  *    This function enqueues an OSAL message into an OSAL queue if
//  777  *    the length of the queue is less than max.
//  778  *
//  779  * @param   osal_msg_q_t *q_ptr - OSAL queue
//  780  * @param   void *msg_ptr  - OSAL message
//  781  * @param   uint8 max - maximum length of queue
//  782  *
//  783  * @return  TRUE if message was enqueued, FALSE otherwise
//  784  */

        RSEG BANKED_CODE:HUGECODE:NOROOT(0)
//  785 uint8 osal_msg_enqueue_max( osal_msg_q_t *q_ptr, void *msg_ptr, uint8 max )
osal_msg_enqueue_max:
          CFI Block cfiBlock130 Using cfiCommon0
          CFI Function osal_msg_enqueue_max
        CODE
//  786 {
        REQUIRE ?V0
        REQUIRE ?V1
        MOV       A,#-0xa
        LCALL     ?BANKED_ENTER_XDATA
          CFI DPH0 load(1, XDATA, add(CFA_XSP16, literal(-1)))
          CFI DPL0 load(1, XDATA, add(CFA_XSP16, literal(-2)))
          CFI ?BRET_EXT load(1, XDATA, add(CFA_XSP16, literal(-3)))
          CFI ?RET_HIGH load(1, XDATA, add(CFA_XSP16, literal(-4)))
          CFI ?RET_LOW load(1, XDATA, add(CFA_XSP16, literal(-5)))
          CFI R7 load(1, XDATA, add(CFA_XSP16, literal(-6)))
          CFI V1 load(1, XDATA, add(CFA_XSP16, literal(-7)))
          CFI V0 load(1, XDATA, add(CFA_XSP16, literal(-8)))
          CFI VB load(1, XDATA, add(CFA_XSP16, literal(-9)))
          CFI R6 load(1, XDATA, add(CFA_XSP16, literal(-10)))
          CFI CFA_SP SP+0
          CFI CFA_XSP16 add(XSP16, 10)
        ; Saved register size: 10
        ; Auto size: 0
        MOV       ?V0,R2
        MOV       ?V1,R3
        MOV       A,R1
        MOV       R6,A
//  787   void *list;
//  788   uint8 ret = FALSE;
        MOV       R2,#0x0
//  789   halIntState_t intState;
//  790 
//  791   // Hold off interrupts
//  792   HAL_ENTER_CRITICAL_SECTION(intState);
        MOV       C,0xa8.7
        CLR       A
        RLC       A
        MOV       R3,A
        CLR       0xa8.7
//  793 
//  794   // If first message in queue
//  795   if ( *q_ptr == NULL )
        MOV       DPL,?V0
        MOV       DPH,?V1
        LCALL     ??Subroutine29_0 & 0xFFFF
??CrossCallReturnLabel_55:
        JNZ       ??osal_msg_enqueue_max_0
//  796   {
//  797     *q_ptr = msg_ptr;
        SJMP      ??osal_msg_enqueue_max_1
//  798     ret = TRUE;
//  799   }
//  800   else
//  801   {
//  802     // Find end of queue or max
//  803     list = *q_ptr;
//  804     max--;
//  805     while ( (OSAL_MSG_NEXT( list ) != NULL) && (max > 0) )
??osal_msg_enqueue_max_2:
        MOV       A,R6
        JZ        ??osal_msg_enqueue_max_3
//  806     {
//  807       list = OSAL_MSG_NEXT( list );
//  808       max--;
??osal_msg_enqueue_max_0:
        DEC       R6
//  809     }
        MOV       A,R0
        ADD       A,#-0x5
        MOV       R0,A
        MOV       A,R1
        LCALL     ?Subroutine21 & 0xFFFF
??CrossCallReturnLabel_35:
        LCALL     ??Subroutine29_0 & 0xFFFF
??CrossCallReturnLabel_56:
        JNZ       ??osal_msg_enqueue_max_2
//  810 
//  811     // Add message to end of queue if max not reached
//  812     if ( max != 0 )
        MOV       A,R6
        JZ        ??osal_msg_enqueue_max_3
//  813     {
//  814       OSAL_MSG_NEXT( list ) = msg_ptr;
??osal_msg_enqueue_max_1:
        MOV       DPL,?V0
        MOV       DPH,?V1
        MOV       A,R4
        MOVX      @DPTR,A
        INC       DPTR
        MOV       A,R5
        MOVX      @DPTR,A
//  815       ret = TRUE;
        MOV       R2,#0x1
//  816     }
//  817   }
//  818 
//  819   // Re-enable interrupts
//  820   HAL_EXIT_CRITICAL_SECTION(intState);
??osal_msg_enqueue_max_3:
        MOV       A,R3
        MOV       C,0xE0 /* A   */.0
        MOV       0xa8.7,C
//  821 
//  822   return ret;
        MOV       A,R2
        MOV       R1,A
        LJMP      ?Subroutine3 & 0xFFFF
          CFI EndBlock cfiBlock130
        REQUIRE _A_IEN0
//  823 }

        RSEG BANKED_CODE:HUGECODE:NOROOT(0)
?Subroutine21:
          CFI Block cfiCond131 Using cfiCommon0
          CFI Function osal_msg_extract
          CFI Conditional ??CrossCallReturnLabel_34
          CFI R6 load(1, XDATA, add(CFA_XSP16, literal(-12)))
          CFI VB load(1, XDATA, add(CFA_XSP16, literal(-11)))
          CFI V0 load(1, XDATA, add(CFA_XSP16, literal(-10)))
          CFI V1 load(1, XDATA, add(CFA_XSP16, literal(-9)))
          CFI V2 load(1, XDATA, add(CFA_XSP16, literal(-8)))
          CFI V3 load(1, XDATA, add(CFA_XSP16, literal(-7)))
          CFI R7 load(1, XDATA, add(CFA_XSP16, literal(-6)))
          CFI ?RET_LOW load(1, XDATA, add(CFA_XSP16, literal(-5)))
          CFI ?RET_HIGH load(1, XDATA, add(CFA_XSP16, literal(-4)))
          CFI ?BRET_EXT load(1, XDATA, add(CFA_XSP16, literal(-3)))
          CFI DPL0 load(1, XDATA, add(CFA_XSP16, literal(-2)))
          CFI DPH0 load(1, XDATA, add(CFA_XSP16, literal(-1)))
          CFI CFA_SP SP+-2
          CFI CFA_XSP16 add(XSP16, 12)
          CFI Block cfiCond132 Using cfiCommon0
          CFI (cfiCond132) Function osal_msg_enqueue_max
          CFI (cfiCond132) Conditional ??CrossCallReturnLabel_35
          CFI (cfiCond132) R6 load(1, XDATA, add(CFA_XSP16, literal(-10)))
          CFI (cfiCond132) VB load(1, XDATA, add(CFA_XSP16, literal(-9)))
          CFI (cfiCond132) V0 load(1, XDATA, add(CFA_XSP16, literal(-8)))
          CFI (cfiCond132) V1 load(1, XDATA, add(CFA_XSP16, literal(-7)))
          CFI (cfiCond132) R7 load(1, XDATA, add(CFA_XSP16, literal(-6)))
          CFI (cfiCond132) ?RET_LOW load(1, XDATA, add(CFA_XSP16, literal(-5)))
          CFI (cfiCond132) ?RET_HIGH load(1, XDATA, add(CFA_XSP16, literal(-4)))
          CFI (cfiCond132) ?BRET_EXT load(1, XDATA, add(CFA_XSP16, literal(-3)))
          CFI (cfiCond132) DPL0 load(1, XDATA, add(CFA_XSP16, literal(-2)))
          CFI (cfiCond132) DPH0 load(1, XDATA, add(CFA_XSP16, literal(-1)))
          CFI (cfiCond132) CFA_SP SP+-2
          CFI (cfiCond132) CFA_XSP16 add(XSP16, 10)
          CFI Block cfiPicker133 Using cfiCommon1
          CFI (cfiPicker133) NoFunction
          CFI (cfiPicker133) Picker
        ADDC      A,#-0x1
        MOV       ?V0,R0
        MOV       ?V1,A
        MOV       DPL,R0
        MOV       DPH,A
        RET
          CFI EndBlock cfiCond131
          CFI EndBlock cfiCond132
          CFI EndBlock cfiPicker133
//  824 
//  825 /*********************************************************************
//  826  * @fn      osal_set_event
//  827  *
//  828  * @brief
//  829  *
//  830  *    This function is called to set the event flags for a task.  The
//  831  *    event passed in is OR'd into the task's event variable.
//  832  *
//  833  * @param   uint8 task_id - receiving tasks ID
//  834  * @param   uint8 event_flag - what event to set
//  835  *
//  836  * @return  SUCCESS, INVALID_TASK
//  837  */

        RSEG BANKED_CODE:HUGECODE:NOROOT(0)
//  838 uint8 osal_set_event( uint8 task_id, uint16 event_flag )
osal_set_event:
          CFI Block cfiBlock134 Using cfiCommon0
          CFI Function osal_set_event
        CODE
//  839 {
        MOV       A,#-0x9
        LCALL     ?BANKED_ENTER_XDATA
          CFI DPH0 load(1, XDATA, add(CFA_XSP16, literal(-1)))
          CFI DPL0 load(1, XDATA, add(CFA_XSP16, literal(-2)))
          CFI ?BRET_EXT load(1, XDATA, add(CFA_XSP16, literal(-3)))
          CFI ?RET_HIGH load(1, XDATA, add(CFA_XSP16, literal(-4)))
          CFI ?RET_LOW load(1, XDATA, add(CFA_XSP16, literal(-5)))
          CFI R7 load(1, XDATA, add(CFA_XSP16, literal(-6)))
          CFI V0 load(1, XDATA, add(CFA_XSP16, literal(-7)))
          CFI VB load(1, XDATA, add(CFA_XSP16, literal(-8)))
          CFI R6 load(1, XDATA, add(CFA_XSP16, literal(-9)))
          CFI CFA_SP SP+0
          CFI CFA_XSP16 add(XSP16, 9)
        ; Saved register size: 9
        ; Auto size: 0
//  840   if ( task_id < tasksCnt )
        MOV       DPTR,#tasksCnt
        MOVX      A,@DPTR
        MOV       R0,A
        MOV       A,R1
        CLR       C
        SUBB      A,R0
        JNC       ??osal_set_event_0
//  841   {
//  842     halIntState_t   intState;
//  843     HAL_ENTER_CRITICAL_SECTION(intState);    // Hold off interrupts
        MOV       R4,0xa8+0x0
        CLR       0xa8.7
//  844     tasksEvents[task_id] |= event_flag;  // Stuff the event bit(s)
        MOV       A,R1
        ADD       A,R1
        MOV       R0,A
        CLR       A
        RLC       A
        MOV       R1,A
        MOV       DPTR,#tasksEvents
        MOVX      A,@DPTR
        ADD       A,R0
        MOV       R5,A
        INC       DPTR
        MOVX      A,@DPTR
        ADDC      A,R1
        MOV       DPL,R5
        MOV       DPH,A
        MOVX      A,@DPTR
        ORL       A,R2
        MOVX      @DPTR,A
        INC       DPTR
        MOVX      A,@DPTR
        ORL       A,R3
        MOVX      @DPTR,A
//  845     HAL_EXIT_CRITICAL_SECTION(intState);     // Release interrupts
        MOV       A,R4
        MOV       C,0xE0 /* A   */.7
        MOV       0xa8.7,C
//  846     return ( SUCCESS );
        MOV       R1,#0x0
        SJMP      ??osal_set_event_1
//  847   }
//  848    else
//  849   {
//  850     return ( INVALID_TASK );
??osal_set_event_0:
        MOV       R1,#0x3
//  851   }
??osal_set_event_1:
        LJMP      ??Subroutine28_0 & 0xFFFF
          CFI EndBlock cfiBlock134
        REQUIRE _A_IEN0
//  852 }
//  853 
//  854 /*********************************************************************
//  855  * @fn      osal_clear_event
//  856  *
//  857  * @brief
//  858  *
//  859  *    This function is called to clear the event flags for a task.  The
//  860  *    event passed in is masked out of the task's event variable.
//  861  *
//  862  * @param   uint8 task_id - receiving tasks ID
//  863  * @param   uint8 event_flag - what event to set
//  864  *
//  865  * @return  SUCCESS, INVALID_TASK
//  866  */

        RSEG BANKED_CODE:HUGECODE:NOROOT(0)
//  867 uint8 osal_clear_event( uint8 task_id, uint16 event_flag )
osal_clear_event:
          CFI Block cfiBlock135 Using cfiCommon0
          CFI Function osal_clear_event
        CODE
//  868 {
        MOV       A,#-0x9
        LCALL     ?BANKED_ENTER_XDATA
          CFI DPH0 load(1, XDATA, add(CFA_XSP16, literal(-1)))
          CFI DPL0 load(1, XDATA, add(CFA_XSP16, literal(-2)))
          CFI ?BRET_EXT load(1, XDATA, add(CFA_XSP16, literal(-3)))
          CFI ?RET_HIGH load(1, XDATA, add(CFA_XSP16, literal(-4)))
          CFI ?RET_LOW load(1, XDATA, add(CFA_XSP16, literal(-5)))
          CFI R7 load(1, XDATA, add(CFA_XSP16, literal(-6)))
          CFI V0 load(1, XDATA, add(CFA_XSP16, literal(-7)))
          CFI VB load(1, XDATA, add(CFA_XSP16, literal(-8)))
          CFI R6 load(1, XDATA, add(CFA_XSP16, literal(-9)))
          CFI CFA_SP SP+0
          CFI CFA_XSP16 add(XSP16, 9)
        ; Saved register size: 9
        ; Auto size: 0
//  869   if ( task_id < tasksCnt )
        MOV       DPTR,#tasksCnt
        MOVX      A,@DPTR
        MOV       R0,A
        MOV       A,R1
        CLR       C
        SUBB      A,R0
        JNC       ??osal_clear_event_0
//  870   {
//  871     halIntState_t   intState;
//  872     HAL_ENTER_CRITICAL_SECTION(intState);    // Hold off interrupts
        MOV       R6,0xa8+0x0
        CLR       0xa8.7
//  873     tasksEvents[task_id] &= ~(event_flag);   // clear the event bit(s)
        MOV       A,R2
        CPL       A
        MOV       R4,A
        MOV       A,R3
        CPL       A
        MOV       R5,A
        MOV       A,R1
        ADD       A,R1
        LCALL     ?Subroutine14 & 0xFFFF
??CrossCallReturnLabel_19:
        MOVX      A,@DPTR
        ANL       A,R4
        MOVX      @DPTR,A
        INC       DPTR
        MOVX      A,@DPTR
        ANL       A,R5
        MOVX      @DPTR,A
//  874     HAL_EXIT_CRITICAL_SECTION(intState);     // Release interrupts
        MOV       A,R6
        MOV       C,0xE0 /* A   */.7
        MOV       0xa8.7,C
//  875     return ( SUCCESS );
        MOV       R1,#0x0
        SJMP      ??osal_clear_event_1
//  876   }
//  877    else
//  878   {
//  879     return ( INVALID_TASK );
??osal_clear_event_0:
        MOV       R1,#0x3
//  880   }
??osal_clear_event_1:
        LJMP      ??Subroutine28_0 & 0xFFFF
          CFI EndBlock cfiBlock135
        REQUIRE _A_IEN0
//  881 }
//  882 
//  883 /*********************************************************************
//  884  * @fn      osal_isr_register
//  885  *
//  886  * @brief
//  887  *
//  888  *   This function is called to register a service routine with an
//  889  *   interrupt. When the interrupt occurs, this service routine is called.
//  890  *
//  891  * @param   uint8 interrupt_id - Interrupt number
//  892  * @param   void (*isr_ptr)( uint8* ) - function pointer to ISR
//  893  *
//  894  * @return  SUCCESS, INVALID_INTERRUPT_ID,
//  895  */

        RSEG BANKED_CODE:HUGECODE:NOROOT(0)
//  896 uint8 osal_isr_register( uint8 interrupt_id, void (*isr_ptr)( uint8* ) )
osal_isr_register:
          CFI Block cfiBlock136 Using cfiCommon0
          CFI Function osal_isr_register
        CODE
//  897 {
        ; Saved register size: 0
        ; Auto size: 0
//  898   // Remove these statements when functionality is complete
//  899   (void)interrupt_id;
//  900   (void)isr_ptr;
//  901   return ( SUCCESS );
        MOV       R1,#0x0
        LJMP      ?BRET
//  902 }
          CFI EndBlock cfiBlock136
//  903 
//  904 /*********************************************************************
//  905  * @fn      osal_int_enable
//  906  *
//  907  * @brief
//  908  *
//  909  *   This function is called to enable an interrupt. Once enabled,
//  910  *   occurrence of the interrupt causes the service routine associated
//  911  *   with that interrupt to be called.
//  912  *
//  913  *   If INTS_ALL is the interrupt_id, interrupts (in general) are enabled.
//  914  *   If a single interrupt is passed in, then interrupts still have
//  915  *   to be enabled with another call to INTS_ALL.
//  916  *
//  917  * @param   uint8 interrupt_id - Interrupt number
//  918  *
//  919  * @return  SUCCESS or INVALID_INTERRUPT_ID
//  920  */

        RSEG BANKED_CODE:HUGECODE:NOROOT(0)
//  921 uint8 osal_int_enable( uint8 interrupt_id )
osal_int_enable:
          CFI Block cfiBlock137 Using cfiCommon0
          CFI Function osal_int_enable
        CODE
//  922 {
        ; Saved register size: 0
        ; Auto size: 0
        MOV       A,R1
        MOV       R0,A
//  923 
//  924   if ( interrupt_id == INTS_ALL )
        MOV       A,#-0x1
        XRL       A,R0
        JNZ       ??osal_int_enable_0
//  925   {
//  926     HAL_ENABLE_INTERRUPTS();
        SETB      0xa8.7
//  927     return ( SUCCESS );
        MOV       R1,#0x0
        SJMP      ??osal_int_enable_1
//  928   }
//  929   else
//  930   {
//  931     return ( INVALID_INTERRUPT_ID );
??osal_int_enable_0:
        MOV       R1,#0x7
??osal_int_enable_1:
        LJMP      ?BRET
          CFI EndBlock cfiBlock137
        REQUIRE _A_IEN0
//  932   }
//  933 }
//  934 
//  935 /*********************************************************************
//  936  * @fn      osal_int_disable
//  937  *
//  938  * @brief
//  939  *
//  940  *   This function is called to disable an interrupt. When a disabled
//  941  *   interrupt occurs, the service routine associated with that
//  942  *   interrupt is not called.
//  943  *
//  944  *   If INTS_ALL is the interrupt_id, interrupts (in general) are disabled.
//  945  *   If a single interrupt is passed in, then just that interrupt is disabled.
//  946  *
//  947  * @param   uint8 interrupt_id - Interrupt number
//  948  *
//  949  * @return  SUCCESS or INVALID_INTERRUPT_ID
//  950  */

        RSEG BANKED_CODE:HUGECODE:NOROOT(0)
//  951 uint8 osal_int_disable( uint8 interrupt_id )
osal_int_disable:
          CFI Block cfiBlock138 Using cfiCommon0
          CFI Function osal_int_disable
        CODE
//  952 {
        ; Saved register size: 0
        ; Auto size: 0
        MOV       A,R1
        MOV       R0,A
//  953 
//  954   if ( interrupt_id == INTS_ALL )
        MOV       A,#-0x1
        XRL       A,R0
        JNZ       ??osal_int_disable_0
//  955   {
//  956     HAL_DISABLE_INTERRUPTS();
        CLR       0xa8.7
//  957     return ( SUCCESS );
        MOV       R1,#0x0
        SJMP      ??osal_int_disable_1
//  958   }
//  959   else
//  960   {
//  961     return ( INVALID_INTERRUPT_ID );
??osal_int_disable_0:
        MOV       R1,#0x7
??osal_int_disable_1:
        LJMP      ?BRET
          CFI EndBlock cfiBlock138
        REQUIRE _A_IEN0
//  962   }
//  963 }
//  964 
//  965 /*********************************************************************
//  966  * @fn      osal_init_system
//  967  *
//  968  * @brief
//  969  *
//  970  *   This function initializes the "task" system by creating the
//  971  *   tasks defined in the task table (OSAL_Tasks.h).
//  972  *
//  973  * @param   void
//  974  *
//  975  * @return  SUCCESS
//  976  */

        RSEG BANKED_CODE:HUGECODE:NOROOT(0)
//  977 uint8 osal_init_system( void )
osal_init_system:
          CFI Block cfiBlock139 Using cfiCommon0
          CFI Function osal_init_system
        CODE
//  978 {
        FUNCALL osal_init_system, osal_mem_init
        LOCFRAME ISTACK, 2, STACK
        LOCFRAME PSTACK, 0, STACK
        LOCFRAME XSTACK, 0, STACK
        LOCFRAME IOVERLAY, 0, STATIC
        LOCFRAME DOVERLAY, 0, STATIC
        ARGFRAME ISTACK, 2, STACK
        ARGFRAME PSTACK, 0, STACK
        ARGFRAME XSTACK, 0, STACK
        ARGFRAME IOVERLAY, 0, STATIC
        ARGFRAME DOVERLAY, 0, STATIC
        FUNCALL osal_init_system, osalTimerInit
        LOCFRAME ISTACK, 2, STACK
        LOCFRAME PSTACK, 0, STACK
        LOCFRAME XSTACK, 0, STACK
        LOCFRAME IOVERLAY, 0, STATIC
        LOCFRAME DOVERLAY, 0, STATIC
        ARGFRAME ISTACK, 2, STACK
        ARGFRAME PSTACK, 0, STACK
        ARGFRAME XSTACK, 0, STACK
        ARGFRAME IOVERLAY, 0, STATIC
        ARGFRAME DOVERLAY, 0, STATIC
        FUNCALL osal_init_system, osal_pwrmgr_init
        LOCFRAME ISTACK, 2, STACK
        LOCFRAME PSTACK, 0, STACK
        LOCFRAME XSTACK, 0, STACK
        LOCFRAME IOVERLAY, 0, STATIC
        LOCFRAME DOVERLAY, 0, STATIC
        ARGFRAME ISTACK, 2, STACK
        ARGFRAME PSTACK, 0, STACK
        ARGFRAME XSTACK, 0, STACK
        ARGFRAME IOVERLAY, 0, STATIC
        ARGFRAME DOVERLAY, 0, STATIC
        FUNCALL osal_init_system, osalInitTasks
        LOCFRAME ISTACK, 2, STACK
        LOCFRAME PSTACK, 0, STACK
        LOCFRAME XSTACK, 0, STACK
        LOCFRAME IOVERLAY, 0, STATIC
        LOCFRAME DOVERLAY, 0, STATIC
        ARGFRAME ISTACK, 2, STACK
        ARGFRAME PSTACK, 0, STACK
        ARGFRAME XSTACK, 0, STACK
        ARGFRAME IOVERLAY, 0, STATIC
        ARGFRAME DOVERLAY, 0, STATIC
        FUNCALL osal_init_system, osal_mem_kick
        LOCFRAME ISTACK, 2, STACK
        LOCFRAME PSTACK, 0, STACK
        LOCFRAME XSTACK, 0, STACK
        LOCFRAME IOVERLAY, 0, STATIC
        LOCFRAME DOVERLAY, 0, STATIC
        ARGFRAME ISTACK, 2, STACK
        ARGFRAME PSTACK, 0, STACK
        ARGFRAME XSTACK, 0, STACK
        ARGFRAME IOVERLAY, 0, STATIC
        ARGFRAME DOVERLAY, 0, STATIC
        PUSH      DPL
          CFI DPL0 Frame(CFA_SP, 4)
          CFI CFA_SP SP+-4
        PUSH      DPH
          CFI DPH0 Frame(CFA_SP, 5)
          CFI CFA_SP SP+-5
        ; Saved register size: 2
        ; Auto size: 0
//  979   // Initialize the Memory Allocation System
//  980   osal_mem_init();
        ; Setup parameters for call to function osal_mem_init
        LCALL     `??osal_mem_init::?relay`; Banked call to: osal_mem_init
//  981 
//  982   // Initialize the message queue
//  983   osal_qHead = NULL;
        MOV       DPTR,#osal_qHead
        CLR       A
        MOVX      @DPTR,A
        INC       DPTR
        MOVX      @DPTR,A
//  984 
//  985   // Initialize the timers
//  986   osalTimerInit();
        ; Setup parameters for call to function osalTimerInit
        LCALL     `??osalTimerInit::?relay`; Banked call to: osalTimerInit
//  987 
//  988   // Initialize the Power Management System
//  989   osal_pwrmgr_init();
        ; Setup parameters for call to function osal_pwrmgr_init
        LCALL     `??osal_pwrmgr_init::?relay`; Banked call to: osal_pwrmgr_init
//  990 
//  991   // Initialize the system tasks.
//  992   osalInitTasks();
        ; Setup parameters for call to function osalInitTasks
        LCALL     `??osalInitTasks::?relay`; Banked call to: osalInitTasks
//  993 
//  994   // Setup efficient search for the first free block of heap.
//  995   osal_mem_kick();
        ; Setup parameters for call to function osal_mem_kick
        LCALL     `??osal_mem_kick::?relay`; Banked call to: osal_mem_kick
//  996 
//  997   return ( SUCCESS );
        MOV       R1,#0x0
        LJMP      ?Subroutine0 & 0xFFFF
//  998 }
          CFI EndBlock cfiBlock139
//  999 
// 1000 /*********************************************************************
// 1001  * @fn      osal_start_system
// 1002  *
// 1003  * @brief
// 1004  *
// 1005  *   This function is the main loop function of the task system.  It
// 1006  *   will look through all task events and call the task_event_processor()
// 1007  *   function for the task with the event.  If there are no events (for
// 1008  *   all tasks), this function puts the processor into Sleep.
// 1009  *   This Function doesn't return.
// 1010  *
// 1011  * @param   void
// 1012  *
// 1013  * @return  none
// 1014  */

        RSEG BANKED_CODE:HUGECODE:NOROOT(0)
// 1015 void osal_start_system( void )
osal_start_system:
          CFI Block cfiBlock140 Using cfiCommon0
          CFI Function osal_start_system
        CODE
// 1016 {
        FUNCALL osal_start_system, osalTimeUpdate
        LOCFRAME ISTACK, 0, STACK
        LOCFRAME PSTACK, 0, STACK
        LOCFRAME XSTACK, 10, STACK
        LOCFRAME IOVERLAY, 0, STATIC
        LOCFRAME DOVERLAY, 0, STATIC
        ARGFRAME ISTACK, 0, STACK
        ARGFRAME PSTACK, 0, STACK
        ARGFRAME XSTACK, 10, STACK
        ARGFRAME IOVERLAY, 0, STATIC
        ARGFRAME DOVERLAY, 0, STATIC
        FUNCALL osal_start_system, Hal_ProcessPoll
        LOCFRAME ISTACK, 0, STACK
        LOCFRAME PSTACK, 0, STACK
        LOCFRAME XSTACK, 10, STACK
        LOCFRAME IOVERLAY, 0, STATIC
        LOCFRAME DOVERLAY, 0, STATIC
        ARGFRAME ISTACK, 0, STACK
        ARGFRAME PSTACK, 0, STACK
        ARGFRAME XSTACK, 10, STACK
        ARGFRAME IOVERLAY, 0, STATIC
        ARGFRAME DOVERLAY, 0, STATIC
        REQUIRE ?V0
        REQUIRE ?V1
        MOV       A,#-0xa
        LCALL     ?BANKED_ENTER_XDATA
          CFI R6 load(1, XDATA, add(CFA_XSP16, literal(-10)))
          CFI VB load(1, XDATA, add(CFA_XSP16, literal(-9)))
          CFI V0 load(1, XDATA, add(CFA_XSP16, literal(-8)))
          CFI V1 load(1, XDATA, add(CFA_XSP16, literal(-7)))
          CFI R7 load(1, XDATA, add(CFA_XSP16, literal(-6)))
          CFI ?RET_LOW load(1, XDATA, add(CFA_XSP16, literal(-5)))
          CFI ?RET_HIGH load(1, XDATA, add(CFA_XSP16, literal(-4)))
          CFI ?BRET_EXT load(1, XDATA, add(CFA_XSP16, literal(-3)))
          CFI DPL0 load(1, XDATA, add(CFA_XSP16, literal(-2)))
          CFI DPH0 load(1, XDATA, add(CFA_XSP16, literal(-1)))
          CFI CFA_SP SP+0
          CFI CFA_XSP16 add(XSP16, 10)
        ; Saved register size: 10
        ; Auto size: 0
// 1017 #if !defined ( ZBIT ) && !defined ( UBIT )
// 1018   for(;;)  // Forever Loop
// 1019 #endif
// 1020   {
// 1021     uint8 idx = 0;
??osal_start_system_0:
        MOV       ?V0,#0x0
// 1022 
// 1023     osalTimeUpdate();
        ; Setup parameters for call to function osalTimeUpdate
        LCALL     `??osalTimeUpdate::?relay`; Banked call to: osalTimeUpdate
// 1024     Hal_ProcessPoll();  // This replaces MT_SerialPoll() and osal_check_timer().
        ; Setup parameters for call to function Hal_ProcessPoll
        LCALL     `??Hal_ProcessPoll::?relay`; Banked call to: Hal_ProcessPoll
// 1025     
// 1026     do {
// 1027       if (tasksEvents[idx])  // Task is highest priority that is ready.
??osal_start_system_1:
        MOV       R0,?V0
        MOV       A,R0
        ADD       A,R0
        LCALL     ?Subroutine14 & 0xFFFF
// 1028       {
// 1029         break;
// 1030       }
// 1031     } while (++idx < tasksCnt);
??CrossCallReturnLabel_20:
        LCALL     ??Subroutine29_0 & 0xFFFF
??CrossCallReturnLabel_57:
        JNZ       ??osal_start_system_2
        INC       ?V0
        MOV       DPTR,#tasksCnt
        MOVX      A,@DPTR
        MOV       R0,A
        MOV       A,?V0
        CLR       C
        SUBB      A,R0
        JC        ??osal_start_system_1
// 1032 
// 1033     if (idx < tasksCnt)
??osal_start_system_2:
        MOV       DPTR,#tasksCnt
        MOVX      A,@DPTR
        MOV       R0,A
        MOV       A,?V0
        CLR       C
        SUBB      A,R0
        JNC       ??osal_start_system_0
// 1034     {
// 1035       uint16 events;
// 1036       halIntState_t intState;
// 1037 
// 1038       HAL_ENTER_CRITICAL_SECTION(intState);
        MOV       R4,0xa8+0x0
        CLR       0xa8.7
// 1039       events = tasksEvents[idx];
        MOV       R6,?V0
        MOV       A,R6
        ADD       A,R6
        MOV       R6,A
        CLR       A
        RLC       A
        MOV       R7,A
        MOV       DPTR,#tasksEvents
        MOVX      A,@DPTR
        ADD       A,R6
        MOV       R0,A
        INC       DPTR
        MOVX      A,@DPTR
        ADDC      A,R7
        MOV       R1,A
        MOV       DPL,R0
        MOV       DPH,A
        LCALL     ?Subroutine16 & 0xFFFF
// 1040       tasksEvents[idx] = 0;  // Clear the Events for this task.
??CrossCallReturnLabel_27:
        MOV       DPL,R0
        MOV       DPH,R1
        CLR       A
        MOVX      @DPTR,A
        INC       DPTR
        MOVX      @DPTR,A
// 1041       HAL_EXIT_CRITICAL_SECTION(intState);
        MOV       A,R4
        MOV       C,0xE0 /* A   */.7
        MOV       0xa8.7,C
// 1042 
// 1043       events = (tasksArr[idx])( idx, events );
        ; Setup parameters for indirect call
        MOV       R1,?V0
        MOV       A,#tasksArr & 0xff
        ADD       A,R6
        MOV       DPL,A
        MOV       A,#(tasksArr >> 8) & 0xff
        ADDC      A,R7
        MOV       DPH,A
        LCALL     ?Subroutine17 & 0xFFFF
??CrossCallReturnLabel_29:
        LCALL     ?CALL_IND
// 1044 
// 1045       HAL_ENTER_CRITICAL_SECTION(intState);
        MOV       R0,0xa8+0x0
        CLR       0xa8.7
// 1046       tasksEvents[idx] |= events;  // Add back unprocessed events to the current task.
        MOV       DPTR,#tasksEvents
        MOVX      A,@DPTR
        ADD       A,R6
        MOV       R1,A
        INC       DPTR
        MOVX      A,@DPTR
        ADDC      A,R7
        MOV       DPL,R1
        MOV       DPH,A
        MOVX      A,@DPTR
        ORL       A,R2
        MOVX      @DPTR,A
        INC       DPTR
        MOVX      A,@DPTR
        ORL       A,R3
        MOVX      @DPTR,A
// 1047       HAL_EXIT_CRITICAL_SECTION(intState);
        MOV       A,R0
        MOV       C,0xE0 /* A   */.7
        MOV       0xa8.7,C
        LJMP      ??osal_start_system_0 & 0xFFFF
          CFI EndBlock cfiBlock140
        REQUIRE _A_IEN0
// 1048     }
// 1049 #if defined( POWER_SAVING )
// 1050     else  // Complete pass through all task events with no activity?
// 1051     {
// 1052       osal_pwrmgr_powerconserve();  // Put the processor/system into sleep
// 1053     }
// 1054 #endif
// 1055   }
// 1056 }

        RSEG BANKED_CODE:HUGECODE:NOROOT(0)
?Subroutine17:
          CFI Block cfiCond141 Using cfiCommon0
          CFI Function _ltoa
          CFI Conditional ??CrossCallReturnLabel_28
          CFI R6 load(1, XDATA, add(CFA_XSP16, literal(-16)))
          CFI VB load(1, XDATA, add(CFA_XSP16, literal(-15)))
          CFI V0 load(1, XDATA, add(CFA_XSP16, literal(-14)))
          CFI V1 load(1, XDATA, add(CFA_XSP16, literal(-13)))
          CFI V2 load(1, XDATA, add(CFA_XSP16, literal(-12)))
          CFI V3 load(1, XDATA, add(CFA_XSP16, literal(-11)))
          CFI V4 load(1, XDATA, add(CFA_XSP16, literal(-10)))
          CFI V5 load(1, XDATA, add(CFA_XSP16, literal(-9)))
          CFI V6 load(1, XDATA, add(CFA_XSP16, literal(-8)))
          CFI V7 load(1, XDATA, add(CFA_XSP16, literal(-7)))
          CFI R7 load(1, XDATA, add(CFA_XSP16, literal(-6)))
          CFI ?RET_LOW load(1, XDATA, add(CFA_XSP16, literal(-5)))
          CFI ?RET_HIGH load(1, XDATA, add(CFA_XSP16, literal(-4)))
          CFI ?BRET_EXT load(1, XDATA, add(CFA_XSP16, literal(-3)))
          CFI DPL0 load(1, XDATA, add(CFA_XSP16, literal(-2)))
          CFI DPH0 load(1, XDATA, add(CFA_XSP16, literal(-1)))
          CFI CFA_SP SP+-2
          CFI CFA_XSP16 add(XSP16, 55)
          CFI Block cfiCond142 Using cfiCommon0
          CFI (cfiCond142) Function osal_start_system
          CFI (cfiCond142) Conditional ??CrossCallReturnLabel_29
          CFI (cfiCond142) R6 load(1, XDATA, add(CFA_XSP16, literal(-10)))
          CFI (cfiCond142) VB load(1, XDATA, add(CFA_XSP16, literal(-9)))
          CFI (cfiCond142) V0 load(1, XDATA, add(CFA_XSP16, literal(-8)))
          CFI (cfiCond142) V1 load(1, XDATA, add(CFA_XSP16, literal(-7)))
          CFI (cfiCond142) R7 load(1, XDATA, add(CFA_XSP16, literal(-6)))
          CFI (cfiCond142) ?RET_LOW load(1, XDATA, add(CFA_XSP16, literal(-5)))
          CFI (cfiCond142) ?RET_HIGH load(1, XDATA, add(CFA_XSP16, literal(-4)))
          CFI (cfiCond142) ?BRET_EXT load(1, XDATA, add(CFA_XSP16, literal(-3)))
          CFI (cfiCond142) DPL0 load(1, XDATA, add(CFA_XSP16, literal(-2)))
          CFI (cfiCond142) DPH0 load(1, XDATA, add(CFA_XSP16, literal(-1)))
          CFI (cfiCond142) CFA_SP SP+-2
          CFI (cfiCond142) CFA_XSP16 add(XSP16, 10)
          CFI Block cfiPicker143 Using cfiCommon1
          CFI (cfiPicker143) NoFunction
          CFI (cfiPicker143) Picker
        MOVX      A,@DPTR
        MOV       R0,A
        INC       DPTR
        MOVX      A,@DPTR
        MOV       DPH,A
        MOV       DPL,R0
        RET
          CFI EndBlock cfiCond141
          CFI EndBlock cfiCond142
          CFI EndBlock cfiPicker143

        RSEG BANKED_CODE:HUGECODE:NOROOT(0)
?Subroutine14:
          CFI Block cfiCond144 Using cfiCommon0
          CFI Function osal_clear_event
          CFI Conditional ??CrossCallReturnLabel_19
          CFI R6 load(1, XDATA, add(CFA_XSP16, literal(-9)))
          CFI VB load(1, XDATA, add(CFA_XSP16, literal(-8)))
          CFI V0 load(1, XDATA, add(CFA_XSP16, literal(-7)))
          CFI R7 load(1, XDATA, add(CFA_XSP16, literal(-6)))
          CFI ?RET_LOW load(1, XDATA, add(CFA_XSP16, literal(-5)))
          CFI ?RET_HIGH load(1, XDATA, add(CFA_XSP16, literal(-4)))
          CFI ?BRET_EXT load(1, XDATA, add(CFA_XSP16, literal(-3)))
          CFI DPL0 load(1, XDATA, add(CFA_XSP16, literal(-2)))
          CFI DPH0 load(1, XDATA, add(CFA_XSP16, literal(-1)))
          CFI CFA_SP SP+-2
          CFI CFA_XSP16 add(XSP16, 9)
          CFI Block cfiCond145 Using cfiCommon0
          CFI (cfiCond145) Function osal_start_system
          CFI (cfiCond145) Conditional ??CrossCallReturnLabel_20
          CFI (cfiCond145) R6 load(1, XDATA, add(CFA_XSP16, literal(-10)))
          CFI (cfiCond145) VB load(1, XDATA, add(CFA_XSP16, literal(-9)))
          CFI (cfiCond145) V0 load(1, XDATA, add(CFA_XSP16, literal(-8)))
          CFI (cfiCond145) V1 load(1, XDATA, add(CFA_XSP16, literal(-7)))
          CFI (cfiCond145) R7 load(1, XDATA, add(CFA_XSP16, literal(-6)))
          CFI (cfiCond145) ?RET_LOW load(1, XDATA, add(CFA_XSP16, literal(-5)))
          CFI (cfiCond145) ?RET_HIGH load(1, XDATA, add(CFA_XSP16, literal(-4)))
          CFI (cfiCond145) ?BRET_EXT load(1, XDATA, add(CFA_XSP16, literal(-3)))
          CFI (cfiCond145) DPL0 load(1, XDATA, add(CFA_XSP16, literal(-2)))
          CFI (cfiCond145) DPH0 load(1, XDATA, add(CFA_XSP16, literal(-1)))
          CFI (cfiCond145) CFA_SP SP+-2
          CFI (cfiCond145) CFA_XSP16 add(XSP16, 10)
          CFI Block cfiPicker146 Using cfiCommon1
          CFI (cfiPicker146) NoFunction
          CFI (cfiPicker146) Picker
        MOV       R0,A
        CLR       A
        RLC       A
        MOV       R1,A
        MOV       DPTR,#tasksEvents
        MOVX      A,@DPTR
        ADD       A,R0
        MOV       R2,A
        INC       DPTR
        MOVX      A,@DPTR
        ADDC      A,R1
        MOV       DPL,R2
        MOV       DPH,A
        RET
          CFI EndBlock cfiCond144
          CFI EndBlock cfiCond145
          CFI EndBlock cfiPicker146
// 1057 
// 1058 /*********************************************************************
// 1059  * @fn      osal_buffer_uint32
// 1060  *
// 1061  * @brief
// 1062  *
// 1063  *   Buffer an uint32 value - LSB first.
// 1064  *
// 1065  * @param   buf - buffer
// 1066  * @param   val - uint32 value
// 1067  *
// 1068  * @return  pointer to end of destination buffer
// 1069  */

        RSEG BANKED_CODE:HUGECODE:NOROOT(0)
// 1070 uint8* osal_buffer_uint32( uint8 *buf, uint32 val )
osal_buffer_uint32:
          CFI Block cfiBlock147 Using cfiCommon0
          CFI Function osal_buffer_uint32
        CODE
// 1071 {
        REQUIRE ?V0
        REQUIRE ?V1
        REQUIRE ?V2
        REQUIRE ?V3
        REQUIRE ?V4
        REQUIRE ?V5
        REQUIRE ?V6
        REQUIRE ?V7
        MOV       A,#-0x10
        LCALL     ?BANKED_ENTER_XDATA
          CFI DPH0 load(1, XDATA, add(CFA_XSP16, literal(-1)))
          CFI DPL0 load(1, XDATA, add(CFA_XSP16, literal(-2)))
          CFI ?BRET_EXT load(1, XDATA, add(CFA_XSP16, literal(-3)))
          CFI ?RET_HIGH load(1, XDATA, add(CFA_XSP16, literal(-4)))
          CFI ?RET_LOW load(1, XDATA, add(CFA_XSP16, literal(-5)))
          CFI R7 load(1, XDATA, add(CFA_XSP16, literal(-6)))
          CFI V7 load(1, XDATA, add(CFA_XSP16, literal(-7)))
          CFI V6 load(1, XDATA, add(CFA_XSP16, literal(-8)))
          CFI V5 load(1, XDATA, add(CFA_XSP16, literal(-9)))
          CFI V4 load(1, XDATA, add(CFA_XSP16, literal(-10)))
          CFI V3 load(1, XDATA, add(CFA_XSP16, literal(-11)))
          CFI V2 load(1, XDATA, add(CFA_XSP16, literal(-12)))
          CFI V1 load(1, XDATA, add(CFA_XSP16, literal(-13)))
          CFI V0 load(1, XDATA, add(CFA_XSP16, literal(-14)))
          CFI VB load(1, XDATA, add(CFA_XSP16, literal(-15)))
          CFI R6 load(1, XDATA, add(CFA_XSP16, literal(-16)))
          CFI CFA_SP SP+0
          CFI CFA_XSP16 add(XSP16, 16)
        ; Saved register size: 16
        ; Auto size: 0
        MOV       A,#0x10
        LCALL     ?XSTACK_DISP0_8
        MOV       R0,#?V4
        LCALL     ?L_MOV_X
// 1072   *buf++ = BREAK_UINT32( val, 0 );
        LCALL     ?Subroutine24 & 0xFFFF
// 1073   *buf++ = BREAK_UINT32( val, 1 );
// 1074   *buf++ = BREAK_UINT32( val, 2 );
??CrossCallReturnLabel_40:
        MOV       ?V0,?V4
        MOV       ?V2,?V6
        MOV       ?V3,?V7
        MOV       A,#0x10
        MOV       R0,#?V0
        LCALL     ?UL_SHR
        MOV       DPL,R2
        MOV       DPH,R3
        INC       DPTR
        INC       DPTR
        MOV       A,?V0
        MOVX      @DPTR,A
// 1075   *buf++ = BREAK_UINT32( val, 3 );
        MOV       A,#0x18
        MOV       R0,#?V4
        LCALL     ?UL_SHR
        MOV       DPL,R2
        MOV       DPH,R3
        INC       DPTR
        INC       DPTR
        INC       DPTR
        MOV       A,?V4
        MOVX      @DPTR,A
// 1076 
// 1077   return buf;
        MOV       A,R2
        ADD       A,#0x4
        MOV       R2,A
        JNC       ??osal_buffer_uint32_0
        INC       R3
??osal_buffer_uint32_0:
          CFI EndBlock cfiBlock147
        REQUIRE ?Subroutine2
        ; // Fall through to label ?Subroutine2
// 1078 }

        RSEG BANKED_CODE:HUGECODE:NOROOT(0)
?Subroutine2:
          CFI Block cfiBlock148 Using cfiCommon0
          CFI NoFunction
          CFI CFA_SP SP+0
          CFI CFA_XSP16 add(XSP16, 16)
          CFI VB load(1, XDATA, add(CFA_XSP16, literal(-15)))
          CFI DPL0 load(1, XDATA, add(CFA_XSP16, literal(-2)))
          CFI DPH0 load(1, XDATA, add(CFA_XSP16, literal(-1)))
          CFI R6 load(1, XDATA, add(CFA_XSP16, literal(-16)))
          CFI R7 load(1, XDATA, add(CFA_XSP16, literal(-6)))
          CFI V0 load(1, XDATA, add(CFA_XSP16, literal(-14)))
          CFI V1 load(1, XDATA, add(CFA_XSP16, literal(-13)))
          CFI V2 load(1, XDATA, add(CFA_XSP16, literal(-12)))
          CFI V3 load(1, XDATA, add(CFA_XSP16, literal(-11)))
          CFI V4 load(1, XDATA, add(CFA_XSP16, literal(-10)))
          CFI V5 load(1, XDATA, add(CFA_XSP16, literal(-9)))
          CFI V6 load(1, XDATA, add(CFA_XSP16, literal(-8)))
          CFI V7 load(1, XDATA, add(CFA_XSP16, literal(-7)))
          CFI ?BRET_EXT load(1, XDATA, add(CFA_XSP16, literal(-3)))
          CFI ?RET_HIGH load(1, XDATA, add(CFA_XSP16, literal(-4)))
          CFI ?RET_LOW load(1, XDATA, add(CFA_XSP16, literal(-5)))
        MOV       R7,#0x8
        LJMP      ?BANKED_LEAVE_XDATA
          CFI EndBlock cfiBlock148
// 1079 
// 1080 /*********************************************************************
// 1081  * @fn      osal_buffer_uint24
// 1082  *
// 1083  * @brief
// 1084  *
// 1085  *   Buffer an uint24 value - LSB first. Note that type uint24 is
// 1086  *   typedef to uint32 in comdef.h
// 1087  *
// 1088  * @param   buf - buffer
// 1089  * @param   val - uint24 value
// 1090  *
// 1091  * @return  pointer to end of destination buffer
// 1092  */

        RSEG BANKED_CODE:HUGECODE:NOROOT(0)
// 1093 uint8* osal_buffer_uint24( uint8 *buf, uint24 val )
osal_buffer_uint24:
          CFI Block cfiBlock149 Using cfiCommon0
          CFI Function osal_buffer_uint24
        CODE
// 1094 {
        REQUIRE ?V0
        REQUIRE ?V1
        REQUIRE ?V4
        REQUIRE ?V5
        REQUIRE ?V6
        REQUIRE ?V7
        MOV       A,#-0x10
        LCALL     ?BANKED_ENTER_XDATA
          CFI DPH0 load(1, XDATA, add(CFA_XSP16, literal(-1)))
          CFI DPL0 load(1, XDATA, add(CFA_XSP16, literal(-2)))
          CFI ?BRET_EXT load(1, XDATA, add(CFA_XSP16, literal(-3)))
          CFI ?RET_HIGH load(1, XDATA, add(CFA_XSP16, literal(-4)))
          CFI ?RET_LOW load(1, XDATA, add(CFA_XSP16, literal(-5)))
          CFI R7 load(1, XDATA, add(CFA_XSP16, literal(-6)))
          CFI V7 load(1, XDATA, add(CFA_XSP16, literal(-7)))
          CFI V6 load(1, XDATA, add(CFA_XSP16, literal(-8)))
          CFI V5 load(1, XDATA, add(CFA_XSP16, literal(-9)))
          CFI V4 load(1, XDATA, add(CFA_XSP16, literal(-10)))
          CFI V3 load(1, XDATA, add(CFA_XSP16, literal(-11)))
          CFI V2 load(1, XDATA, add(CFA_XSP16, literal(-12)))
          CFI V1 load(1, XDATA, add(CFA_XSP16, literal(-13)))
          CFI V0 load(1, XDATA, add(CFA_XSP16, literal(-14)))
          CFI VB load(1, XDATA, add(CFA_XSP16, literal(-15)))
          CFI R6 load(1, XDATA, add(CFA_XSP16, literal(-16)))
          CFI CFA_SP SP+0
          CFI CFA_XSP16 add(XSP16, 16)
        ; Saved register size: 16
        ; Auto size: 0
        MOV       A,#0x10
        LCALL     ?XSTACK_DISP0_8
        MOV       R0,#?V4
        LCALL     ?L_MOV_X
// 1095   *buf++ = BREAK_UINT32( val, 0 );
        LCALL     ?Subroutine24 & 0xFFFF
// 1096   *buf++ = BREAK_UINT32( val, 1 );
// 1097   *buf++ = BREAK_UINT32( val, 2 );
??CrossCallReturnLabel_41:
        MOV       A,#0x10
        MOV       R0,#?V4
        LCALL     ?UL_SHR
        MOV       DPL,R2
        MOV       DPH,R3
        INC       DPTR
        INC       DPTR
        MOV       A,?V4
        MOVX      @DPTR,A
// 1098 
// 1099   return buf;
        MOV       A,R2
        ADD       A,#0x3
        MOV       R2,A
        JNC       ??osal_buffer_uint24_0
        INC       R3
??osal_buffer_uint24_0:
        SJMP      ?Subroutine2
// 1100 }
          CFI EndBlock cfiBlock149

        RSEG BANKED_CODE:HUGECODE:NOROOT(0)
?Subroutine24:
          CFI Block cfiCond150 Using cfiCommon0
          CFI Function osal_buffer_uint32
          CFI Conditional ??CrossCallReturnLabel_40
          CFI R6 load(1, XDATA, add(CFA_XSP16, literal(-16)))
          CFI VB load(1, XDATA, add(CFA_XSP16, literal(-15)))
          CFI V0 load(1, XDATA, add(CFA_XSP16, literal(-14)))
          CFI V1 load(1, XDATA, add(CFA_XSP16, literal(-13)))
          CFI V2 load(1, XDATA, add(CFA_XSP16, literal(-12)))
          CFI V3 load(1, XDATA, add(CFA_XSP16, literal(-11)))
          CFI V4 load(1, XDATA, add(CFA_XSP16, literal(-10)))
          CFI V5 load(1, XDATA, add(CFA_XSP16, literal(-9)))
          CFI V6 load(1, XDATA, add(CFA_XSP16, literal(-8)))
          CFI V7 load(1, XDATA, add(CFA_XSP16, literal(-7)))
          CFI R7 load(1, XDATA, add(CFA_XSP16, literal(-6)))
          CFI ?RET_LOW load(1, XDATA, add(CFA_XSP16, literal(-5)))
          CFI ?RET_HIGH load(1, XDATA, add(CFA_XSP16, literal(-4)))
          CFI ?BRET_EXT load(1, XDATA, add(CFA_XSP16, literal(-3)))
          CFI DPL0 load(1, XDATA, add(CFA_XSP16, literal(-2)))
          CFI DPH0 load(1, XDATA, add(CFA_XSP16, literal(-1)))
          CFI CFA_SP SP+-2
          CFI CFA_XSP16 add(XSP16, 16)
          CFI Block cfiCond151 Using cfiCommon0
          CFI (cfiCond151) Function osal_buffer_uint24
          CFI (cfiCond151) Conditional ??CrossCallReturnLabel_41
          CFI (cfiCond151) R6 load(1, XDATA, add(CFA_XSP16, literal(-16)))
          CFI (cfiCond151) VB load(1, XDATA, add(CFA_XSP16, literal(-15)))
          CFI (cfiCond151) V0 load(1, XDATA, add(CFA_XSP16, literal(-14)))
          CFI (cfiCond151) V1 load(1, XDATA, add(CFA_XSP16, literal(-13)))
          CFI (cfiCond151) V2 load(1, XDATA, add(CFA_XSP16, literal(-12)))
          CFI (cfiCond151) V3 load(1, XDATA, add(CFA_XSP16, literal(-11)))
          CFI (cfiCond151) V4 load(1, XDATA, add(CFA_XSP16, literal(-10)))
          CFI (cfiCond151) V5 load(1, XDATA, add(CFA_XSP16, literal(-9)))
          CFI (cfiCond151) V6 load(1, XDATA, add(CFA_XSP16, literal(-8)))
          CFI (cfiCond151) V7 load(1, XDATA, add(CFA_XSP16, literal(-7)))
          CFI (cfiCond151) R7 load(1, XDATA, add(CFA_XSP16, literal(-6)))
          CFI (cfiCond151) ?RET_LOW load(1, XDATA, add(CFA_XSP16, literal(-5)))
          CFI (cfiCond151) ?RET_HIGH load(1, XDATA, add(CFA_XSP16, literal(-4)))
          CFI (cfiCond151) ?BRET_EXT load(1, XDATA, add(CFA_XSP16, literal(-3)))
          CFI (cfiCond151) DPL0 load(1, XDATA, add(CFA_XSP16, literal(-2)))
          CFI (cfiCond151) DPH0 load(1, XDATA, add(CFA_XSP16, literal(-1)))
          CFI (cfiCond151) CFA_SP SP+-2
          CFI (cfiCond151) CFA_XSP16 add(XSP16, 16)
          CFI Block cfiPicker152 Using cfiCommon1
          CFI (cfiPicker152) NoFunction
          CFI (cfiPicker152) Picker
        MOV       DPL,R2
        MOV       DPH,R3
        MOV       A,?V4
        MOVX      @DPTR,A
        MOV       ?V1,?V5
        MOV       A,?V1
        INC       DPTR
        MOVX      @DPTR,A
        RET
          CFI EndBlock cfiCond150
          CFI EndBlock cfiCond151
          CFI EndBlock cfiPicker152

        RSEG BANK_RELAYS:CODE:REORDER:NOROOT(0)
`??osal_strlen::?relay`:
        CODE
        LCALL   ?BDISPATCH
        DATA24
        DC24    osal_strlen

        RSEG BANK_RELAYS:CODE:REORDER:NOROOT(0)
`??osal_memcpy::?relay`:
        CODE
        LCALL   ?BDISPATCH
        DATA24
        DC24    osal_memcpy

        RSEG BANK_RELAYS:CODE:REORDER:NOROOT(0)
`??osal_revmemcpy::?relay`:
        CODE
        LCALL   ?BDISPATCH
        DATA24
        DC24    osal_revmemcpy

        RSEG BANK_RELAYS:CODE:REORDER:NOROOT(0)
`??osal_memdup::?relay`:
        CODE
        LCALL   ?BDISPATCH
        DATA24
        DC24    osal_memdup

        RSEG BANK_RELAYS:CODE:REORDER:NOROOT(0)
`??osal_memcmp::?relay`:
        CODE
        LCALL   ?BDISPATCH
        DATA24
        DC24    osal_memcmp

        RSEG BANK_RELAYS:CODE:REORDER:NOROOT(0)
`??osal_memset::?relay`:
        CODE
        LCALL   ?BDISPATCH
        DATA24
        DC24    osal_memset

        RSEG BANK_RELAYS:CODE:REORDER:NOROOT(0)
`??osal_build_uint16::?relay`:
        CODE
        LCALL   ?BDISPATCH
        DATA24
        DC24    osal_build_uint16

        RSEG BANK_RELAYS:CODE:REORDER:NOROOT(0)
`??osal_build_uint32::?relay`:
        CODE
        LCALL   ?BDISPATCH
        DATA24
        DC24    osal_build_uint32

        RSEG BANK_RELAYS:CODE:REORDER:NOROOT(0)
`??_ltoa::?relay`:
        CODE
        LCALL   ?BDISPATCH
        DATA24
        DC24    _ltoa

        RSEG BANK_RELAYS:CODE:REORDER:NOROOT(0)
`??osal_rand::?relay`:
        CODE
        LCALL   ?BDISPATCH
        DATA24
        DC24    osal_rand

        RSEG BANK_RELAYS:CODE:REORDER:NOROOT(0)
`??osal_msg_allocate::?relay`:
        CODE
        LCALL   ?BDISPATCH
        DATA24
        DC24    osal_msg_allocate

        RSEG BANK_RELAYS:CODE:REORDER:NOROOT(0)
`??osal_msg_deallocate::?relay`:
        CODE
        LCALL   ?BDISPATCH
        DATA24
        DC24    osal_msg_deallocate

        RSEG BANK_RELAYS:CODE:REORDER:NOROOT(0)
`??osal_msg_send::?relay`:
        CODE
        LCALL   ?BDISPATCH
        DATA24
        DC24    osal_msg_send

        RSEG BANK_RELAYS:CODE:REORDER:NOROOT(0)
`??osal_msg_receive::?relay`:
        CODE
        LCALL   ?BDISPATCH
        DATA24
        DC24    osal_msg_receive

        RSEG BANK_RELAYS:CODE:REORDER:NOROOT(0)
`??osal_msg_find::?relay`:
        CODE
        LCALL   ?BDISPATCH
        DATA24
        DC24    osal_msg_find

        RSEG BANK_RELAYS:CODE:REORDER:NOROOT(0)
`??osal_msg_enqueue::?relay`:
        CODE
        LCALL   ?BDISPATCH
        DATA24
        DC24    osal_msg_enqueue

        RSEG BANK_RELAYS:CODE:REORDER:NOROOT(0)
`??osal_msg_dequeue::?relay`:
        CODE
        LCALL   ?BDISPATCH
        DATA24
        DC24    osal_msg_dequeue

        RSEG BANK_RELAYS:CODE:REORDER:NOROOT(0)
`??osal_msg_push::?relay`:
        CODE
        LCALL   ?BDISPATCH
        DATA24
        DC24    osal_msg_push

        RSEG BANK_RELAYS:CODE:REORDER:NOROOT(0)
`??osal_msg_extract::?relay`:
        CODE
        LCALL   ?BDISPATCH
        DATA24
        DC24    osal_msg_extract

        RSEG BANK_RELAYS:CODE:REORDER:NOROOT(0)
`??osal_msg_enqueue_max::?relay`:
        CODE
        LCALL   ?BDISPATCH
        DATA24
        DC24    osal_msg_enqueue_max

        RSEG BANK_RELAYS:CODE:REORDER:NOROOT(0)
`??osal_set_event::?relay`:
        CODE
        LCALL   ?BDISPATCH
        DATA24
        DC24    osal_set_event

        RSEG BANK_RELAYS:CODE:REORDER:NOROOT(0)
`??osal_clear_event::?relay`:
        CODE
        LCALL   ?BDISPATCH
        DATA24
        DC24    osal_clear_event

        RSEG BANK_RELAYS:CODE:REORDER:NOROOT(0)
`??osal_isr_register::?relay`:
        CODE
        LCALL   ?BDISPATCH
        DATA24
        DC24    osal_isr_register

        RSEG BANK_RELAYS:CODE:REORDER:NOROOT(0)
`??osal_int_enable::?relay`:
        CODE
        LCALL   ?BDISPATCH
        DATA24
        DC24    osal_int_enable

        RSEG BANK_RELAYS:CODE:REORDER:NOROOT(0)
`??osal_int_disable::?relay`:
        CODE
        LCALL   ?BDISPATCH
        DATA24
        DC24    osal_int_disable

        RSEG BANK_RELAYS:CODE:REORDER:NOROOT(0)
`??osal_init_system::?relay`:
        CODE
        LCALL   ?BDISPATCH
        DATA24
        DC24    osal_init_system

        RSEG BANK_RELAYS:CODE:REORDER:NOROOT(0)
`??osal_start_system::?relay`:
        CODE
        LCALL   ?BDISPATCH
        DATA24
        DC24    osal_start_system

        RSEG BANK_RELAYS:CODE:REORDER:NOROOT(0)
`??osal_buffer_uint32::?relay`:
        CODE
        LCALL   ?BDISPATCH
        DATA24
        DC24    osal_buffer_uint32

        RSEG BANK_RELAYS:CODE:REORDER:NOROOT(0)
`??osal_buffer_uint24::?relay`:
        CODE
        LCALL   ?BDISPATCH
        DATA24
        DC24    osal_buffer_uint24

        RSEG XDATA_ROM_C:CONST:REORDER:NOROOT(0)
        DATA8
`?<Constant "">`:
        DB ""
        DB 0, 0, 0, 0, 0, 0, 0, 0
        DB 0

        RSEG XDATA_ROM_C:CONST:REORDER:NOROOT(0)
        DATA8
`?<Constant "">_1`:
        DB ""
        DB 0, 0, 0, 0, 0, 0, 0, 0
        DB 0

        RSEG XDATA_ROM_C:CONST:REORDER:NOROOT(0)
        DATA8
`?<Constant "">_2`:
        DB ""
        DB 0, 0, 0, 0, 0, 0, 0, 0
        DB 0

        RSEG XDATA_ROM_C:CONST:REORDER:NOROOT(0)
        DATA16
`?<Constant "0">`:
        DB "0"

        RSEG XDATA_ROM_C:CONST:REORDER:NOROOT(0)
        DATA32
__Constant_2710:
        DD 10000

        RSEG XDATA_ROM_C:CONST:REORDER:NOROOT(0)
        DATA32
__Constant_5f5e100:
        DD 100000000

        END
// 1101 /*********************************************************************
// 1102 *********************************************************************/
// 
// 2 540 bytes in segment BANKED_CODE
//   174 bytes in segment BANK_RELAYS
//     1 byte  in segment SFR_AN
//    40 bytes in segment XDATA_ROM_C
//     2 bytes in segment XDATA_Z
// 
//   174 bytes of CODE     memory
//    32 bytes of CONST    memory (+ 8 bytes shared)
//     0 bytes of DATA     memory (+ 1 byte  shared)
// 2 540 bytes of HUGECODE memory
//     2 bytes of XDATA    memory
//
//Errors: none
//Warnings: none
