///////////////////////////////////////////////////////////////////////////////
//
// IAR C/C++ Compiler V10.20.1.5333 for 8051              13/Sep/2018  22:05:06
// Copyright 2004-2018 IAR Systems AB.
// Evaluation license - IAR Embedded Workbench for 8051, Evaluation version 10.20
//
//    Core               =  plain
//    Code model         =  banked
//    Data model         =  large
//    Calling convention =  xdata reentrant
//    Constant location  =  data_rom
//    Dptr setup         =  1,16
//                          
//    Source file        =  
//        C:\gitmuck\ZStackZigBae\ZStack-CC2530-2.3.1\Components\osal\mcu\cc2530\OSAL_Nv.c
//    Command line       =  
//        -f C:\Users\ANANDA~1\AppData\Local\Temp\EW9CB6.tmp
//        (C:\gitmuck\ZStackZigBae\ZStack-CC2530-2.3.1\Components\osal\mcu\cc2530\OSAL_Nv.c
//        -D ZTOOL_P1 -D MT_TASK -D MT_SYS_FUNC -D MT_ZDO_FUNC -D
//        LCD_SUPPORTED=DEBUG -lC
//        C:\gitmuck\ZStackZigBae\ZStack-CC2530-2.3.1\Projects\zstack\Samples\SampleApp\CC2530DB\RouterEB\List
//        -lA
//        C:\gitmuck\ZStackZigBae\ZStack-CC2530-2.3.1\Projects\zstack\Samples\SampleApp\CC2530DB\RouterEB\List
//        --diag_suppress Pe001,Pa010 -o
//        C:\gitmuck\ZStackZigBae\ZStack-CC2530-2.3.1\Projects\zstack\Samples\SampleApp\CC2530DB\RouterEB\Obj
//        -e --debug --core=plain --dptr=16,1 --data_model=large
//        --code_model=banked --calling_convention=xdata_reentrant
//        --place_constants=data_rom --nr_virtual_regs 8 -f
//        C:\gitmuck\ZStackZigBae\ZStack-CC2530-2.3.1\Projects\zstack\Samples\SampleApp\CC2530DB\..\..\..\Tools\CC2530DB\f8wRouter.cfg
//        (-DCPU32MHZ -DROOT=__near_func -DMAC_CFG_APP_PENDING_QUEUE=TRUE
//        -DMAC_CFG_TX_DATA_MAX=5 -DMAC_CFG_TX_MAX=8 -DMAC_CFG_RX_MAX=5
//        -DRTR_NWK) -f
//        C:\gitmuck\ZStackZigBae\ZStack-CC2530-2.3.1\Projects\zstack\Samples\SampleApp\CC2530DB\..\..\..\Tools\CC2530DB\f8wConfig.cfg
//        (-DSECURE=0 -DZG_SECURE_DYNAMIC=0 -DREFLECTOR
//        -DDEFAULT_CHANLIST=0x00000800 -DZDAPP_CONFIG_PAN_ID=0xFFFF
//        -DNWK_START_DELAY=100 -DEXTENDED_JOINING_RANDOM_MASK=0x007F
//        -DBEACON_REQUEST_DELAY=100 -DBEACON_REQ_DELAY_MASK=0x00FF
//        -DLINK_STATUS_JITTER_MASK=0x007F -DROUTE_EXPIRY_TIME=30
//        -DAPSC_ACK_WAIT_DURATION_POLLED=3000 -DNWK_INDIRECT_MSG_TIMEOUT=7
//        -DMAX_RREQ_ENTRIES=8 -DAPSC_MAX_FRAME_RETRIES=3
//        -DNWK_MAX_DATA_RETRIES=2 -DMAX_POLL_FAILURE_RETRIES=2 -DMAX_BCAST=9
//        -DAPS_MAX_GROUPS=16 -DMAX_RTG_ENTRIES=40 -DNWK_MAX_BINDING_ENTRIES=4
//        -DMAX_BINDING_CLUSTER_IDS=4 "-DDEFAULT_KEY={0x01, 0x03, 0x05, 0x07,
//        0x09, 0x0B, 0x0D, 0x0F, 0x00, 0x02, 0x04, 0x06, 0x08, 0x0A, 0x0C,
//        0x0D}" -DMAC_MAX_FRAME_SIZE=116 -DZDNWKMGR_MIN_TRANSMISSIONS=20
//        "-DCONST=const __code" -DGENERIC=__generic -DRFD_RCVC_ALWAYS_ON=FALSE
//        -DPOLL_RATE=1000 -DQUEUED_POLL_RATE=100 -DRESPONSE_POLL_RATE=100
//        -DREJOIN_POLL_RATE=440) -I
//        C:\gitmuck\ZStackZigBae\ZStack-CC2530-2.3.1\Projects\zstack\Samples\SampleApp\CC2530DB\
//        -I
//        C:\gitmuck\ZStackZigBae\ZStack-CC2530-2.3.1\Projects\zstack\Samples\SampleApp\CC2530DB\..\SOURCE\
//        -I
//        C:\gitmuck\ZStackZigBae\ZStack-CC2530-2.3.1\Projects\zstack\Samples\SampleApp\CC2530DB\..\..\..\ZMAIN\TI2530DB\
//        -I
//        C:\gitmuck\ZStackZigBae\ZStack-CC2530-2.3.1\Projects\zstack\Samples\SampleApp\CC2530DB\..\..\..\..\..\COMPONENTS\MT\
//        -I
//        C:\gitmuck\ZStackZigBae\ZStack-CC2530-2.3.1\Projects\zstack\Samples\SampleApp\CC2530DB\..\..\..\..\..\COMPONENTS\HAL\INCLUDE\
//        -I
//        C:\gitmuck\ZStackZigBae\ZStack-CC2530-2.3.1\Projects\zstack\Samples\SampleApp\CC2530DB\..\..\..\..\..\COMPONENTS\HAL\TARGET\CC2530EB\
//        -I
//        C:\gitmuck\ZStackZigBae\ZStack-CC2530-2.3.1\Projects\zstack\Samples\SampleApp\CC2530DB\..\..\..\..\..\COMPONENTS\OSAL\MCU\CCSOC\
//        -I
//        C:\gitmuck\ZStackZigBae\ZStack-CC2530-2.3.1\Projects\zstack\Samples\SampleApp\CC2530DB\..\..\..\..\..\COMPONENTS\OSAL\INCLUDE\
//        -I
//        C:\gitmuck\ZStackZigBae\ZStack-CC2530-2.3.1\Projects\zstack\Samples\SampleApp\CC2530DB\..\..\..\..\..\COMPONENTS\STACK\AF\
//        -I
//        C:\gitmuck\ZStackZigBae\ZStack-CC2530-2.3.1\Projects\zstack\Samples\SampleApp\CC2530DB\..\..\..\..\..\COMPONENTS\STACK\NWK\
//        -I
//        C:\gitmuck\ZStackZigBae\ZStack-CC2530-2.3.1\Projects\zstack\Samples\SampleApp\CC2530DB\..\..\..\..\..\COMPONENTS\STACK\SEC\
//        -I
//        C:\gitmuck\ZStackZigBae\ZStack-CC2530-2.3.1\Projects\zstack\Samples\SampleApp\CC2530DB\..\..\..\..\..\COMPONENTS\STACK\SAPI\
//        -I
//        C:\gitmuck\ZStackZigBae\ZStack-CC2530-2.3.1\Projects\zstack\Samples\SampleApp\CC2530DB\..\..\..\..\..\COMPONENTS\STACK\SYS\
//        -I
//        C:\gitmuck\ZStackZigBae\ZStack-CC2530-2.3.1\Projects\zstack\Samples\SampleApp\CC2530DB\..\..\..\..\..\COMPONENTS\STACK\ZDO\
//        -I
//        C:\gitmuck\ZStackZigBae\ZStack-CC2530-2.3.1\Projects\zstack\Samples\SampleApp\CC2530DB\..\..\..\..\..\COMPONENTS\ZMAC\F8W\
//        -I
//        C:\gitmuck\ZStackZigBae\ZStack-CC2530-2.3.1\Projects\zstack\Samples\SampleApp\CC2530DB\..\..\..\..\..\COMPONENTS\ZMAC\
//        -I
//        C:\gitmuck\ZStackZigBae\ZStack-CC2530-2.3.1\Projects\zstack\Samples\SampleApp\CC2530DB\..\..\..\..\..\COMPONENTS\SERVICES\SADDR\
//        -I
//        C:\gitmuck\ZStackZigBae\ZStack-CC2530-2.3.1\Projects\zstack\Samples\SampleApp\CC2530DB\..\..\..\..\..\COMPONENTS\SERVICES\SDATA\
//        -I
//        C:\gitmuck\ZStackZigBae\ZStack-CC2530-2.3.1\Projects\zstack\Samples\SampleApp\CC2530DB\..\..\..\..\..\COMPONENTS\MAC\INCLUDE\
//        -I
//        C:\gitmuck\ZStackZigBae\ZStack-CC2530-2.3.1\Projects\zstack\Samples\SampleApp\CC2530DB\..\..\..\..\..\COMPONENTS\MAC\HIGH_LEVEL\
//        -I
//        C:\gitmuck\ZStackZigBae\ZStack-CC2530-2.3.1\Projects\zstack\Samples\SampleApp\CC2530DB\..\..\..\..\..\COMPONENTS\MAC\LOW_LEVEL\srf04\
//        -I
//        C:\gitmuck\ZStackZigBae\ZStack-CC2530-2.3.1\Projects\zstack\Samples\SampleApp\CC2530DB\..\..\..\..\..\COMPONENTS\MAC\LOW_LEVEL\srf04\SINGLE_CHIP\
//        -Ohz --require_prototypes)
//    Locale             =  English_USA.1252
//    List file          =  
//        C:\gitmuck\ZStackZigBae\ZStack-CC2530-2.3.1\Projects\zstack\Samples\SampleApp\CC2530DB\RouterEB\List\OSAL_Nv.s51
//
///////////////////////////////////////////////////////////////////////////////

        NAME OSAL_Nv

        RTMODEL "__SystemLibrary", "CLib"
        RTMODEL "__calling_convention", "xdata_reentrant"
        RTMODEL "__code_model", "banked"
        RTMODEL "__core", "plain"
        RTMODEL "__data_model", "large"
        RTMODEL "__dptr_size", "16"
        RTMODEL "__extended_stack", "disabled"
        RTMODEL "__location_for_constants", "data"
        RTMODEL "__number_of_dptrs", "1"
        RTMODEL "__register_banks", "*"
        RTMODEL "__rt_version", "1"

        RSEG DOVERLAY:DATA:NOROOT(0)
        RSEG IOVERLAY:IDATA:NOROOT(0)
        RSEG ISTACK:IDATA:NOROOT(0)
        RSEG PSTACK:XDATA:NOROOT(0)
        RSEG XSTACK:XDATA:NOROOT(0)

        EXTERN ?V0
        EXTERN ?V2
        EXTERN ?V3
        EXTERN ?V1
        EXTERN ?V4
        EXTERN ?V5
        EXTERN ?V6
        EXTERN ?V7
        EXTERN ?ALLOC_XSTACK8
        EXTERN ?BANKED_ENTER_XDATA
        EXTERN ?BANKED_LEAVE_XDATA
        EXTERN ?BDISPATCH
        EXTERN ?BRET
        EXTERN ?DEALLOC_XSTACK8
        EXTERN ?PUSH_XSTACK8_X_TWO
        EXTERN ?PUSH_XSTACK_I_ONE
        EXTERN ?PUSH_XSTACK_I_TWO
        EXTERN ?S_SHL
        EXTERN ?US_SHR
        EXTERN ?XSP
        EXTERN ?XSTACK_DISP0_8
        EXTERN ?XSTACK_DISP102_8
        EXTERN __INIT_XDATA_Z

        FUNCTION `??calcChkF::?relay`,0203H
        FUNCTION `??compactPage::?relay`,0203H
        FUNCTION `??erasePage::?relay`,0203H
        FUNCTION `??findItem::?relay`,0203H
        FUNCTION `??hotItem::?relay`,0203H
        FUNCTION `??hotItemUpdate::?relay`,0203H
        FUNCTION `??initItem::?relay`,0203H
        FUNCTION `??initNV::?relay`,0203H
        FUNCTION `??initPage::?relay`,0203H
        PUBLIC `??osal_nv_init::?relay`
        FUNCTION `??osal_nv_init::?relay`,0203H
        PUBLIC `??osal_nv_item_init::?relay`
        FUNCTION `??osal_nv_item_init::?relay`,0203H
        PUBLIC `??osal_nv_item_len::?relay`
        FUNCTION `??osal_nv_item_len::?relay`,0203H
        PUBLIC `??osal_nv_read::?relay`
        FUNCTION `??osal_nv_read::?relay`,0203H
        PUBLIC `??osal_nv_write::?relay`
        FUNCTION `??osal_nv_write::?relay`,0203H
        FUNCTION `??setChk::?relay`,0203H
        FUNCTION `??setItem::?relay`,0203H
        FUNCTION `??setPageUse::?relay`,0203H
        FUNCTION `??writeBuf::?relay`,0203H
        FUNCTION `??writeItem::?relay`,0203H
        FUNCTION `??writeWord::?relay`,0203H
        FUNCTION `??writeWordH::?relay`,0203H
        FUNCTION `??xferBuf::?relay`,0203H
        PUBLIC _nvBuf
        FUNCTION calcChkF,0a1203H
        ARGFRAME XSTACK, 35, STACK
        ARGFRAME IOVERLAY, 0, STATIC
        ARGFRAME DOVERLAY, 0, STATIC
        LOCFRAME XSTACK, 21, STACK
        FUNCTION compactPage,0a1203H
        ARGFRAME XSTACK, 26, STACK
        ARGFRAME IOVERLAY, 0, STATIC
        ARGFRAME DOVERLAY, 0, STATIC
        LOCFRAME XSTACK, 30, STACK
        FUNCTION erasePage,021203H
        ARGFRAME XSTACK, 35, STACK
        ARGFRAME IOVERLAY, 0, STATIC
        ARGFRAME DOVERLAY, 0, STATIC
        LOCFRAME XSTACK, 9, STACK
        FUNCTION findItem,0a1203H
        ARGFRAME XSTACK, 35, STACK
        ARGFRAME IOVERLAY, 0, STATIC
        ARGFRAME DOVERLAY, 0, STATIC
        LOCFRAME XSTACK, 12, STACK
        FUNCTION hotItem,0203H
        ARGFRAME XSTACK, 18, STACK
        ARGFRAME IOVERLAY, 0, STATIC
        ARGFRAME DOVERLAY, 0, STATIC
        LOCFRAME ISTACK, 2, STACK
        FUNCTION hotItemUpdate,0a1203H
        ARGFRAME XSTACK, 35, STACK
        ARGFRAME IOVERLAY, 0, STATIC
        ARGFRAME DOVERLAY, 0, STATIC
        LOCFRAME ISTACK, 1, STACK
        LOCFRAME XSTACK, 9, STACK
        FUNCTION initItem,0a1203H
        ARGFRAME XSTACK, 37, STACK
        ARGFRAME IOVERLAY, 0, STATIC
        ARGFRAME DOVERLAY, 0, STATIC
        LOCFRAME ISTACK, 1, STACK
        LOCFRAME XSTACK, 29, STACK
        FUNCTION initNV,0a1203H
        ARGFRAME XSTACK, 0, STACK
        ARGFRAME IOVERLAY, 0, STATIC
        ARGFRAME DOVERLAY, 0, STATIC
        LOCFRAME XSTACK, 22, STACK
        FUNCTION initPage,0a1203H
        ARGFRAME XSTACK, 20, STACK
        ARGFRAME IOVERLAY, 0, STATIC
        ARGFRAME DOVERLAY, 0, STATIC
        LOCFRAME XSTACK, 28, STACK
        PUBLIC osal_nv_init
        FUNCTION osal_nv_init,021203H
        ARGFRAME XSTACK, 0, STACK
        LOCFRAME ISTACK, 2, STACK
        PUBLIC osal_nv_item_init
        FUNCTION osal_nv_item_init,0a1203H
        ARGFRAME XSTACK, 2, STACK
        LOCFRAME XSTACK, 14, STACK
        PUBLIC osal_nv_item_len
        FUNCTION osal_nv_item_len,0a1203H
        ARGFRAME XSTACK, 0, STACK
        LOCFRAME XSTACK, 20, STACK
        PUBLIC osal_nv_read
        FUNCTION osal_nv_read,0a1203H
        ARGFRAME XSTACK, 4, STACK
        LOCFRAME XSTACK, 18, STACK
        PUBLIC osal_nv_write
        FUNCTION osal_nv_write,0a1203H
        ARGFRAME XSTACK, 4, STACK
        LOCFRAME ISTACK, 2, STACK
        LOCFRAME XSTACK, 39, STACK
        FUNCTION setChk,0a1203H
        ARGFRAME XSTACK, 35, STACK
        ARGFRAME IOVERLAY, 0, STATIC
        ARGFRAME DOVERLAY, 0, STATIC
        LOCFRAME XSTACK, 16, STACK
        FUNCTION setItem,0a1203H
        ARGFRAME XSTACK, 35, STACK
        ARGFRAME IOVERLAY, 0, STATIC
        ARGFRAME DOVERLAY, 0, STATIC
        LOCFRAME XSTACK, 24, STACK
        FUNCTION setPageUse,021203H
        ARGFRAME XSTACK, 35, STACK
        ARGFRAME IOVERLAY, 0, STATIC
        ARGFRAME DOVERLAY, 0, STATIC
        LOCFRAME XSTACK, 17, STACK
        FUNCTION writeBuf,0a1203H
        ARGFRAME XSTACK, 37, STACK
        ARGFRAME IOVERLAY, 0, STATIC
        ARGFRAME DOVERLAY, 0, STATIC
        LOCFRAME ISTACK, 1, STACK
        LOCFRAME XSTACK, 22, STACK
        FUNCTION writeItem,0a1203H
        ARGFRAME XSTACK, 29, STACK
        ARGFRAME IOVERLAY, 0, STATIC
        ARGFRAME DOVERLAY, 0, STATIC
        LOCFRAME XSTACK, 30, STACK
        FUNCTION writeWord,0a1203H
        ARGFRAME XSTACK, 28, STACK
        ARGFRAME IOVERLAY, 0, STATIC
        ARGFRAME DOVERLAY, 0, STATIC
        LOCFRAME XSTACK, 14, STACK
        FUNCTION writeWordH,021203H
        ARGFRAME XSTACK, 26, STACK
        ARGFRAME IOVERLAY, 0, STATIC
        ARGFRAME DOVERLAY, 0, STATIC
        LOCFRAME ISTACK, 1, STACK
        LOCFRAME XSTACK, 13, STACK
        FUNCTION xferBuf,0a1203H
        ARGFRAME XSTACK, 39, STACK
        ARGFRAME IOVERLAY, 0, STATIC
        ARGFRAME DOVERLAY, 0, STATIC
        LOCFRAME ISTACK, 1, STACK
        LOCFRAME XSTACK, 23, STACK
        
          CFI Names cfiNames0
          CFI StackFrame CFA_SP SP IDATA
          CFI StackFrame CFA_PSP16 PSP16 XDATA
          CFI StackFrame CFA_XSP16 XSP16 XDATA
          CFI StaticOverlayFrame CFA_IOVERLAY IOVERLAY
          CFI StaticOverlayFrame CFA_DOVERLAY DOVERLAY
          CFI Resource `PSW.CY`:1, `B.BR0`:1, `B.BR1`:1, `B.BR2`:1, `B.BR3`:1
          CFI Resource `B.BR4`:1, `B.BR5`:1, `B.BR6`:1, `B.BR7`:1, `VB.BR8`:1
          CFI Resource `VB.BR9`:1, `VB.BR10`:1, `VB.BR11`:1, `VB.BR12`:1
          CFI Resource `VB.BR13`:1, `VB.BR14`:1, `VB.BR15`:1, VB:8, B:8, A:8
          CFI Resource PSW:8, DPL0:8, DPH0:8, R0:8, R1:8, R2:8, R3:8, R4:8, R5:8
          CFI Resource R6:8, R7:8, V0:8, V1:8, V2:8, V3:8, V4:8, V5:8, V6:8, V7:8
          CFI Resource SP:8, PSPH:8, PSPL:8, PSP16:16, XSPH:8, XSPL:8, XSP16:16
          CFI VirtualResource ?RET:24
          CFI Resource ?BRET_EXT:8
          CFI VirtualResource ?RET_HIGH:8, ?RET_LOW:8
          CFI ResourceParts PSP16 PSPH, PSPL
          CFI ResourceParts XSP16 XSPH, XSPL
          CFI ResourceParts ?RET ?BRET_EXT, ?RET_HIGH, ?RET_LOW
          CFI EndNames cfiNames0
        
          CFI Common cfiCommon0 Using cfiNames0
          CFI CodeAlign 1
          CFI DataAlign -1
          CFI ReturnAddress ?RET CODE
          CFI CFA_DOVERLAY Used
          CFI CFA_IOVERLAY Used
          CFI CFA_SP SP+-3
          CFI CFA_PSP16 PSP16+0
          CFI CFA_XSP16 XSP16+0
          CFI `PSW.CY` SameValue
          CFI `B.BR0` SameValue
          CFI `B.BR1` SameValue
          CFI `B.BR2` SameValue
          CFI `B.BR3` SameValue
          CFI `B.BR4` SameValue
          CFI `B.BR5` SameValue
          CFI `B.BR6` SameValue
          CFI `B.BR7` SameValue
          CFI `VB.BR8` SameValue
          CFI `VB.BR9` SameValue
          CFI `VB.BR10` SameValue
          CFI `VB.BR11` SameValue
          CFI `VB.BR12` SameValue
          CFI `VB.BR13` SameValue
          CFI `VB.BR14` SameValue
          CFI `VB.BR15` SameValue
          CFI VB SameValue
          CFI B Undefined
          CFI A Undefined
          CFI PSW SameValue
          CFI DPL0 SameValue
          CFI DPH0 SameValue
          CFI R0 Undefined
          CFI R1 Undefined
          CFI R2 Undefined
          CFI R3 Undefined
          CFI R4 Undefined
          CFI R5 Undefined
          CFI R6 SameValue
          CFI R7 SameValue
          CFI V0 SameValue
          CFI V1 SameValue
          CFI V2 SameValue
          CFI V3 SameValue
          CFI V4 SameValue
          CFI V5 SameValue
          CFI V6 SameValue
          CFI V7 SameValue
          CFI PSPH Undefined
          CFI PSPL Undefined
          CFI XSPH Undefined
          CFI XSPL Undefined
          CFI ?RET Concat
          CFI ?BRET_EXT Frame(CFA_SP, 3)
          CFI ?RET_HIGH Frame(CFA_SP, 2)
          CFI ?RET_LOW Frame(CFA_SP, 1)
          CFI EndCommon cfiCommon0
        
        
          CFI Common cfiCommon1 Using cfiNames0
          CFI CodeAlign 1
          CFI DataAlign -1
          CFI ReturnAddress ?RET CODE
          CFI CFA_DOVERLAY Used
          CFI CFA_IOVERLAY Used
          CFI CFA_SP SP+-2
          CFI CFA_PSP16 PSP16+0
          CFI CFA_XSP16 XSP16+0
          CFI `PSW.CY` SameValue
          CFI `B.BR0` SameValue
          CFI `B.BR1` SameValue
          CFI `B.BR2` SameValue
          CFI `B.BR3` SameValue
          CFI `B.BR4` SameValue
          CFI `B.BR5` SameValue
          CFI `B.BR6` SameValue
          CFI `B.BR7` SameValue
          CFI `VB.BR8` SameValue
          CFI `VB.BR9` SameValue
          CFI `VB.BR10` SameValue
          CFI `VB.BR11` SameValue
          CFI `VB.BR12` SameValue
          CFI `VB.BR13` SameValue
          CFI `VB.BR14` SameValue
          CFI `VB.BR15` SameValue
          CFI VB SameValue
          CFI B SameValue
          CFI A SameValue
          CFI PSW SameValue
          CFI DPL0 SameValue
          CFI DPH0 SameValue
          CFI R0 SameValue
          CFI R1 SameValue
          CFI R2 SameValue
          CFI R3 SameValue
          CFI R4 SameValue
          CFI R5 SameValue
          CFI R6 SameValue
          CFI R7 SameValue
          CFI V0 SameValue
          CFI V1 SameValue
          CFI V2 SameValue
          CFI V3 SameValue
          CFI V4 SameValue
          CFI V5 SameValue
          CFI V6 SameValue
          CFI V7 SameValue
          CFI PSPH Undefined
          CFI PSPL Undefined
          CFI XSPH Undefined
          CFI XSPL Undefined
          CFI ?RET Concat
          CFI ?BRET_EXT SameValue
          CFI ?RET_HIGH Frame(CFA_SP, 2)
          CFI ?RET_LOW Frame(CFA_SP, 1)
          CFI EndCommon cfiCommon1
        
HalAdcCheckVdd      SYMBOL "HalAdcCheckVdd"
`??HalAdcCheckVdd::?relay` SYMBOL "?relay", HalAdcCheckVdd
HalFlashErase       SYMBOL "HalFlashErase"
`??HalFlashErase::?relay` SYMBOL "?relay", HalFlashErase
HalFlashRead        SYMBOL "HalFlashRead"
`??HalFlashRead::?relay` SYMBOL "?relay", HalFlashRead
HalFlashWrite       SYMBOL "HalFlashWrite"
`??HalFlashWrite::?relay` SYMBOL "?relay", HalFlashWrite
osal_nv_init        SYMBOL "osal_nv_init"
`??osal_nv_init::?relay` SYMBOL "?relay", osal_nv_init
osal_nv_item_init   SYMBOL "osal_nv_item_init"
`??osal_nv_item_init::?relay` SYMBOL "?relay", osal_nv_item_init
osal_nv_item_len    SYMBOL "osal_nv_item_len"
`??osal_nv_item_len::?relay` SYMBOL "?relay", osal_nv_item_len
osal_nv_read        SYMBOL "osal_nv_read"
`??osal_nv_read::?relay` SYMBOL "?relay", osal_nv_read
osal_nv_write       SYMBOL "osal_nv_write"
`??osal_nv_write::?relay` SYMBOL "?relay", osal_nv_write

        EXTERN `??HalAdcCheckVdd::?relay`
        FUNCTION `??HalAdcCheckVdd::?relay`,00H
        EXTERN `??HalFlashErase::?relay`
        FUNCTION `??HalFlashErase::?relay`,00H
        EXTERN `??HalFlashRead::?relay`
        FUNCTION `??HalFlashRead::?relay`,00H
        EXTERN `??HalFlashWrite::?relay`
        FUNCTION `??HalFlashWrite::?relay`,00H
        EXTERN HalAdcCheckVdd
        FUNCTION HalAdcCheckVdd,0202H
        ARGFRAME ISTACK, 0, STACK
        ARGFRAME PSTACK, 0, STACK
        ARGFRAME XSTACK, 35, STACK
        ARGFRAME IOVERLAY, 0, STATIC
        ARGFRAME DOVERLAY, 0, STATIC
        EXTERN HalFlashErase
        FUNCTION HalFlashErase,0202H
        ARGFRAME ISTACK, 0, STACK
        ARGFRAME PSTACK, 0, STACK
        ARGFRAME XSTACK, 9, STACK
        ARGFRAME IOVERLAY, 0, STATIC
        ARGFRAME DOVERLAY, 0, STATIC
        EXTERN HalFlashRead
        FUNCTION HalFlashRead,0202H
        ARGFRAME ISTACK, 0, STACK
        ARGFRAME PSTACK, 0, STACK
        ARGFRAME XSTACK, 37, STACK
        ARGFRAME IOVERLAY, 0, STATIC
        ARGFRAME DOVERLAY, 0, STATIC
        EXTERN HalFlashWrite
        FUNCTION HalFlashWrite,0202H
        ARGFRAME ISTACK, 0, STACK
        ARGFRAME PSTACK, 0, STACK
        ARGFRAME XSTACK, 22, STACK
        ARGFRAME IOVERLAY, 0, STATIC
        ARGFRAME DOVERLAY, 0, STATIC

// C:\gitmuck\ZStackZigBae\ZStack-CC2530-2.3.1\Components\osal\mcu\cc2530\OSAL_Nv.c
//    1 /**************************************************************************************************
//    2   Filename:       OSAL_Nv.c
//    3   Revised:        $Date: 2010-08-18 18:14:18 -0700 (Wed, 18 Aug 2010) $
//    4   Revision:       $Revision: 23450 $
//    5 
//    6   Description:    This module contains the OSAL non-volatile memory functions.
//    7 
//    8 
//    9   Copyright 2006-2010 Texas Instruments Incorporated. All rights reserved.
//   10 
//   11   IMPORTANT: Your use of this Software is limited to those specific rights
//   12   granted under the terms of a software license agreement between the user
//   13   who downloaded the software, his/her employer (which must be your employer)
//   14   and Texas Instruments Incorporated (the "License").  You may not use this
//   15   Software unless you agree to abide by the terms of the License. The License
//   16   limits your use, and you acknowledge, that the Software may not be modified,
//   17   copied or distributed unless embedded on a Texas Instruments microcontroller
//   18   or used solely and exclusively in conjunction with a Texas Instruments radio
//   19   frequency transceiver, which is integrated into your product.  Other than for
//   20   the foregoing purpose, you may not use, reproduce, copy, prepare derivative
//   21   works of, modify, distribute, perform, display or sell this Software and/or
//   22   its documentation for any purpose.
//   23 
//   24   YOU FURTHER ACKNOWLEDGE AND AGREE THAT THE SOFTWARE AND DOCUMENTATION ARE
//   25   PROVIDED “AS IS” WITHOUT WARRANTY OF ANY KIND, EITHER EXPRESS OR IMPLIED,
//   26   INCLUDING WITHOUT LIMITATION, ANY WARRANTY OF MERCHANTABILITY, TITLE,
//   27   NON-INFRINGEMENT AND FITNESS FOR A PARTICULAR PURPOSE. IN NO EVENT SHALL
//   28   TEXAS INSTRUMENTS OR ITS LICENSORS BE LIABLE OR OBLIGATED UNDER CONTRACT,
//   29   NEGLIGENCE, STRICT LIABILITY, CONTRIBUTION, BREACH OF WARRANTY, OR OTHER
//   30   LEGAL EQUITABLE THEORY ANY DIRECT OR INDIRECT DAMAGES OR EXPENSES
//   31   INCLUDING BUT NOT LIMITED TO ANY INCIDENTAL, SPECIAL, INDIRECT, PUNITIVE
//   32   OR CONSEQUENTIAL DAMAGES, LOST PROFITS OR LOST DATA, COST OF PROCUREMENT
//   33   OF SUBSTITUTE GOODS, TECHNOLOGY, SERVICES, OR ANY CLAIMS BY THIRD PARTIES
//   34   (INCLUDING BUT NOT LIMITED TO ANY DEFENSE THEREOF), OR OTHER SIMILAR COSTS.
//   35 
//   36   Should you have any questions regarding your right to use this Software,
//   37   contact Texas Instruments Incorporated at www.TI.com.
//   38 **************************************************************************************************/
//   39 
//   40 /**************************************************************************************************
//   41   Notes:
//   42     - A trick buried deep in initPage() requires that the MSB of the NV Item Id is to
//   43       be reserved for use by this module.
//   44 **************************************************************************************************/
//   45 
//   46 /*********************************************************************
//   47  * INCLUDES
//   48  */
//   49 
//   50 #include "hal_adc.h"
//   51 #include "hal_flash.h"
//   52 #include "hal_types.h"
//   53 #include "OSAL_Nv.h"
//   54 #include "ZComDef.h"
//   55 
//   56 /*********************************************************************
//   57  * CONSTANTS
//   58  */
//   59 
//   60 #define OSAL_NV_PAGE_SIZE       HAL_FLASH_PAGE_SIZE
//   61 #define OSAL_NV_PAGES_USED      HAL_NV_PAGE_CNT
//   62 #define OSAL_NV_PAGE_BEG        HAL_NV_PAGE_BEG
//   63 #define OSAL_NV_PAGE_END       (OSAL_NV_PAGE_BEG + OSAL_NV_PAGES_USED - 1)
//   64 
//   65 #define OSAL_NV_ACTIVE          0x00
//   66 #define OSAL_NV_ERASED          0xFF
//   67 #define OSAL_NV_ERASED_ID       0xFFFF
//   68 #define OSAL_NV_ZEROED_ID       0x0000
//   69 // Reserve MSB of Id to signal a search for the "old" source copy (new write interrupted/failed.)
//   70 #define OSAL_NV_SOURCE_ID       0x8000
//   71 
//   72 // In case pages 0-1 are ever used, define a null page value.
//   73 #define OSAL_NV_PAGE_NULL       0
//   74 
//   75 // In case item Id 0 is ever used, define a null item value.
//   76 #define OSAL_NV_ITEM_NULL       0
//   77 
//   78 #define OSAL_NV_WORD_SIZE       HAL_FLASH_WORD_SIZE
//   79 
//   80 #define OSAL_NV_PAGE_HDR_OFFSET 0
//   81 
//   82 #define OSAL_NV_MAX_HOT         3

        RSEG XDATA_ROM_C:CONST:REORDER:NOROOT(0)
        DATA8
//   83 static const uint16 hotIds[OSAL_NV_MAX_HOT] = {
hotIds:
        DATA16
        DW 130
        DW 58
        DW 59
//   84   ZCD_NV_NWKKEY,
//   85   ZCD_NV_NWK_ACTIVE_KEY_INFO,
//   86   ZCD_NV_NWK_ALTERN_KEY_INFO,
//   87 };  
//   88 
//   89 /*********************************************************************
//   90  * MACROS
//   91  */
//   92 
//   93 #define OSAL_NV_CHECK_BUS_VOLTAGE  HalAdcCheckVdd(VDD_MIN_NV)
//   94 
//   95 #define OSAL_NV_DATA_SIZE( LEN )                      \ 
//   96   (((LEN) >= ((uint16)(65536UL - OSAL_NV_WORD_SIZE))) ? \ 
//   97              ((uint16)(65536UL - OSAL_NV_WORD_SIZE))  : \ 
//   98              ((((LEN) + OSAL_NV_WORD_SIZE - 1) / OSAL_NV_WORD_SIZE) * OSAL_NV_WORD_SIZE))
//   99 
//  100 #define OSAL_NV_ITEM_SIZE( LEN )                                         \ 
//  101   (((LEN) >= ((uint16)(65536UL - OSAL_NV_WORD_SIZE - OSAL_NV_HDR_SIZE))) ? \ 
//  102              ((uint16)(65536UL - OSAL_NV_WORD_SIZE))                     : \ 
//  103   (((((LEN) + OSAL_NV_WORD_SIZE - 1) / OSAL_NV_WORD_SIZE) * OSAL_NV_WORD_SIZE) + OSAL_NV_HDR_SIZE))
//  104 
//  105 #define COMPACT_PAGE_CLEANUP( COM_PG ) st ( \ 
//  106   /* In order to recover from a page compaction that is interrupted,\ 
//  107    * the logic in osal_nv_init() depends upon the following order:\ 
//  108    * 1. State of the target of compaction is changed to ePgInUse.\ 
//  109    * 2. Compacted page is erased.\ 
//  110    */\ 
//  111   setPageUse( pgRes, TRUE );  /* Mark the reserve page as being in use. */\ 
//  112   erasePage( (COM_PG) ); \ 
//  113   \ 
//  114   pgRes = (COM_PG);           /* Set the reserve page to be the newly erased page. */\ 
//  115 )
//  116 
//  117 /*********************************************************************
//  118  * TYPEDEFS
//  119  */
//  120 
//  121 typedef struct
//  122 {
//  123   uint16 id;
//  124   uint16 len;   // Enforce Flash-WORD size on len.
//  125   uint16 chk;   // Byte-wise checksum of the 'len' data bytes of the item.
//  126   uint16 stat;  // Item status.
//  127 } osalNvHdr_t;
//  128 // Struct member offsets.
//  129 #define OSAL_NV_HDR_ID    0
//  130 #define OSAL_NV_HDR_LEN   2
//  131 #define OSAL_NV_HDR_CHK   4
//  132 #define OSAL_NV_HDR_STAT  6
//  133 
//  134 #define OSAL_NV_HDR_ITEM  2  // Length of any item of a header struct.
//  135 #define OSAL_NV_HDR_SIZE  8
//  136 #define OSAL_NV_HDR_HALF (OSAL_NV_HDR_SIZE / 2)
//  137 
//  138 typedef struct
//  139 {
//  140   uint16 active;
//  141   uint16 inUse;
//  142   uint16 xfer;
//  143   uint16 spare;
//  144 } osalNvPgHdr_t;
//  145 // Struct member offsets.
//  146 #define OSAL_NV_PG_ACTIVE 0
//  147 #define OSAL_NV_PG_INUSE  2
//  148 #define OSAL_NV_PG_XFER   4
//  149 #define OSAL_NV_PG_SPARE  6
//  150 
//  151 #define OSAL_NV_PAGE_HDR_SIZE  8
//  152 #define OSAL_NV_PAGE_HDR_HALF (OSAL_NV_PAGE_HDR_SIZE / 2)
//  153 
//  154 typedef enum
//  155 {
//  156   eNvXfer,
//  157   eNvZero
//  158 } eNvHdrEnum;
//  159 
//  160 typedef enum
//  161 {
//  162   ePgActive,
//  163   ePgInUse,
//  164   ePgXfer,
//  165   ePgSpare
//  166 } ePgHdrEnum;
//  167 
//  168 /*********************************************************************
//  169  * GLOBAL VARIABLES
//  170  */
//  171 
//  172 #ifndef OAD_KEEP_NV_PAGES
//  173 // When NV pages are to remain intact during OAD download,
//  174 // the image itself should not include NV pages.
//  175 #pragma location="ZIGNV_ADDRESS_SPACE"

        RSEG ZIGNV_ADDRESS_SPACE:XDATA:REORDER:NOROOT(0)
        DATA8
//  176 __no_init uint8 _nvBuf[OSAL_NV_PAGES_USED * OSAL_NV_PAGE_SIZE];
_nvBuf:
        DS 12288
//  177 #pragma required=_nvBuf
//  178 #endif // OAD_KEEP_NV_PAGES
//  179 
//  180 /*********************************************************************
//  181  * LOCAL VARIABLES
//  182  */
//  183 
//  184 // Offset into the page of the first available erased space.

        RSEG XDATA_Z:XDATA:NOROOT(0)
        DATA8
//  185 static uint16 pgOff[OSAL_NV_PAGES_USED];
pgOff:
        DS 12
        REQUIRE __INIT_XDATA_Z
        REQUIRE _nvBuf
//  186 
//  187 // Count of the bytes lost for the zeroed-out items.

        RSEG XDATA_Z:XDATA:NOROOT(0)
        DATA8
//  188 static uint16 pgLost[OSAL_NV_PAGES_USED];
pgLost:
        DS 12
        REQUIRE __INIT_XDATA_Z
//  189 

        RSEG XDATA_Z:XDATA:NOROOT(0)
        DATA8
//  190 static uint8 pgRes;  // Page reserved for item compacting transfer.
pgRes:
        DS 1
        REQUIRE __INIT_XDATA_Z
//  191 
//  192 // Saving ~100 code bytes to move a uint8* parameter/return value from findItem() to a global.

        RSEG XDATA_Z:XDATA:NOROOT(0)
        DATA8
//  193 static uint8 findPg;
findPg:
        DS 1
        REQUIRE __INIT_XDATA_Z
//  194 
//  195 // NV page and offsets for hot items.

        RSEG XDATA_Z:XDATA:NOROOT(0)
        DATA8
//  196 static uint8 hotPg[OSAL_NV_MAX_HOT];
hotPg:
        DS 3
        REQUIRE __INIT_XDATA_Z

        RSEG XDATA_Z:XDATA:NOROOT(0)
        DATA8
//  197 static uint16 hotOff[OSAL_NV_MAX_HOT];
hotOff:
        DS 6
        REQUIRE __INIT_XDATA_Z
//  198 
//  199 /*********************************************************************
//  200  * LOCAL FUNCTIONS
//  201  */
//  202 
//  203 static uint8  initNV( void );
//  204 
//  205 static void   setPageUse( uint8 pg, uint8 inUse );
//  206 static uint16 initPage( uint8 pg, uint16 id, uint8 findDups );
//  207 static void   erasePage( uint8 pg );
//  208 static uint8  compactPage( uint8 srcPg, uint16 skipId );
//  209 
//  210 static uint16 findItem( uint16 id );
//  211 static uint8  initItem( uint8 flag, uint16 id, uint16 len, void *buf );
//  212 static void   setItem( uint8 pg, uint16 offset, eNvHdrEnum stat );
//  213 static uint16 setChk( uint8 pg, uint16 offset, uint16 chk );
//  214 
//  215 static uint16 calcChkB( uint16 len, uint8 *buf );
//  216 static uint16 calcChkF( uint8 pg, uint16 offset, uint16 len );
//  217 
//  218 static void   writeWord( uint8 pg, uint16 offset, uint8 *buf );
//  219 static void   writeWordH( uint8 pg, uint16 offset, uint8 *buf );
//  220 static void   writeWordM( uint8 pg, uint16 offset, uint8 *buf, uint16 cnt );
//  221 static void   writeBuf( uint8 pg, uint16 offset, uint16 len, uint8 *buf );
//  222 static void   xferBuf( uint8 srcPg, uint16 srcOff, uint8 dstPg, uint16 dstOff, uint16 len );
//  223 
//  224 static uint8  writeItem( uint8 pg, uint16 id, uint16 len, void *buf, uint8 flag );
//  225 static uint8  hotItem(uint16 id);
//  226 static void   hotItemUpdate(uint8 pg, uint16 off, uint16 id);
//  227 
//  228 /*********************************************************************
//  229  * @fn      initNV
//  230  *
//  231  * @brief   Initialize the NV flash pages.
//  232  *
//  233  * @param   none
//  234  *
//  235  * @return  TRUE
//  236  */

        RSEG BANKED_CODE:HUGECODE:NOROOT(0)
//  237 static uint8 initNV( void )
initNV:
          CFI Block cfiBlock0 Using cfiCommon0
          CFI Function initNV
        CODE
//  238 {
        FUNCALL initNV, HalFlashRead
        LOCFRAME ISTACK, 0, STACK
        LOCFRAME PSTACK, 0, STACK
        LOCFRAME XSTACK, 22, STACK
        LOCFRAME IOVERLAY, 0, STATIC
        LOCFRAME DOVERLAY, 0, STATIC
        ARGFRAME ISTACK, 0, STACK
        ARGFRAME PSTACK, 0, STACK
        ARGFRAME XSTACK, 22, STACK
        ARGFRAME IOVERLAY, 0, STATIC
        ARGFRAME DOVERLAY, 0, STATIC
        FUNCALL initNV, setPageUse
        LOCFRAME ISTACK, 0, STACK
        LOCFRAME PSTACK, 0, STACK
        LOCFRAME XSTACK, 20, STACK
        LOCFRAME IOVERLAY, 0, STATIC
        LOCFRAME DOVERLAY, 0, STATIC
        ARGFRAME ISTACK, 0, STACK
        ARGFRAME PSTACK, 0, STACK
        ARGFRAME XSTACK, 20, STACK
        ARGFRAME IOVERLAY, 0, STATIC
        ARGFRAME DOVERLAY, 0, STATIC
        FUNCALL initNV, erasePage
        LOCFRAME ISTACK, 0, STACK
        LOCFRAME PSTACK, 0, STACK
        LOCFRAME XSTACK, 20, STACK
        LOCFRAME IOVERLAY, 0, STATIC
        LOCFRAME DOVERLAY, 0, STATIC
        ARGFRAME ISTACK, 0, STACK
        ARGFRAME PSTACK, 0, STACK
        ARGFRAME XSTACK, 20, STACK
        ARGFRAME IOVERLAY, 0, STATIC
        ARGFRAME DOVERLAY, 0, STATIC
        FUNCALL initNV, compactPage
        LOCFRAME ISTACK, 0, STACK
        LOCFRAME PSTACK, 0, STACK
        LOCFRAME XSTACK, 20, STACK
        LOCFRAME IOVERLAY, 0, STATIC
        LOCFRAME DOVERLAY, 0, STATIC
        ARGFRAME ISTACK, 0, STACK
        ARGFRAME PSTACK, 0, STACK
        ARGFRAME XSTACK, 20, STACK
        ARGFRAME IOVERLAY, 0, STATIC
        ARGFRAME DOVERLAY, 0, STATIC
        FUNCALL initNV, erasePage
        LOCFRAME ISTACK, 0, STACK
        LOCFRAME PSTACK, 0, STACK
        LOCFRAME XSTACK, 20, STACK
        LOCFRAME IOVERLAY, 0, STATIC
        LOCFRAME DOVERLAY, 0, STATIC
        ARGFRAME ISTACK, 0, STACK
        ARGFRAME PSTACK, 0, STACK
        ARGFRAME XSTACK, 20, STACK
        ARGFRAME IOVERLAY, 0, STATIC
        ARGFRAME DOVERLAY, 0, STATIC
        FUNCALL initNV, erasePage
        LOCFRAME ISTACK, 0, STACK
        LOCFRAME PSTACK, 0, STACK
        LOCFRAME XSTACK, 20, STACK
        LOCFRAME IOVERLAY, 0, STATIC
        LOCFRAME DOVERLAY, 0, STATIC
        ARGFRAME ISTACK, 0, STACK
        ARGFRAME PSTACK, 0, STACK
        ARGFRAME XSTACK, 20, STACK
        ARGFRAME IOVERLAY, 0, STATIC
        ARGFRAME DOVERLAY, 0, STATIC
        FUNCALL initNV, initPage
        LOCFRAME ISTACK, 0, STACK
        LOCFRAME PSTACK, 0, STACK
        LOCFRAME XSTACK, 20, STACK
        LOCFRAME IOVERLAY, 0, STATIC
        LOCFRAME DOVERLAY, 0, STATIC
        ARGFRAME ISTACK, 0, STACK
        ARGFRAME PSTACK, 0, STACK
        ARGFRAME XSTACK, 20, STACK
        ARGFRAME IOVERLAY, 0, STATIC
        ARGFRAME DOVERLAY, 0, STATIC
        FUNCALL initNV, initPage
        LOCFRAME ISTACK, 0, STACK
        LOCFRAME PSTACK, 0, STACK
        LOCFRAME XSTACK, 20, STACK
        LOCFRAME IOVERLAY, 0, STATIC
        LOCFRAME DOVERLAY, 0, STATIC
        ARGFRAME ISTACK, 0, STACK
        ARGFRAME PSTACK, 0, STACK
        ARGFRAME XSTACK, 20, STACK
        ARGFRAME IOVERLAY, 0, STATIC
        ARGFRAME DOVERLAY, 0, STATIC
        FUNCALL initNV, erasePage
        LOCFRAME ISTACK, 0, STACK
        LOCFRAME PSTACK, 0, STACK
        LOCFRAME XSTACK, 20, STACK
        LOCFRAME IOVERLAY, 0, STATIC
        LOCFRAME DOVERLAY, 0, STATIC
        ARGFRAME ISTACK, 0, STACK
        ARGFRAME PSTACK, 0, STACK
        ARGFRAME XSTACK, 20, STACK
        ARGFRAME IOVERLAY, 0, STATIC
        ARGFRAME DOVERLAY, 0, STATIC
        REQUIRE ?V0
        REQUIRE ?V2
        REQUIRE ?V3
        MOV       A,#-0xc
        LCALL     ?BANKED_ENTER_XDATA
          CFI DPH0 load(1, XDATA, add(CFA_XSP16, literal(-1)))
          CFI DPL0 load(1, XDATA, add(CFA_XSP16, literal(-2)))
          CFI ?BRET_EXT load(1, XDATA, add(CFA_XSP16, literal(-3)))
          CFI ?RET_HIGH load(1, XDATA, add(CFA_XSP16, literal(-4)))
          CFI ?RET_LOW load(1, XDATA, add(CFA_XSP16, literal(-5)))
          CFI R7 load(1, XDATA, add(CFA_XSP16, literal(-6)))
          CFI V3 load(1, XDATA, add(CFA_XSP16, literal(-7)))
          CFI V2 load(1, XDATA, add(CFA_XSP16, literal(-8)))
          CFI V1 load(1, XDATA, add(CFA_XSP16, literal(-9)))
          CFI V0 load(1, XDATA, add(CFA_XSP16, literal(-10)))
          CFI VB load(1, XDATA, add(CFA_XSP16, literal(-11)))
          CFI R6 load(1, XDATA, add(CFA_XSP16, literal(-12)))
          CFI CFA_SP SP+0
          CFI CFA_XSP16 add(XSP16, 12)
        ; Saved register size: 12
        ; Auto size: 8
        MOV       A,#-0x8
        LCALL     ?ALLOC_XSTACK8
          CFI CFA_XSP16 add(XSP16, 20)
//  239   osalNvPgHdr_t pgHdr;
//  240   uint8 oldPg = OSAL_NV_PAGE_NULL;
        MOV       ?V0,#0x0
//  241   uint8 findDups = FALSE;
        MOV       R7,#0x0
//  242   uint8 pg;
//  243 
//  244   pgRes = OSAL_NV_PAGE_NULL;
        MOV       DPTR,#pgRes
        CLR       A
        MOVX      @DPTR,A
//  245 
//  246   for ( pg = OSAL_NV_PAGE_BEG; pg <= OSAL_NV_PAGE_END; pg++ )
        MOV       R6,#0x79
//  247   {
//  248     HalFlashRead(pg, OSAL_NV_PAGE_HDR_OFFSET, (uint8 *)(&pgHdr), OSAL_NV_HDR_SIZE);
??initNV_0:
        ; Setup parameters for call to function HalFlashRead
        MOV       ?V2,#0x8
        MOV       ?V3,R7
        MOV       R0,#?V2
        LCALL     ?PUSH_XSTACK_I_TWO
          CFI CFA_XSP16 add(XSP16, 22)
        MOV       A,#0x2
        LCALL     ?XSTACK_DISP102_8
        MOV       R2,#0x0
        MOV       R3,#0x0
        MOV       A,R6
        LCALL     ??Subroutine57_0 & 0xFFFF
??CrossCallReturnLabel_122:
        LCALL     ?DEALLOC_XSTACK8
          CFI CFA_XSP16 add(XSP16, 20)
//  249 
//  250     if ( pgHdr.active == OSAL_NV_ERASED_ID )
        MOV       DPL,?XSP + 0
        MOV       DPH,?XSP + 1
        MOVX      A,@DPTR
        CPL       A
        JNZ       ??initNV_1
        INC       DPTR
        MOVX      A,@DPTR
        CPL       A
??initNV_1:
        JNZ       ??initNV_2
//  251     {
//  252       if ( pgRes == OSAL_NV_PAGE_NULL )
        MOV       DPTR,#pgRes
        MOVX      A,@DPTR
        JNZ       ??initNV_3
//  253       {
//  254         pgRes = pg;
        MOV       A,R6
        MOVX      @DPTR,A
        SJMP      ??initNV_4
//  255       }
//  256       else
//  257       {
//  258         setPageUse( pg, TRUE );
??initNV_3:
        ; Setup parameters for call to function setPageUse
        MOV       R2,#0x1
        MOV       A,R6
        MOV       R1,A
        LCALL     `??setPageUse::?relay`; Banked call to: setPageUse
        SJMP      ??initNV_4
//  259       }
//  260     }
//  261     // An Xfer from this page was in progress.
//  262     else if ( pgHdr.xfer != OSAL_NV_ERASED_ID )
??initNV_2:
        MOV       A,#0x4
        LCALL     ?XSTACK_DISP0_8
        MOVX      A,@DPTR
        CPL       A
        JNZ       ??initNV_5
        INC       DPTR
        MOVX      A,@DPTR
        CPL       A
??initNV_5:
        JZ        ??initNV_4
//  263     {
//  264       oldPg = pg;
        MOV       ?V0,R6
//  265     }
//  266   }
??initNV_4:
        INC       R6
        MOV       A,R6
        CLR       C
        SUBB      A,#0x7f
        JC        ??initNV_0
//  267 
//  268   // If a page compaction was interrupted before the old page was erased.
//  269   if ( oldPg != OSAL_NV_PAGE_NULL )
        MOV       A,?V0
        MOV       DPTR,#pgRes
        JZ        ??initNV_6
//  270   {
//  271     /* Interrupted compaction before the target of compaction was put in use;
//  272      * so erase the target of compaction and start again.
//  273      */
//  274     if ( pgRes != OSAL_NV_PAGE_NULL )
        MOVX      A,@DPTR
        JZ        ??initNV_7
//  275     {
//  276       erasePage( pgRes );
        ; Setup parameters for call to function erasePage
        MOV       R1,A
        LCALL     `??erasePage::?relay`; Banked call to: erasePage
//  277       (void)compactPage( oldPg, OSAL_NV_ITEM_NULL );
        ; Setup parameters for call to function compactPage
        MOV       R2,#0x0
        MOV       R3,#0x0
        MOV       R1,?V0
        LCALL     `??compactPage::?relay`; Banked call to: compactPage
        SJMP      ??initNV_8
//  278     }
//  279     /* Interrupted compaction after the target of compaction was put in use,
//  280      * but before the old page was erased; so erase it now and create a new reserve page.
//  281      */
//  282     else
//  283     {
//  284       erasePage( oldPg );
??initNV_7:
        ; Setup parameters for call to function erasePage
        MOV       R1,?V0
        LCALL     `??erasePage::?relay`; Banked call to: erasePage
//  285       pgRes = oldPg;
        MOV       A,?V0
        MOV       DPTR,#pgRes
        MOVX      @DPTR,A
        SJMP      ??initNV_8
//  286     }
//  287   }
//  288   else if ( pgRes != OSAL_NV_PAGE_NULL )
??initNV_6:
        MOVX      A,@DPTR
        JZ        ??initNV_8
//  289   {
//  290     erasePage( pgRes );  // The last page erase could have been interrupted by a power-cycle.
        ; Setup parameters for call to function erasePage
        MOV       R1,A
        LCALL     `??erasePage::?relay`; Banked call to: erasePage
//  291   }
//  292   /* else if there is no reserve page, COMPACT_PAGE_CLEANUP() must have succeeded to put the old
//  293    * reserve page (i.e. the target of the compacted items) into use but got interrupted by a reset
//  294    * while trying to erase the page to be compacted. Such a page should only contain duplicate items
//  295    * (i.e. all items will be marked 'Xfer') and thus should have the lost count equal to the page
//  296    * size less the page header.
//  297    */
//  298 
//  299   for ( pg = OSAL_NV_PAGE_BEG; pg <= OSAL_NV_PAGE_END; pg++ )
??initNV_8:
        MOV       R6,#0x79
//  300   {
//  301     // Calculate page offset and lost bytes - any "old" item triggers an N^2 re-scan from start.
//  302     if ( initPage( pg, OSAL_NV_ITEM_NULL, findDups ) != OSAL_NV_ITEM_NULL )
??initNV_9:
        ; Setup parameters for call to function initPage
        MOV       A,R7
        MOV       R4,A
        MOV       R2,#0x0
        MOV       R3,#0x0
        MOV       A,R6
        MOV       R1,A
        LCALL     `??initPage::?relay`; Banked call to: initPage
        MOV       A,R2
        ORL       A,R3
        JZ        ??initNV_10
//  303     {
//  304       findDups = TRUE;
        MOV       R7,#0x1
//  305       pg = (OSAL_NV_PAGE_BEG - 1);  // Pre-decrement so that loop increment will start over at zero.
        MOV       R6,#0x78
//  306       continue;
//  307     }
//  308   }
??initNV_10:
        INC       R6
        MOV       A,R6
        CLR       C
        SUBB      A,#0x7f
        JC        ??initNV_9
//  309 
//  310   if (findDups)
        MOV       A,R7
        MOV       C,0xE0 /* A   */.0
        JNC       ??initNV_11
//  311   {
//  312     // Final pass to calculate page lost after invalidating duplicate items.
//  313     for ( pg = OSAL_NV_PAGE_BEG; pg <= OSAL_NV_PAGE_END; pg++ )
        MOV       R6,#0x79
//  314     {
//  315       (void)initPage( pg, OSAL_NV_ITEM_NULL, FALSE );
??initNV_12:
        ; Setup parameters for call to function initPage
        MOV       R4,#0x0
        MOV       R2,#0x0
        MOV       R3,#0x0
        MOV       A,R6
        MOV       R1,A
        LCALL     `??initPage::?relay`; Banked call to: initPage
//  316     }
        INC       R6
        MOV       A,R6
        CLR       C
        SUBB      A,#0x7f
        JC        ??initNV_12
//  317   }
//  318 
//  319   if ( pgRes == OSAL_NV_PAGE_NULL )
??initNV_11:
        MOV       DPTR,#pgRes
        MOVX      A,@DPTR
        JNZ       ??initNV_13
//  320   {
//  321     uint8 idx, mostLost = 0;
        MOV       R6,#0x0
//  322 
//  323     for ( idx = 0; idx < OSAL_NV_PAGES_USED; idx++ )
        MOV       R4,#0x0
//  324     {
//  325       // Is this the page that was compacted?
//  326       if (pgLost[idx] == (OSAL_NV_PAGE_SIZE - OSAL_NV_PAGE_HDR_SIZE))
??initNV_14:
        MOV       A,R4
        LCALL     ?Subroutine29 & 0xFFFF
??CrossCallReturnLabel_60:
        LCALL     ?Subroutine11 & 0xFFFF
??CrossCallReturnLabel_155:
        MOV       A,#-0x8
        XRL       A,R2
        JNZ       ??initNV_15
        MOV       A,#0x7
        XRL       A,R3
??initNV_15:
        JNZ       ??initNV_16
//  327       {
//  328         mostLost = idx;
        MOV       A,R4
        MOV       R6,A
//  329         break;
        SJMP      ??initNV_17
//  330       }
//  331       /* This check is not expected to be necessary because the above test should always succeed
//  332        * with an early loop exit.
//  333        */
//  334       else if (pgLost[idx] > pgLost[mostLost]) 
??initNV_16:
        MOV       A,R6
        LCALL     ?Subroutine29 & 0xFFFF
??CrossCallReturnLabel_61:
        ADDC      A,R1
        MOV       DPH,A
        CLR       C
        MOVX      A,@DPTR
        SUBB      A,R2
        INC       DPTR
        MOVX      A,@DPTR
        SUBB      A,R3
        JNC       ??initNV_18
//  335       {
//  336         mostLost = idx;
        MOV       A,R4
        MOV       R6,A
//  337       }
//  338     }
??initNV_18:
        INC       R4
        MOV       A,R4
        CLR       C
        SUBB      A,#0x6
        JC        ??initNV_14
//  339 
//  340     pgRes = mostLost + OSAL_NV_PAGE_BEG;
??initNV_17:
        MOV       A,#0x79
        ADD       A,R6
        MOV       DPTR,#pgRes
        MOVX      @DPTR,A
//  341     erasePage( pgRes );  // The last page erase had been interrupted by a power-cycle.
        ; Setup parameters for call to function erasePage
        MOV       R1,A
        LCALL     `??erasePage::?relay`; Banked call to: erasePage
//  342   }
//  343 
//  344   return TRUE;
??initNV_13:
        MOV       R1,#0x1
        MOV       A,#0x8
        SJMP      ??Subroutine49_0
//  345 }
          CFI EndBlock cfiBlock0

        RSEG BANKED_CODE:HUGECODE:NOROOT(0)
?Subroutine29:
          CFI Block cfiCond1 Using cfiCommon0
          CFI Function initNV
          CFI Conditional ??CrossCallReturnLabel_60
          CFI R6 load(1, XDATA, add(CFA_XSP16, literal(-12)))
          CFI VB load(1, XDATA, add(CFA_XSP16, literal(-11)))
          CFI V0 load(1, XDATA, add(CFA_XSP16, literal(-10)))
          CFI V1 load(1, XDATA, add(CFA_XSP16, literal(-9)))
          CFI V2 load(1, XDATA, add(CFA_XSP16, literal(-8)))
          CFI V3 load(1, XDATA, add(CFA_XSP16, literal(-7)))
          CFI R7 load(1, XDATA, add(CFA_XSP16, literal(-6)))
          CFI ?RET_LOW load(1, XDATA, add(CFA_XSP16, literal(-5)))
          CFI ?RET_HIGH load(1, XDATA, add(CFA_XSP16, literal(-4)))
          CFI ?BRET_EXT load(1, XDATA, add(CFA_XSP16, literal(-3)))
          CFI DPL0 load(1, XDATA, add(CFA_XSP16, literal(-2)))
          CFI DPH0 load(1, XDATA, add(CFA_XSP16, literal(-1)))
          CFI CFA_SP SP+-2
          CFI CFA_XSP16 add(XSP16, 20)
          CFI Block cfiCond2 Using cfiCommon0
          CFI (cfiCond2) Function initNV
          CFI (cfiCond2) Conditional ??CrossCallReturnLabel_61
          CFI (cfiCond2) R6 load(1, XDATA, add(CFA_XSP16, literal(-12)))
          CFI (cfiCond2) VB load(1, XDATA, add(CFA_XSP16, literal(-11)))
          CFI (cfiCond2) V0 load(1, XDATA, add(CFA_XSP16, literal(-10)))
          CFI (cfiCond2) V1 load(1, XDATA, add(CFA_XSP16, literal(-9)))
          CFI (cfiCond2) V2 load(1, XDATA, add(CFA_XSP16, literal(-8)))
          CFI (cfiCond2) V3 load(1, XDATA, add(CFA_XSP16, literal(-7)))
          CFI (cfiCond2) R7 load(1, XDATA, add(CFA_XSP16, literal(-6)))
          CFI (cfiCond2) ?RET_LOW load(1, XDATA, add(CFA_XSP16, literal(-5)))
          CFI (cfiCond2) ?RET_HIGH load(1, XDATA, add(CFA_XSP16, literal(-4)))
          CFI (cfiCond2) ?BRET_EXT load(1, XDATA, add(CFA_XSP16, literal(-3)))
          CFI (cfiCond2) DPL0 load(1, XDATA, add(CFA_XSP16, literal(-2)))
          CFI (cfiCond2) DPH0 load(1, XDATA, add(CFA_XSP16, literal(-1)))
          CFI (cfiCond2) CFA_SP SP+-2
          CFI (cfiCond2) CFA_XSP16 add(XSP16, 20)
          CFI Block cfiPicker3 Using cfiCommon1
          CFI (cfiPicker3) NoFunction
          CFI (cfiPicker3) Picker
        ADD       A,0xE0 /* A   */
        MOV       R0,A
        CLR       A
        RLC       A
        MOV       R1,A
        MOV       A,#pgLost & 0xff
        ADD       A,R0
        MOV       DPL,A
        MOV       A,#(pgLost >> 8) & 0xff
        RET
          CFI EndBlock cfiCond1
          CFI EndBlock cfiCond2
          CFI EndBlock cfiPicker3

        RSEG BANKED_CODE:HUGECODE:NOROOT(0)
?Subroutine0:
          CFI Block cfiBlock4 Using cfiCommon0
          CFI NoFunction
          CFI CFA_SP SP+0
          CFI CFA_XSP16 add(XSP16, 14)
          CFI VB load(1, XDATA, add(CFA_XSP16, literal(-11)))
          CFI DPL0 load(1, XDATA, add(CFA_XSP16, literal(-2)))
          CFI DPH0 load(1, XDATA, add(CFA_XSP16, literal(-1)))
          CFI R6 load(1, XDATA, add(CFA_XSP16, literal(-12)))
          CFI R7 load(1, XDATA, add(CFA_XSP16, literal(-6)))
          CFI V0 load(1, XDATA, add(CFA_XSP16, literal(-10)))
          CFI V1 load(1, XDATA, add(CFA_XSP16, literal(-9)))
          CFI V2 load(1, XDATA, add(CFA_XSP16, literal(-8)))
          CFI V3 load(1, XDATA, add(CFA_XSP16, literal(-7)))
          CFI ?BRET_EXT load(1, XDATA, add(CFA_XSP16, literal(-3)))
          CFI ?RET_HIGH load(1, XDATA, add(CFA_XSP16, literal(-4)))
          CFI ?RET_LOW load(1, XDATA, add(CFA_XSP16, literal(-5)))
        MOV       A,#0x2
          CFI EndBlock cfiBlock4
        REQUIRE ??Subroutine49_0
        ; // Fall through to label ??Subroutine49_0

        RSEG BANKED_CODE:HUGECODE:NOROOT(0)
??Subroutine49_0:
          CFI Block cfiBlock5 Using cfiCommon0
          CFI NoFunction
          CFI CFA_SP SP+0
          CFI CFA_XSP16 add(XSP16, 20)
          CFI VB load(1, XDATA, add(CFA_XSP16, literal(-11)))
          CFI DPL0 load(1, XDATA, add(CFA_XSP16, literal(-2)))
          CFI DPH0 load(1, XDATA, add(CFA_XSP16, literal(-1)))
          CFI R6 load(1, XDATA, add(CFA_XSP16, literal(-12)))
          CFI R7 load(1, XDATA, add(CFA_XSP16, literal(-6)))
          CFI V0 load(1, XDATA, add(CFA_XSP16, literal(-10)))
          CFI V1 load(1, XDATA, add(CFA_XSP16, literal(-9)))
          CFI V2 load(1, XDATA, add(CFA_XSP16, literal(-8)))
          CFI V3 load(1, XDATA, add(CFA_XSP16, literal(-7)))
          CFI ?BRET_EXT load(1, XDATA, add(CFA_XSP16, literal(-3)))
          CFI ?RET_HIGH load(1, XDATA, add(CFA_XSP16, literal(-4)))
          CFI ?RET_LOW load(1, XDATA, add(CFA_XSP16, literal(-5)))
          CFI Invalid
        LCALL     ?DEALLOC_XSTACK8
          CFI EndBlock cfiBlock5
        REQUIRE ??Subroutine50_0
        ; // Fall through to label ??Subroutine50_0

        RSEG BANKED_CODE:HUGECODE:NOROOT(0)
??Subroutine50_0:
          CFI Block cfiBlock6 Using cfiCommon0
          CFI NoFunction
          CFI CFA_SP SP+0
          CFI CFA_XSP16 add(XSP16, 12)
          CFI VB load(1, XDATA, add(CFA_XSP16, literal(-11)))
          CFI DPL0 load(1, XDATA, add(CFA_XSP16, literal(-2)))
          CFI DPH0 load(1, XDATA, add(CFA_XSP16, literal(-1)))
          CFI R6 load(1, XDATA, add(CFA_XSP16, literal(-12)))
          CFI R7 load(1, XDATA, add(CFA_XSP16, literal(-6)))
          CFI V0 load(1, XDATA, add(CFA_XSP16, literal(-10)))
          CFI V1 load(1, XDATA, add(CFA_XSP16, literal(-9)))
          CFI V2 load(1, XDATA, add(CFA_XSP16, literal(-8)))
          CFI V3 load(1, XDATA, add(CFA_XSP16, literal(-7)))
          CFI ?BRET_EXT load(1, XDATA, add(CFA_XSP16, literal(-3)))
          CFI ?RET_HIGH load(1, XDATA, add(CFA_XSP16, literal(-4)))
          CFI ?RET_LOW load(1, XDATA, add(CFA_XSP16, literal(-5)))
        MOV       R7,#0x4
        LJMP      ?BANKED_LEAVE_XDATA
          CFI EndBlock cfiBlock6
//  346 
//  347 /*********************************************************************
//  348  * @fn      setPageUse
//  349  *
//  350  * @brief   Set page header active/inUse state according to 'inUse'.
//  351  *
//  352  * @param   pg - Valid NV page to verify and init.
//  353  * @param   inUse - Boolean TRUE if inUse, FALSE if only active.
//  354  *
//  355  * @return  none
//  356  */

        RSEG BANKED_CODE:HUGECODE:NOROOT(0)
//  357 static void setPageUse( uint8 pg, uint8 inUse )
setPageUse:
          CFI Block cfiBlock7 Using cfiCommon0
          CFI Function setPageUse
        CODE
//  358 {
        FUNCALL setPageUse, writeWord
        LOCFRAME ISTACK, 0, STACK
        LOCFRAME PSTACK, 0, STACK
        LOCFRAME XSTACK, 17, STACK
        LOCFRAME IOVERLAY, 0, STATIC
        LOCFRAME DOVERLAY, 0, STATIC
        ARGFRAME ISTACK, 0, STACK
        ARGFRAME PSTACK, 0, STACK
        ARGFRAME XSTACK, 17, STACK
        ARGFRAME IOVERLAY, 0, STATIC
        ARGFRAME DOVERLAY, 0, STATIC
        MOV       A,#-0x9
        LCALL     ?BANKED_ENTER_XDATA
          CFI DPH0 load(1, XDATA, add(CFA_XSP16, literal(-1)))
          CFI DPL0 load(1, XDATA, add(CFA_XSP16, literal(-2)))
          CFI ?BRET_EXT load(1, XDATA, add(CFA_XSP16, literal(-3)))
          CFI ?RET_HIGH load(1, XDATA, add(CFA_XSP16, literal(-4)))
          CFI ?RET_LOW load(1, XDATA, add(CFA_XSP16, literal(-5)))
          CFI R7 load(1, XDATA, add(CFA_XSP16, literal(-6)))
          CFI V0 load(1, XDATA, add(CFA_XSP16, literal(-7)))
          CFI VB load(1, XDATA, add(CFA_XSP16, literal(-8)))
          CFI R6 load(1, XDATA, add(CFA_XSP16, literal(-9)))
          CFI CFA_SP SP+0
          CFI CFA_XSP16 add(XSP16, 9)
        ; Saved register size: 9
        ; Auto size: 8
        MOV       A,#-0x8
        LCALL     ?ALLOC_XSTACK8
          CFI CFA_XSP16 add(XSP16, 17)
//  359   osalNvPgHdr_t pgHdr;
//  360 
//  361   pgHdr.active = OSAL_NV_ZEROED_ID;
        MOV       DPL,?XSP + 0
        MOV       DPH,?XSP + 1
        CLR       A
        MOVX      @DPTR,A
        INC       DPTR
        MOVX      @DPTR,A
//  362 
//  363   if ( inUse )
        MOV       A,R2
        JZ        ??setPageUse_0
//  364   {
//  365     pgHdr.inUse = OSAL_NV_ZEROED_ID;
        MOV       A,#0x2
        LCALL     ?XSTACK_DISP0_8
        CLR       A
        SJMP      ??setPageUse_1
//  366   }
//  367   else
//  368   {
//  369     pgHdr.inUse = OSAL_NV_ERASED_ID;
??setPageUse_0:
        MOV       A,#0x2
        LCALL     ?XSTACK_DISP0_8
        MOV       A,#-0x1
//  370   }
??setPageUse_1:
        LCALL     ??Subroutine54_0 & 0xFFFF
//  371 
//  372   writeWord( pg, OSAL_NV_PAGE_HDR_OFFSET, (uint8*)(&pgHdr) );
??CrossCallReturnLabel_105:
        MOV       R2,#0x0
        MOV       R3,#0x0
        LCALL     `??writeWord::?relay`; Banked call to: writeWord
//  373 }
        MOV       A,#0x8
        LJMP      ?Subroutine1 & 0xFFFF
          CFI EndBlock cfiBlock7
//  374 
//  375 /*********************************************************************
//  376  * @fn      initPage
//  377  *
//  378  * @brief   Walk the page items; calculate checksums, lost bytes & page offset.
//  379  *
//  380  * @param   pg - Valid NV page to verify and init.
//  381  * @param   id - Valid NV item Id to use function as a "findItem".
//  382  *               If set to NULL then just perform the page initialization.
//  383  * @param   findDups - TRUE on recursive call from initNV() to find and zero-out duplicate items
//  384  *                     left from a write that is interrupted by a reset/power-cycle.
//  385  *                     FALSE otherwise.
//  386  *
//  387  * @return  If 'id' is non-NULL and good checksums are found, return the offset
//  388  *          of the data corresponding to item Id; else OSAL_NV_ITEM_NULL.
//  389  */

        RSEG BANKED_CODE:HUGECODE:NOROOT(0)
//  390 static uint16 initPage( uint8 pg, uint16 id, uint8 findDups )
initPage:
          CFI Block cfiBlock8 Using cfiCommon0
          CFI Function initPage
        CODE
//  391 {
        FUNCALL initPage, HalFlashRead
        LOCFRAME ISTACK, 0, STACK
        LOCFRAME PSTACK, 0, STACK
        LOCFRAME XSTACK, 28, STACK
        LOCFRAME IOVERLAY, 0, STATIC
        LOCFRAME DOVERLAY, 0, STATIC
        ARGFRAME ISTACK, 0, STACK
        ARGFRAME PSTACK, 0, STACK
        ARGFRAME XSTACK, 28, STACK
        ARGFRAME IOVERLAY, 0, STATIC
        ARGFRAME DOVERLAY, 0, STATIC
        FUNCALL initPage, calcChkF
        LOCFRAME ISTACK, 0, STACK
        LOCFRAME PSTACK, 0, STACK
        LOCFRAME XSTACK, 26, STACK
        LOCFRAME IOVERLAY, 0, STATIC
        LOCFRAME DOVERLAY, 0, STATIC
        ARGFRAME ISTACK, 0, STACK
        ARGFRAME PSTACK, 0, STACK
        ARGFRAME XSTACK, 26, STACK
        ARGFRAME IOVERLAY, 0, STATIC
        ARGFRAME DOVERLAY, 0, STATIC
        FUNCALL initPage, findItem
        LOCFRAME ISTACK, 0, STACK
        LOCFRAME PSTACK, 0, STACK
        LOCFRAME XSTACK, 26, STACK
        LOCFRAME IOVERLAY, 0, STATIC
        LOCFRAME DOVERLAY, 0, STATIC
        ARGFRAME ISTACK, 0, STACK
        ARGFRAME PSTACK, 0, STACK
        ARGFRAME XSTACK, 26, STACK
        ARGFRAME IOVERLAY, 0, STATIC
        ARGFRAME DOVERLAY, 0, STATIC
        FUNCALL initPage, setItem
        LOCFRAME ISTACK, 0, STACK
        LOCFRAME PSTACK, 0, STACK
        LOCFRAME XSTACK, 26, STACK
        LOCFRAME IOVERLAY, 0, STATIC
        LOCFRAME DOVERLAY, 0, STATIC
        ARGFRAME ISTACK, 0, STACK
        ARGFRAME PSTACK, 0, STACK
        ARGFRAME XSTACK, 26, STACK
        ARGFRAME IOVERLAY, 0, STATIC
        ARGFRAME DOVERLAY, 0, STATIC
        FUNCALL initPage, setItem
        LOCFRAME ISTACK, 0, STACK
        LOCFRAME PSTACK, 0, STACK
        LOCFRAME XSTACK, 26, STACK
        LOCFRAME IOVERLAY, 0, STATIC
        LOCFRAME DOVERLAY, 0, STATIC
        ARGFRAME ISTACK, 0, STACK
        ARGFRAME PSTACK, 0, STACK
        ARGFRAME XSTACK, 26, STACK
        ARGFRAME IOVERLAY, 0, STATIC
        ARGFRAME DOVERLAY, 0, STATIC
        REQUIRE ?V0
        REQUIRE ?V1
        REQUIRE ?V2
        REQUIRE ?V3
        REQUIRE ?V4
        REQUIRE ?V5
        REQUIRE ?V6
        REQUIRE ?V7
        MOV       A,#-0x10
        LCALL     ?BANKED_ENTER_XDATA
          CFI DPH0 load(1, XDATA, add(CFA_XSP16, literal(-1)))
          CFI DPL0 load(1, XDATA, add(CFA_XSP16, literal(-2)))
          CFI ?BRET_EXT load(1, XDATA, add(CFA_XSP16, literal(-3)))
          CFI ?RET_HIGH load(1, XDATA, add(CFA_XSP16, literal(-4)))
          CFI ?RET_LOW load(1, XDATA, add(CFA_XSP16, literal(-5)))
          CFI R7 load(1, XDATA, add(CFA_XSP16, literal(-6)))
          CFI V7 load(1, XDATA, add(CFA_XSP16, literal(-7)))
          CFI V6 load(1, XDATA, add(CFA_XSP16, literal(-8)))
          CFI V5 load(1, XDATA, add(CFA_XSP16, literal(-9)))
          CFI V4 load(1, XDATA, add(CFA_XSP16, literal(-10)))
          CFI V3 load(1, XDATA, add(CFA_XSP16, literal(-11)))
          CFI V2 load(1, XDATA, add(CFA_XSP16, literal(-12)))
          CFI V1 load(1, XDATA, add(CFA_XSP16, literal(-13)))
          CFI V0 load(1, XDATA, add(CFA_XSP16, literal(-14)))
          CFI VB load(1, XDATA, add(CFA_XSP16, literal(-15)))
          CFI R6 load(1, XDATA, add(CFA_XSP16, literal(-16)))
          CFI CFA_SP SP+0
          CFI CFA_XSP16 add(XSP16, 16)
        ; Saved register size: 16
        ; Auto size: 10
        MOV       A,#-0xa
        LCALL     ?ALLOC_XSTACK8
          CFI CFA_XSP16 add(XSP16, 26)
        MOV       DPL,?XSP + 0
        MOV       DPH,?XSP + 1
        LCALL     ?Subroutine8 & 0xFFFF
??CrossCallReturnLabel_4:
        MOV       ?V7,R4
//  392   uint16 offset = OSAL_NV_PAGE_HDR_SIZE;
        MOV       ?V0,#0x8
        MOV       ?V1,#0x0
//  393   uint16 sz, lost = 0;
        MOV       ?V2,#0x0
        MOV       ?V3,#0x0
//  394   osalNvHdr_t hdr;
//  395 
//  396   do
//  397   {
//  398     HalFlashRead(pg, offset, (uint8 *)(&hdr), OSAL_NV_HDR_SIZE);
??initPage_0:
        ; Setup parameters for call to function HalFlashRead
        MOV       ?V4,#0x8
        MOV       ?V5,#0x0
        MOV       R0,#?V4
        LCALL     ?PUSH_XSTACK_I_TWO
          CFI CFA_XSP16 add(XSP16, 28)
        MOV       A,#0x4
        LCALL     ?XSTACK_DISP102_8
        MOV       R2,?V0
        MOV       R3,?V1
        MOV       R1,?V6
        LCALL     ??Subroutine58_0 & 0xFFFF
??CrossCallReturnLabel_124:
        LCALL     ?DEALLOC_XSTACK8
          CFI CFA_XSP16 add(XSP16, 26)
//  399 
//  400     if ( hdr.id == OSAL_NV_ERASED_ID )
        MOV       A,#0x2
        LCALL     ?XSTACK_DISP0_8
        MOVX      A,@DPTR
        CPL       A
        JNZ       ??initPage_1
        INC       DPTR
        MOVX      A,@DPTR
        CPL       A
??initPage_1:
        JNZ       $+5
        LJMP      ??initPage_2 & 0xFFFF
//  401     {
//  402       break;
//  403     }
//  404 
//  405     // Get the actual size in bytes which is the ceiling(hdr.len)
//  406     sz = OSAL_NV_DATA_SIZE( hdr.len );
        MOV       A,#0x4
        LCALL     ?XSTACK_DISP0_8
        LCALL     ?Subroutine17 & 0xFFFF
??CrossCallReturnLabel_26:
        JC        ??initPage_3
        MOV       R6,#-0x4
        MOV       R7,#-0x1
        SJMP      ??CrossCallReturnLabel_71
??initPage_3:
        LCALL     ?Subroutine35 & 0xFFFF
//  407 
//  408     // A bad 'len' write has blown away the rest of the page.
//  409     if (sz > (OSAL_NV_PAGE_SIZE - OSAL_NV_HDR_SIZE - offset))
??CrossCallReturnLabel_71:
        LCALL     ?Subroutine34 & 0xFFFF
??CrossCallReturnLabel_69:
        JNC       ??initPage_4
//  410     {
//  411       lost += (OSAL_NV_PAGE_SIZE - offset);
        MOV       A,?V2
        ADD       A,#0x0
        MOV       A,?V3
        ADDC      A,#0x8
        MOV       ?V3,A
        CLR       C
        MOV       A,?V2
        SUBB      A,?V0
        MOV       ?V2,A
        MOV       A,?V3
        SUBB      A,?V1
        MOV       ?V3,A
//  412       offset = OSAL_NV_PAGE_SIZE;
        MOV       ?V0,#0x0
        MOV       ?V1,#0x8
//  413       break;
        LJMP      ??initPage_2 & 0xFFFF
//  414     }
//  415 
//  416     offset += OSAL_NV_HDR_SIZE;
??initPage_4:
        LCALL     ?Subroutine37 & 0xFFFF
//  417 
//  418     if ( hdr.id != OSAL_NV_ZEROED_ID )
??CrossCallReturnLabel_73:
        MOV       A,#0x2
        LCALL     ?XSTACK_DISP0_8
        LCALL     ?Subroutine12 & 0xFFFF
??CrossCallReturnLabel_13:
        JNZ       $+5
        LJMP      ??initPage_5 & 0xFFFF
//  419     {
//  420       /* This trick allows function to do double duty for findItem() without
//  421        * compromising its essential functionality at powerup initialization.
//  422        */
//  423       if ( id != OSAL_NV_ITEM_NULL )
        MOV       DPL,?XSP + 0
        MOV       DPH,?XSP + 1
        LCALL     ?Subroutine12 & 0xFFFF
??CrossCallReturnLabel_14:
        JZ        ??initPage_6
//  424       {
//  425         /* This trick allows asking to find the old/transferred item in case
//  426          * of a successful new item write that gets interrupted before the
//  427          * old item can be zeroed out.
//  428          */
//  429         if ( (id & 0x7fff) == hdr.id )
        MOV       DPL,?XSP + 0
        MOV       DPH,?XSP + 1
        INC       DPTR
        MOVX      A,@DPTR
        ANL       A,#0x7f
        MOV       R1,A
        MOV       A,#0x2
        LCALL     ?XSTACK_DISP0_8
        MOVX      A,@DPTR
        XRL       A,R0
        JNZ       ??initPage_7
        INC       DPTR
        MOVX      A,@DPTR
        XRL       A,R1
??initPage_7:
        JZ        $+5
        LJMP      ??initPage_8 & 0xFFFF
//  430         {
//  431           if ( (((id & OSAL_NV_SOURCE_ID) == 0) && (hdr.stat == OSAL_NV_ERASED_ID)) ||
//  432                (((id & OSAL_NV_SOURCE_ID) != 0) && (hdr.stat != OSAL_NV_ERASED_ID)) )
        MOV       A,#0x8
        LCALL     ?XSTACK_DISP0_8
        LCALL     ??Subroutine62_0 & 0xFFFF
??CrossCallReturnLabel_143:
        MOV       DPL,?XSP + 0
        MOV       DPH,?XSP + 1
        INC       DPTR
        MOVX      A,@DPTR
        ANL       A,#0x80
        JNZ       ??initPage_9
        MOV       A,#-0x1
        XRL       A,R2
        JNZ       ??initPage_10
        MOV       A,#-0x1
        XRL       A,R3
??initPage_10:
        JZ        $+5
        LJMP      ??initPage_8 & 0xFFFF
        SJMP      ??initPage_11
??initPage_9:
        MOV       A,#-0x1
        XRL       A,R2
        JNZ       ??initPage_12
        MOV       A,#-0x1
        XRL       A,R3
??initPage_12:
        JZ        ??initPage_8
//  433           {
//  434             return offset;
??initPage_11:
        MOV       R2,?V0
        MOV       R3,?V1
        LJMP      ??initPage_13 & 0xFFFF
//  435           }
//  436         }
//  437       }
//  438       // When invoked from the osal_nv_init(), verify checksums and find & zero any duplicates.
//  439       else
//  440       {
//  441         if ( hdr.chk == calcChkF( pg, offset, hdr.len ) )
??initPage_6:
        ; Setup parameters for call to function calcChkF
        MOV       R2,?V0
        MOV       R3,?V1
        LCALL     ?Subroutine39 & 0xFFFF
??CrossCallReturnLabel_77:
        MOV       A,#0x6
        LCALL     ?XSTACK_DISP0_8
        MOVX      A,@DPTR
        XRL       A,R0
        JNZ       ??initPage_14
        INC       DPTR
        MOVX      A,@DPTR
        XRL       A,R1
??initPage_14:
        JNZ       ??initPage_15
//  442         {
//  443           if ( findDups )
        MOV       A,#0x8
        LCALL     ?XSTACK_DISP0_8
        LCALL     ?Subroutine22 & 0xFFFF
??CrossCallReturnLabel_38:
        MOV       A,?V7
        JZ        ??initPage_16
//  444           {
//  445             if ( hdr.stat == OSAL_NV_ERASED_ID )
        MOV       A,#-0x1
        XRL       A,R0
        JNZ       ??initPage_17
        MOV       A,#-0x1
        XRL       A,R1
??initPage_17:
        JNZ       ??initPage_8
//  446             {
//  447               /* The trick of setting the MSB of the item Id causes the logic
//  448                * immediately above to return a valid page only if the header 'stat'
//  449                * indicates that it was the older item being transferred.
//  450                */
//  451               uint16 off = findItem( (hdr.id | OSAL_NV_SOURCE_ID) );
        ; Setup parameters for call to function findItem
        MOV       A,#0x2
        LCALL     ?XSTACK_DISP0_8
        MOVX      A,@DPTR
        MOV       R2,A
        INC       DPTR
        MOVX      A,@DPTR
        ORL       A,#0x80
        MOV       R3,A
        LCALL     `??findItem::?relay`; Banked call to: findItem
//  452 
//  453               if ( off != OSAL_NV_ITEM_NULL )
        MOV       A,R2
        ORL       A,R3
        JZ        ??initPage_8
//  454               {
//  455                 setItem( findPg, off, eNvZero );  // Mark old duplicate as invalid.
        ; Setup parameters for call to function setItem
        MOV       R4,#0x1
        MOV       DPTR,#findPg
        LCALL     ?Subroutine26 & 0xFFFF
//  456               }
//  457             }
//  458           }
??CrossCallReturnLabel_54:
        SJMP      ??initPage_8
//  459           // Any "old" item immediately exits and triggers the N^2 exhaustive initialization.
//  460           else if ( hdr.stat != OSAL_NV_ERASED_ID )
??initPage_16:
        MOV       A,#-0x1
        XRL       A,R0
        JNZ       ??initPage_18
        MOV       A,#-0x1
        XRL       A,R1
??initPage_18:
        JZ        ??initPage_8
//  461           {
//  462             return OSAL_NV_ERASED_ID;
        MOV       R2,#-0x1
        MOV       R3,#-0x1
        SJMP      ??initPage_13
//  463           }
//  464         }
//  465         else
//  466         {
//  467           setItem( pg, offset, eNvZero );  // Mark bad checksum as invalid.
??initPage_15:
        ; Setup parameters for call to function setItem
        MOV       R4,#0x1
        MOV       R2,?V0
        MOV       R3,?V1
        MOV       R1,?V6
        LCALL     `??setItem::?relay`; Banked call to: setItem
//  468           lost += (OSAL_NV_HDR_SIZE + sz);
//  469         }
//  470       }
//  471     }
//  472     else
//  473     {
//  474       lost += (OSAL_NV_HDR_SIZE + sz);
??initPage_5:
        MOV       A,R6
        ADD       A,#0x8
        MOV       R0,A
        CLR       A
        ADDC      A,R7
        MOV       R1,A
        MOV       A,?V2
        ADD       A,R0
        MOV       ?V2,A
        MOV       A,?V3
        ADDC      A,R1
        MOV       ?V3,A
//  475     }
//  476     offset += sz;
??initPage_8:
        MOV       A,?V0
        ADD       A,R6
        MOV       ?V0,A
        MOV       A,?V1
        ADDC      A,R7
        MOV       ?V1,A
//  477 
//  478   } while (offset < (OSAL_NV_PAGE_SIZE - OSAL_NV_HDR_SIZE));
        CLR       C
        MOV       A,?V0
        SUBB      A,#-0x8
        MOV       A,?V1
        SUBB      A,#0x7
        JNC       $+5
        LJMP      ??initPage_0 & 0xFFFF
//  479 
//  480   pgOff[pg - OSAL_NV_PAGE_BEG] = offset;
??initPage_2:
        MOV       R0,?V6
        MOV       A,R0
        ADD       A,R0
        LCALL     ??Subroutine52_0 & 0xFFFF
??CrossCallReturnLabel_95:
        MOV       A,?V0
        MOVX      @DPTR,A
        INC       DPTR
        MOV       A,?V1
        LCALL     ?Subroutine7 & 0xFFFF
//  481   pgLost[pg - OSAL_NV_PAGE_BEG] = lost;
??CrossCallReturnLabel_2:
        MOV       A,?V2
        MOVX      @DPTR,A
        INC       DPTR
        MOV       A,?V3
        MOVX      @DPTR,A
//  482 
//  483   return OSAL_NV_ITEM_NULL;
        MOV       R2,#0x0
        MOV       R3,#0x0
??initPage_13:
        LJMP      ?Subroutine2 & 0xFFFF
//  484 }
          CFI EndBlock cfiBlock8
//  485 
//  486 /*********************************************************************
//  487  * @fn      erasePage
//  488  *
//  489  * @brief   Erases a page in Flash.
//  490  *
//  491  * @param   pg - Valid NV page to erase.
//  492  *
//  493  * @return  none
//  494  */

        RSEG BANKED_CODE:HUGECODE:NOROOT(0)
//  495 static void erasePage( uint8 pg )
erasePage:
          CFI Block cfiBlock9 Using cfiCommon0
          CFI Function erasePage
        CODE
//  496 {
        FUNCALL erasePage, HalFlashErase
        LOCFRAME ISTACK, 0, STACK
        LOCFRAME PSTACK, 0, STACK
        LOCFRAME XSTACK, 9, STACK
        LOCFRAME IOVERLAY, 0, STATIC
        LOCFRAME DOVERLAY, 0, STATIC
        ARGFRAME ISTACK, 0, STACK
        ARGFRAME PSTACK, 0, STACK
        ARGFRAME XSTACK, 9, STACK
        ARGFRAME IOVERLAY, 0, STATIC
        ARGFRAME DOVERLAY, 0, STATIC
        MOV       A,#-0x9
        LCALL     ?BANKED_ENTER_XDATA
          CFI DPH0 load(1, XDATA, add(CFA_XSP16, literal(-1)))
          CFI DPL0 load(1, XDATA, add(CFA_XSP16, literal(-2)))
          CFI ?BRET_EXT load(1, XDATA, add(CFA_XSP16, literal(-3)))
          CFI ?RET_HIGH load(1, XDATA, add(CFA_XSP16, literal(-4)))
          CFI ?RET_LOW load(1, XDATA, add(CFA_XSP16, literal(-5)))
          CFI R7 load(1, XDATA, add(CFA_XSP16, literal(-6)))
          CFI V0 load(1, XDATA, add(CFA_XSP16, literal(-7)))
          CFI VB load(1, XDATA, add(CFA_XSP16, literal(-8)))
          CFI R6 load(1, XDATA, add(CFA_XSP16, literal(-9)))
          CFI CFA_SP SP+0
          CFI CFA_XSP16 add(XSP16, 9)
        ; Saved register size: 9
        ; Auto size: 0
        MOV       A,R1
        MOV       R6,A
//  497   HalFlashErase(pg);
        ; Setup parameters for call to function HalFlashErase
        LCALL     `??HalFlashErase::?relay`; Banked call to: HalFlashErase
//  498 
//  499   pgOff[pg - OSAL_NV_PAGE_BEG] = OSAL_NV_PAGE_HDR_SIZE;
        MOV       A,R6
        ADD       A,R6
        LCALL     ??Subroutine52_0 & 0xFFFF
??CrossCallReturnLabel_96:
        MOV       A,#0x8
        MOVX      @DPTR,A
        INC       DPTR
        CLR       A
        LCALL     ?Subroutine7 & 0xFFFF
//  500   pgLost[pg - OSAL_NV_PAGE_BEG] = 0;
??CrossCallReturnLabel_3:
        CLR       A
        MOVX      @DPTR,A
        INC       DPTR
        MOVX      @DPTR,A
//  501 }
        SJMP      ??Subroutine51_0
          CFI EndBlock cfiBlock9

        RSEG BANKED_CODE:HUGECODE:NOROOT(0)
?Subroutine7:
          CFI Block cfiCond10 Using cfiCommon0
          CFI Function initPage
          CFI Conditional ??CrossCallReturnLabel_2
          CFI R6 load(1, XDATA, add(CFA_XSP16, literal(-16)))
          CFI VB load(1, XDATA, add(CFA_XSP16, literal(-15)))
          CFI V0 load(1, XDATA, add(CFA_XSP16, literal(-14)))
          CFI V1 load(1, XDATA, add(CFA_XSP16, literal(-13)))
          CFI V2 load(1, XDATA, add(CFA_XSP16, literal(-12)))
          CFI V3 load(1, XDATA, add(CFA_XSP16, literal(-11)))
          CFI V4 load(1, XDATA, add(CFA_XSP16, literal(-10)))
          CFI V5 load(1, XDATA, add(CFA_XSP16, literal(-9)))
          CFI V6 load(1, XDATA, add(CFA_XSP16, literal(-8)))
          CFI V7 load(1, XDATA, add(CFA_XSP16, literal(-7)))
          CFI R7 load(1, XDATA, add(CFA_XSP16, literal(-6)))
          CFI ?RET_LOW load(1, XDATA, add(CFA_XSP16, literal(-5)))
          CFI ?RET_HIGH load(1, XDATA, add(CFA_XSP16, literal(-4)))
          CFI ?BRET_EXT load(1, XDATA, add(CFA_XSP16, literal(-3)))
          CFI DPL0 load(1, XDATA, add(CFA_XSP16, literal(-2)))
          CFI DPH0 load(1, XDATA, add(CFA_XSP16, literal(-1)))
          CFI CFA_SP SP+-2
          CFI CFA_XSP16 add(XSP16, 26)
          CFI Block cfiCond11 Using cfiCommon0
          CFI (cfiCond11) Function erasePage
          CFI (cfiCond11) Conditional ??CrossCallReturnLabel_3
          CFI (cfiCond11) R6 load(1, XDATA, add(CFA_XSP16, literal(-9)))
          CFI (cfiCond11) VB load(1, XDATA, add(CFA_XSP16, literal(-8)))
          CFI (cfiCond11) V0 load(1, XDATA, add(CFA_XSP16, literal(-7)))
          CFI (cfiCond11) R7 load(1, XDATA, add(CFA_XSP16, literal(-6)))
          CFI (cfiCond11) ?RET_LOW load(1, XDATA, add(CFA_XSP16, literal(-5)))
          CFI (cfiCond11) ?RET_HIGH load(1, XDATA, add(CFA_XSP16, literal(-4)))
          CFI (cfiCond11) ?BRET_EXT load(1, XDATA, add(CFA_XSP16, literal(-3)))
          CFI (cfiCond11) DPL0 load(1, XDATA, add(CFA_XSP16, literal(-2)))
          CFI (cfiCond11) DPH0 load(1, XDATA, add(CFA_XSP16, literal(-1)))
          CFI (cfiCond11) CFA_SP SP+-2
          CFI (cfiCond11) CFA_XSP16 add(XSP16, 9)
          CFI Block cfiPicker12 Using cfiCommon1
          CFI (cfiPicker12) NoFunction
          CFI (cfiPicker12) Picker
        MOVX      @DPTR,A
        MOV       A,#(pgLost + 14) & 0xff
        ADD       A,R0
        MOV       DPL,A
        MOV       A,#((pgLost - 242) >> 8) & 0xff
        ADDC      A,R1
        MOV       DPH,A
        RET
          CFI EndBlock cfiCond10
          CFI EndBlock cfiCond11
          CFI EndBlock cfiPicker12

        RSEG BANKED_CODE:HUGECODE:NOROOT(0)
?Subroutine1:
          CFI Block cfiBlock13 Using cfiCommon0
          CFI NoFunction
          CFI CFA_SP SP+0
          CFI CFA_XSP16 add(XSP16, 17)
          CFI VB load(1, XDATA, add(CFA_XSP16, literal(-8)))
          CFI DPL0 load(1, XDATA, add(CFA_XSP16, literal(-2)))
          CFI DPH0 load(1, XDATA, add(CFA_XSP16, literal(-1)))
          CFI R6 load(1, XDATA, add(CFA_XSP16, literal(-9)))
          CFI R7 load(1, XDATA, add(CFA_XSP16, literal(-6)))
          CFI V0 load(1, XDATA, add(CFA_XSP16, literal(-7)))
          CFI ?BRET_EXT load(1, XDATA, add(CFA_XSP16, literal(-3)))
          CFI ?RET_HIGH load(1, XDATA, add(CFA_XSP16, literal(-4)))
          CFI ?RET_LOW load(1, XDATA, add(CFA_XSP16, literal(-5)))
          CFI Invalid
        LCALL     ?DEALLOC_XSTACK8
          CFI EndBlock cfiBlock13
        REQUIRE ??Subroutine51_0
        ; // Fall through to label ??Subroutine51_0

        RSEG BANKED_CODE:HUGECODE:NOROOT(0)
??Subroutine51_0:
          CFI Block cfiBlock14 Using cfiCommon0
          CFI NoFunction
          CFI CFA_SP SP+0
          CFI CFA_XSP16 add(XSP16, 9)
          CFI VB load(1, XDATA, add(CFA_XSP16, literal(-8)))
          CFI DPL0 load(1, XDATA, add(CFA_XSP16, literal(-2)))
          CFI DPH0 load(1, XDATA, add(CFA_XSP16, literal(-1)))
          CFI R6 load(1, XDATA, add(CFA_XSP16, literal(-9)))
          CFI R7 load(1, XDATA, add(CFA_XSP16, literal(-6)))
          CFI V0 load(1, XDATA, add(CFA_XSP16, literal(-7)))
          CFI ?BRET_EXT load(1, XDATA, add(CFA_XSP16, literal(-3)))
          CFI ?RET_HIGH load(1, XDATA, add(CFA_XSP16, literal(-4)))
          CFI ?RET_LOW load(1, XDATA, add(CFA_XSP16, literal(-5)))
        MOV       R7,#0x1
        LJMP      ?BANKED_LEAVE_XDATA
          CFI EndBlock cfiBlock14
//  502 
//  503 /*********************************************************************
//  504  * @fn      compactPage
//  505  *
//  506  * @brief   Compacts the page specified.
//  507  *
//  508  * @param   srcPg - Valid NV page to erase.
//  509  * @param   skipId - Item Id to not compact.
//  510  *
//  511  * @return  TRUE if valid items from 'srcPg' are successully compacted onto the 'pgRes';
//  512  *          FALSE otherwise.
//  513  *          Note that on a failure, this could loop, re-erasing the 'pgRes' and re-compacting with
//  514  *          the risk of infinitely looping on HAL flash failure.
//  515  *          Worst case scenario: HAL flash starts failing in general, perhaps low Vdd?
//  516  *          All page compactions will fail which will cause all osal_nv_write() calls to return
//  517  *          NV_OPER_FAILED.
//  518  *          Eventually, all pages in use may also be in the state of "pending compaction" where
//  519  *          the page header member OSAL_NV_PG_XFER is zeroed out.
//  520  *          During this "HAL flash brown-out", the code will run and OTA should work (until low Vdd
//  521  *          causes an actual chip brown-out, of course.) Although no new NV items will be created
//  522  *          or written, the last value written with a return value of SUCCESS can continue to be
//  523  *          read successfully.
//  524  *          If eventually HAL flash starts working again, all of the pages marked as
//  525  *          "pending compaction" may or may not be eventually compacted. But, initNV() will
//  526  *          deterministically clean-up one page pending compaction per power-cycle
//  527  *          (if HAL flash is working.) Nevertheless, one erased reserve page will be maintained
//  528  *          through such a scenario.
//  529  */

        RSEG BANKED_CODE:HUGECODE:NOROOT(0)
//  530 static uint8 compactPage( uint8 srcPg, uint16 skipId )
compactPage:
          CFI Block cfiBlock15 Using cfiCommon0
          CFI Function compactPage
        CODE
//  531 {
        FUNCALL compactPage, HalFlashRead
        LOCFRAME ISTACK, 0, STACK
        LOCFRAME PSTACK, 0, STACK
        LOCFRAME XSTACK, 28, STACK
        LOCFRAME IOVERLAY, 0, STATIC
        LOCFRAME DOVERLAY, 0, STATIC
        ARGFRAME ISTACK, 0, STACK
        ARGFRAME PSTACK, 0, STACK
        ARGFRAME XSTACK, 28, STACK
        ARGFRAME IOVERLAY, 0, STATIC
        ARGFRAME DOVERLAY, 0, STATIC
        FUNCALL compactPage, erasePage
        LOCFRAME ISTACK, 0, STACK
        LOCFRAME PSTACK, 0, STACK
        LOCFRAME XSTACK, 26, STACK
        LOCFRAME IOVERLAY, 0, STATIC
        LOCFRAME DOVERLAY, 0, STATIC
        ARGFRAME ISTACK, 0, STACK
        ARGFRAME PSTACK, 0, STACK
        ARGFRAME XSTACK, 26, STACK
        ARGFRAME IOVERLAY, 0, STATIC
        ARGFRAME DOVERLAY, 0, STATIC
        FUNCALL compactPage, HalFlashRead
        LOCFRAME ISTACK, 0, STACK
        LOCFRAME PSTACK, 0, STACK
        LOCFRAME XSTACK, 28, STACK
        LOCFRAME IOVERLAY, 0, STATIC
        LOCFRAME DOVERLAY, 0, STATIC
        ARGFRAME ISTACK, 0, STACK
        ARGFRAME PSTACK, 0, STACK
        ARGFRAME XSTACK, 28, STACK
        ARGFRAME IOVERLAY, 0, STATIC
        ARGFRAME DOVERLAY, 0, STATIC
        FUNCALL compactPage, calcChkF
        LOCFRAME ISTACK, 0, STACK
        LOCFRAME PSTACK, 0, STACK
        LOCFRAME XSTACK, 26, STACK
        LOCFRAME IOVERLAY, 0, STATIC
        LOCFRAME DOVERLAY, 0, STATIC
        ARGFRAME ISTACK, 0, STACK
        ARGFRAME PSTACK, 0, STACK
        ARGFRAME XSTACK, 26, STACK
        ARGFRAME IOVERLAY, 0, STATIC
        ARGFRAME DOVERLAY, 0, STATIC
        FUNCALL compactPage, setItem
        LOCFRAME ISTACK, 0, STACK
        LOCFRAME PSTACK, 0, STACK
        LOCFRAME XSTACK, 26, STACK
        LOCFRAME IOVERLAY, 0, STATIC
        LOCFRAME DOVERLAY, 0, STATIC
        ARGFRAME ISTACK, 0, STACK
        ARGFRAME PSTACK, 0, STACK
        ARGFRAME XSTACK, 26, STACK
        ARGFRAME IOVERLAY, 0, STATIC
        ARGFRAME DOVERLAY, 0, STATIC
        FUNCALL compactPage, writeItem
        LOCFRAME ISTACK, 0, STACK
        LOCFRAME PSTACK, 0, STACK
        LOCFRAME XSTACK, 29, STACK
        LOCFRAME IOVERLAY, 0, STATIC
        LOCFRAME DOVERLAY, 0, STATIC
        ARGFRAME ISTACK, 0, STACK
        ARGFRAME PSTACK, 0, STACK
        ARGFRAME XSTACK, 29, STACK
        ARGFRAME IOVERLAY, 0, STATIC
        ARGFRAME DOVERLAY, 0, STATIC
        FUNCALL compactPage, xferBuf
        LOCFRAME ISTACK, 0, STACK
        LOCFRAME PSTACK, 0, STACK
        LOCFRAME XSTACK, 30, STACK
        LOCFRAME IOVERLAY, 0, STATIC
        LOCFRAME DOVERLAY, 0, STATIC
        ARGFRAME ISTACK, 0, STACK
        ARGFRAME PSTACK, 0, STACK
        ARGFRAME XSTACK, 30, STACK
        ARGFRAME IOVERLAY, 0, STATIC
        ARGFRAME DOVERLAY, 0, STATIC
        FUNCALL compactPage, calcChkF
        LOCFRAME ISTACK, 0, STACK
        LOCFRAME PSTACK, 0, STACK
        LOCFRAME XSTACK, 26, STACK
        LOCFRAME IOVERLAY, 0, STATIC
        LOCFRAME DOVERLAY, 0, STATIC
        ARGFRAME ISTACK, 0, STACK
        ARGFRAME PSTACK, 0, STACK
        ARGFRAME XSTACK, 26, STACK
        ARGFRAME IOVERLAY, 0, STATIC
        ARGFRAME DOVERLAY, 0, STATIC
        FUNCALL compactPage, setChk
        LOCFRAME ISTACK, 0, STACK
        LOCFRAME PSTACK, 0, STACK
        LOCFRAME XSTACK, 26, STACK
        LOCFRAME IOVERLAY, 0, STATIC
        LOCFRAME DOVERLAY, 0, STATIC
        ARGFRAME ISTACK, 0, STACK
        ARGFRAME PSTACK, 0, STACK
        ARGFRAME XSTACK, 26, STACK
        ARGFRAME IOVERLAY, 0, STATIC
        ARGFRAME DOVERLAY, 0, STATIC
        FUNCALL compactPage, hotItemUpdate
        LOCFRAME ISTACK, 0, STACK
        LOCFRAME PSTACK, 0, STACK
        LOCFRAME XSTACK, 26, STACK
        LOCFRAME IOVERLAY, 0, STATIC
        LOCFRAME DOVERLAY, 0, STATIC
        ARGFRAME ISTACK, 0, STACK
        ARGFRAME PSTACK, 0, STACK
        ARGFRAME XSTACK, 26, STACK
        ARGFRAME IOVERLAY, 0, STATIC
        ARGFRAME DOVERLAY, 0, STATIC
        FUNCALL compactPage, erasePage
        LOCFRAME ISTACK, 0, STACK
        LOCFRAME PSTACK, 0, STACK
        LOCFRAME XSTACK, 26, STACK
        LOCFRAME IOVERLAY, 0, STATIC
        LOCFRAME DOVERLAY, 0, STATIC
        ARGFRAME ISTACK, 0, STACK
        ARGFRAME PSTACK, 0, STACK
        ARGFRAME XSTACK, 26, STACK
        ARGFRAME IOVERLAY, 0, STATIC
        ARGFRAME DOVERLAY, 0, STATIC
        FUNCALL compactPage, setPageUse
        LOCFRAME ISTACK, 0, STACK
        LOCFRAME PSTACK, 0, STACK
        LOCFRAME XSTACK, 26, STACK
        LOCFRAME IOVERLAY, 0, STATIC
        LOCFRAME DOVERLAY, 0, STATIC
        ARGFRAME ISTACK, 0, STACK
        ARGFRAME PSTACK, 0, STACK
        ARGFRAME XSTACK, 26, STACK
        ARGFRAME IOVERLAY, 0, STATIC
        ARGFRAME DOVERLAY, 0, STATIC
        FUNCALL compactPage, erasePage
        LOCFRAME ISTACK, 0, STACK
        LOCFRAME PSTACK, 0, STACK
        LOCFRAME XSTACK, 26, STACK
        LOCFRAME IOVERLAY, 0, STATIC
        LOCFRAME DOVERLAY, 0, STATIC
        ARGFRAME ISTACK, 0, STACK
        ARGFRAME PSTACK, 0, STACK
        ARGFRAME XSTACK, 26, STACK
        ARGFRAME IOVERLAY, 0, STATIC
        ARGFRAME DOVERLAY, 0, STATIC
        REQUIRE ?V0
        REQUIRE ?V1
        REQUIRE ?V2
        REQUIRE ?V3
        REQUIRE ?V4
        REQUIRE ?V5
        REQUIRE ?V6
        MOV       A,#-0xf
        LCALL     ?BANKED_ENTER_XDATA
          CFI DPH0 load(1, XDATA, add(CFA_XSP16, literal(-1)))
          CFI DPL0 load(1, XDATA, add(CFA_XSP16, literal(-2)))
          CFI ?BRET_EXT load(1, XDATA, add(CFA_XSP16, literal(-3)))
          CFI ?RET_HIGH load(1, XDATA, add(CFA_XSP16, literal(-4)))
          CFI ?RET_LOW load(1, XDATA, add(CFA_XSP16, literal(-5)))
          CFI R7 load(1, XDATA, add(CFA_XSP16, literal(-6)))
          CFI V6 load(1, XDATA, add(CFA_XSP16, literal(-7)))
          CFI V5 load(1, XDATA, add(CFA_XSP16, literal(-8)))
          CFI V4 load(1, XDATA, add(CFA_XSP16, literal(-9)))
          CFI V3 load(1, XDATA, add(CFA_XSP16, literal(-10)))
          CFI V2 load(1, XDATA, add(CFA_XSP16, literal(-11)))
          CFI V1 load(1, XDATA, add(CFA_XSP16, literal(-12)))
          CFI V0 load(1, XDATA, add(CFA_XSP16, literal(-13)))
          CFI VB load(1, XDATA, add(CFA_XSP16, literal(-14)))
          CFI R6 load(1, XDATA, add(CFA_XSP16, literal(-15)))
          CFI CFA_SP SP+0
          CFI CFA_XSP16 add(XSP16, 15)
        ; Saved register size: 15
        ; Auto size: 11
        MOV       A,#-0xb
        LCALL     ?ALLOC_XSTACK8
          CFI CFA_XSP16 add(XSP16, 26)
        MOV       A,#0x9
        LCALL     ?XSTACK_DISP0_8
        LCALL     ?Subroutine8 & 0xFFFF
//  532   uint16 srcOff;
//  533   uint8 rtrn;
//  534 
//  535   // To minimize code size, only check for a clean page here where it's absolutely required.
//  536   for (srcOff = 0; srcOff < OSAL_NV_PAGE_SIZE; srcOff++)
??CrossCallReturnLabel_5:
        MOV       ?V2,#0x0
        MOV       ?V3,#0x0
//  537   {
//  538     HalFlashRead(pgRes, srcOff, &rtrn, 1);
??compactPage_0:
        ; Setup parameters for call to function HalFlashRead
        MOV       ?V0,#0x1
        MOV       ?V1,#0x0
        MOV       R0,#?V0
        LCALL     ?PUSH_XSTACK_I_TWO
          CFI CFA_XSP16 add(XSP16, 28)
        MOV       A,#0x2
        LCALL     ?XSTACK_DISP102_8
        MOV       R2,?V2
        MOV       R3,?V3
        MOV       DPTR,#pgRes
        LCALL     ?Subroutine10 & 0xFFFF
??CrossCallReturnLabel_114:
        LCALL     ?DEALLOC_XSTACK8
          CFI CFA_XSP16 add(XSP16, 26)
//  539     if (rtrn != OSAL_NV_ERASED)
        MOV       DPL,?XSP + 0
        MOV       DPH,?XSP + 1
        MOVX      A,@DPTR
        CPL       A
        JZ        ??compactPage_1
//  540     {
//  541       erasePage(pgRes);
        ; Setup parameters for call to function erasePage
        LCALL     ?Subroutine23 & 0xFFFF
//  542       return FALSE;
??CrossCallReturnLabel_99:
        MOV       R1,#0x0
        LJMP      ??compactPage_2 & 0xFFFF
//  543     }
//  544   }
??compactPage_1:
        INC       ?V2
        MOV       A,?V2
        JNZ       ??compactPage_3
        INC       ?V3
??compactPage_3:
        CLR       C
        MOV       A,?V3
        SUBB      A,#0x8
        JC        ??compactPage_0
//  545 
//  546   srcOff = OSAL_NV_PAGE_HDR_SIZE;
        MOV       ?V2,#0x8
        MOV       ?V3,#0x0
//  547   rtrn = TRUE;
        MOV       A,#0x1
        MOVX      @DPTR,A
//  548 
//  549   while ( srcOff < (OSAL_NV_PAGE_SIZE - OSAL_NV_HDR_SIZE ) )
//  550   {
//  551     osalNvHdr_t hdr;
//  552     uint16 sz, dstOff = pgOff[pgRes-OSAL_NV_PAGE_BEG];
??compactPage_4:
        MOV       DPTR,#pgRes
        MOVX      A,@DPTR
        LCALL     ?Subroutine28 & 0xFFFF
??CrossCallReturnLabel_97:
        LCALL     ?Subroutine18 & 0xFFFF
//  553 
//  554     HalFlashRead(srcPg, srcOff, (uint8 *)(&hdr), OSAL_NV_HDR_SIZE);
??CrossCallReturnLabel_28:
        ; Setup parameters for call to function HalFlashRead
        MOV       ?V4,#0x8
        MOV       ?V5,#0x0
        MOV       R0,#?V4
        LCALL     ?PUSH_XSTACK_I_TWO
          CFI CFA_XSP16 add(XSP16, 28)
        MOV       A,#0x3
        LCALL     ?XSTACK_DISP102_8
        MOV       R2,?V2
        MOV       R3,?V3
        MOV       R1,?V6
        LCALL     ??Subroutine58_0 & 0xFFFF
??CrossCallReturnLabel_125:
        LCALL     ?DEALLOC_XSTACK8
          CFI CFA_XSP16 add(XSP16, 26)
//  555 
//  556     if ( hdr.id == OSAL_NV_ERASED_ID )
        MOV       A,#0x1
        LCALL     ?XSTACK_DISP0_8
        MOVX      A,@DPTR
        CPL       A
        JNZ       ??compactPage_5
        INC       DPTR
        MOVX      A,@DPTR
        CPL       A
??compactPage_5:
        JNZ       $+5
        LJMP      ??compactPage_6 & 0xFFFF
//  557     {
//  558       break;
//  559     }
//  560 
//  561     // Get the actual size in bytes which is the ceiling(hdr.len)
//  562     sz = OSAL_NV_DATA_SIZE( hdr.len );
        MOV       A,#0x3
        LCALL     ?XSTACK_DISP0_8
        LCALL     ?Subroutine17 & 0xFFFF
??CrossCallReturnLabel_27:
        JC        ??compactPage_7
        MOV       R6,#-0x4
        MOV       R7,#-0x1
        SJMP      ??CrossCallReturnLabel_72
??compactPage_7:
        LCALL     ?Subroutine35 & 0xFFFF
//  563 
//  564     if ( sz > (OSAL_NV_PAGE_SIZE - OSAL_NV_HDR_SIZE - srcOff) )
??CrossCallReturnLabel_72:
        MOV       A,#-0x8
        CLR       C
        SUBB      A,?V2
        MOV       R0,A
        MOV       A,#0x7
        SUBB      A,?V3
        MOV       R1,A
        CLR       C
        MOV       A,R0
        SUBB      A,R6
        MOV       A,R1
        SUBB      A,R7
        JNC       $+5
        LJMP      ??compactPage_6 & 0xFFFF
//  565     {
//  566       break;
//  567     }
//  568 
//  569     if ( sz > (OSAL_NV_PAGE_SIZE - OSAL_NV_HDR_SIZE - dstOff) )
        LCALL     ?Subroutine34 & 0xFFFF
??CrossCallReturnLabel_70:
        JNC       $+5
        LJMP      ??compactPage_8 & 0xFFFF
//  570     {
//  571       rtrn = FALSE;
//  572       break;
//  573     }
//  574 
//  575     srcOff += OSAL_NV_HDR_SIZE;
        LCALL     ?Subroutine38 & 0xFFFF
//  576 
//  577     if ( (hdr.id != OSAL_NV_ZEROED_ID) && (hdr.id != skipId) )
??CrossCallReturnLabel_75:
        MOV       A,#0x1
        LCALL     ?XSTACK_DISP0_8
        LCALL     ?Subroutine12 & 0xFFFF
??CrossCallReturnLabel_15:
        JNZ       $+5
        LJMP      ??compactPage_9 & 0xFFFF
        MOV       A,#0x9
        LCALL     ?XSTACK_DISP0_8
        MOVX      A,@DPTR
        XRL       A,R0
        JNZ       ??compactPage_10
        INC       DPTR
        MOVX      A,@DPTR
        XRL       A,R1
??compactPage_10:
        JNZ       $+5
        LJMP      ??compactPage_9 & 0xFFFF
//  578     {
//  579       if ( hdr.chk == calcChkF( srcPg, srcOff, hdr.len ) )
        ; Setup parameters for call to function calcChkF
        MOV       R2,?V2
        MOV       R3,?V3
        LCALL     ?Subroutine39 & 0xFFFF
??CrossCallReturnLabel_78:
        MOV       A,#0x5
        LCALL     ?XSTACK_DISP0_8
        MOVX      A,@DPTR
        XRL       A,R0
        JNZ       ??compactPage_11
        INC       DPTR
        MOVX      A,@DPTR
        XRL       A,R1
??compactPage_11:
        JZ        $+5
        LJMP      ??compactPage_9 & 0xFFFF
//  580       {
//  581         /* Prevent excessive re-writes to item header caused by numerous, rapid, & successive
//  582          * OSAL_Nv interruptions caused by resets.
//  583          */
//  584         if ( hdr.stat == OSAL_NV_ERASED_ID )
        MOV       A,#0x7
        LCALL     ?XSTACK_DISP0_8
        MOVX      A,@DPTR
        CPL       A
        JNZ       ??compactPage_12
        INC       DPTR
        MOVX      A,@DPTR
        CPL       A
??compactPage_12:
        JNZ       ??compactPage_13
//  585         {
//  586           setItem( srcPg, srcOff, eNvXfer );
        ; Setup parameters for call to function setItem
        MOV       R4,#0x0
        MOV       R2,?V2
        MOV       R3,?V3
        MOV       R1,?V6
        LCALL     `??setItem::?relay`; Banked call to: setItem
//  587         }
//  588 
//  589         if ( writeItem( pgRes, hdr.id, hdr.len, NULL, FALSE ) )
??compactPage_13:
        ; Setup parameters for call to function writeItem
        MOV       ?V4,#0x0
        MOV       R0,#?V4
        LCALL     ?PUSH_XSTACK_I_ONE
          CFI CFA_XSP16 add(XSP16, 27)
        CLR       A
        MOV       ?V5,A
        MOV       R0,#?V4
        LCALL     ?PUSH_XSTACK_I_TWO
          CFI CFA_XSP16 add(XSP16, 29)
        MOV       A,#0x6
        LCALL     ?XSTACK_DISP0_8
        LCALL     ?Subroutine25 & 0xFFFF
??CrossCallReturnLabel_50:
        MOV       A,#0x4
        LCALL     ?XSTACK_DISP0_8
        LCALL     ??Subroutine62_0 & 0xFFFF
??CrossCallReturnLabel_144:
        MOV       DPTR,#pgRes
        MOVX      A,@DPTR
        MOV       R1,A
        LCALL     `??writeItem::?relay`; Banked call to: writeItem
        MOV       A,#0x3
        LCALL     ?DEALLOC_XSTACK8
          CFI CFA_XSP16 add(XSP16, 26)
        MOV       A,R1
        JNZ       $+5
        LJMP      ??compactPage_8 & 0xFFFF
//  590         {
//  591           dstOff += OSAL_NV_HDR_SIZE;
        LCALL     ?Subroutine37 & 0xFFFF
//  592           xferBuf( srcPg, srcOff, pgRes, dstOff, sz );
??CrossCallReturnLabel_74:
        ; Setup parameters for call to function xferBuf
        MOV       ?V4,R6
        MOV       ?V5,R7
        MOV       R0,#?V4
        LCALL     ?PUSH_XSTACK_I_TWO
          CFI CFA_XSP16 add(XSP16, 28)
        MOV       R0,#?V0
        LCALL     ?PUSH_XSTACK_I_TWO
          CFI CFA_XSP16 add(XSP16, 30)
        MOV       DPTR,#pgRes
        MOVX      A,@DPTR
        MOV       R4,A
        MOV       R2,?V2
        MOV       R3,?V3
        MOV       R1,?V6
        LCALL     `??xferBuf::?relay`; Banked call to: xferBuf
        MOV       A,#0x4
        LCALL     ?DEALLOC_XSTACK8
          CFI CFA_XSP16 add(XSP16, 26)
//  593           // Calculate and write the new checksum.
//  594           if (hdr.chk == calcChkF(pgRes, dstOff, hdr.len))
        ; Setup parameters for call to function calcChkF
        MOV       A,#0x3
        LCALL     ?XSTACK_DISP0_8
        LCALL     ?Subroutine16 & 0xFFFF
??CrossCallReturnLabel_24:
        LCALL     `??calcChkF::?relay`; Banked call to: calcChkF
        MOV       A,#0x5
        LCALL     ?XSTACK_DISP0_8
        LCALL     ?Subroutine19 & 0xFFFF
??CrossCallReturnLabel_31:
        JNZ       ??compactPage_14
        MOV       A,R3
        XRL       A,R5
??compactPage_14:
        JNZ       ??compactPage_8
//  595           {
//  596             if ( hdr.chk != setChk( pgRes, dstOff, hdr.chk ) )
        ; Setup parameters for call to function setChk
        MOV       R2,?V0
        MOV       R3,?V1
        MOV       DPTR,#pgRes
        MOVX      A,@DPTR
        MOV       R1,A
        LCALL     `??setChk::?relay`; Banked call to: setChk
        MOV       ?V4,R2
        MOV       ?V5,R3
        MOV       R0,?V4
        MOV       R1,?V5
        MOV       A,#0x5
        LCALL     ?XSTACK_DISP0_8
        MOVX      A,@DPTR
        XRL       A,R0
        JNZ       ??compactPage_15
        INC       DPTR
        MOVX      A,@DPTR
        XRL       A,R1
??compactPage_15:
        JNZ       ??compactPage_8
//  597             {
//  598               rtrn = FALSE;
//  599               break;
//  600             }
//  601             else
//  602             {
//  603               hotItemUpdate(pgRes, dstOff, hdr.id);
        ; Setup parameters for call to function hotItemUpdate
        MOV       A,#0x1
        LCALL     ?XSTACK_DISP0_8
        LCALL     ?Subroutine16 & 0xFFFF
//  604             }
//  605           }
//  606           else
//  607           {
//  608             rtrn = FALSE;
//  609             break;
//  610           }
//  611         }
??CrossCallReturnLabel_25:
        LCALL     `??hotItemUpdate::?relay`; Banked call to: hotItemUpdate
//  612         else
//  613         {
//  614           rtrn = FALSE;
//  615           break;
//  616         }
//  617       }
//  618     }
//  619 
//  620     srcOff += sz;
??compactPage_9:
        MOV       A,?V2
        ADD       A,R6
        MOV       ?V2,A
        MOV       A,?V3
        ADDC      A,R7
        MOV       ?V3,A
        CLR       C
        MOV       A,?V2
        SUBB      A,#-0x8
        MOV       A,?V3
        SUBB      A,#0x7
        JNC       $+5
        LJMP      ??compactPage_4 & 0xFFFF
//  621   }
//  622 
//  623   if (rtrn == FALSE)
??compactPage_6:
        MOV       DPL,?XSP + 0
        MOV       DPH,?XSP + 1
        MOVX      A,@DPTR
        JNZ       ??compactPage_16
//  624   {
//  625     erasePage(pgRes);
??compactPage_17:
        ; Setup parameters for call to function erasePage
        LCALL     ?Subroutine23 & 0xFFFF
//  626   }
??CrossCallReturnLabel_100:
        SJMP      ??compactPage_18
??compactPage_8:
        MOV       DPL,?XSP + 0
        MOV       DPH,?XSP + 1
        CLR       A
        MOVX      @DPTR,A
        SJMP      ??compactPage_17
//  627   else if (skipId == OSAL_NV_ITEM_NULL)
??compactPage_16:
        MOV       A,#0x9
        LCALL     ?XSTACK_DISP0_8
        LCALL     ?Subroutine12 & 0xFFFF
??CrossCallReturnLabel_16:
        JNZ       ??compactPage_18
//  628   {
//  629     COMPACT_PAGE_CLEANUP(srcPg);
        ; Setup parameters for call to function setPageUse
        LCALL     ?Subroutine27 & 0xFFFF
??CrossCallReturnLabel_57:
        ; Setup parameters for call to function erasePage
        MOV       R1,?V6
        LCALL     `??erasePage::?relay`; Banked call to: erasePage
        MOV       A,?V6
        MOV       DPTR,#pgRes
        MOVX      @DPTR,A
//  630   }
//  631   // else invoking function must cleanup.
//  632 
//  633   return rtrn;
??compactPage_18:
        MOV       DPL,?XSP + 0
        MOV       DPH,?XSP + 1
        MOVX      A,@DPTR
        MOV       R1,A
??compactPage_2:
        MOV       A,#0xb
          CFI EndBlock cfiBlock15
        REQUIRE ?Subroutine3
        ; // Fall through to label ?Subroutine3
//  634 }

        RSEG BANKED_CODE:HUGECODE:NOROOT(0)
?Subroutine3:
          CFI Block cfiBlock16 Using cfiCommon0
          CFI NoFunction
          CFI CFA_SP SP+0
          CFI CFA_XSP16 add(XSP16, 26)
          CFI VB load(1, XDATA, add(CFA_XSP16, literal(-14)))
          CFI DPL0 load(1, XDATA, add(CFA_XSP16, literal(-2)))
          CFI DPH0 load(1, XDATA, add(CFA_XSP16, literal(-1)))
          CFI R6 load(1, XDATA, add(CFA_XSP16, literal(-15)))
          CFI R7 load(1, XDATA, add(CFA_XSP16, literal(-6)))
          CFI V0 load(1, XDATA, add(CFA_XSP16, literal(-13)))
          CFI V1 load(1, XDATA, add(CFA_XSP16, literal(-12)))
          CFI V2 load(1, XDATA, add(CFA_XSP16, literal(-11)))
          CFI V3 load(1, XDATA, add(CFA_XSP16, literal(-10)))
          CFI V4 load(1, XDATA, add(CFA_XSP16, literal(-9)))
          CFI V5 load(1, XDATA, add(CFA_XSP16, literal(-8)))
          CFI V6 load(1, XDATA, add(CFA_XSP16, literal(-7)))
          CFI ?BRET_EXT load(1, XDATA, add(CFA_XSP16, literal(-3)))
          CFI ?RET_HIGH load(1, XDATA, add(CFA_XSP16, literal(-4)))
          CFI ?RET_LOW load(1, XDATA, add(CFA_XSP16, literal(-5)))
          CFI Invalid
        LCALL     ?DEALLOC_XSTACK8
          CFI CFA_XSP16 add(XSP16, 15)
          CFI Valid
        MOV       R7,#0x7
        LJMP      ?BANKED_LEAVE_XDATA
          CFI EndBlock cfiBlock16

        RSEG BANKED_CODE:HUGECODE:NOROOT(0)
?Subroutine39:
          CFI Block cfiCond17 Using cfiCommon0
          CFI Function initPage
          CFI Conditional ??CrossCallReturnLabel_77
          CFI R6 load(1, XDATA, add(CFA_XSP16, literal(-16)))
          CFI VB load(1, XDATA, add(CFA_XSP16, literal(-15)))
          CFI V0 load(1, XDATA, add(CFA_XSP16, literal(-14)))
          CFI V1 load(1, XDATA, add(CFA_XSP16, literal(-13)))
          CFI V2 load(1, XDATA, add(CFA_XSP16, literal(-12)))
          CFI V3 load(1, XDATA, add(CFA_XSP16, literal(-11)))
          CFI V4 load(1, XDATA, add(CFA_XSP16, literal(-10)))
          CFI V5 load(1, XDATA, add(CFA_XSP16, literal(-9)))
          CFI V6 load(1, XDATA, add(CFA_XSP16, literal(-8)))
          CFI V7 load(1, XDATA, add(CFA_XSP16, literal(-7)))
          CFI R7 load(1, XDATA, add(CFA_XSP16, literal(-6)))
          CFI ?RET_LOW load(1, XDATA, add(CFA_XSP16, literal(-5)))
          CFI ?RET_HIGH load(1, XDATA, add(CFA_XSP16, literal(-4)))
          CFI ?BRET_EXT load(1, XDATA, add(CFA_XSP16, literal(-3)))
          CFI DPL0 load(1, XDATA, add(CFA_XSP16, literal(-2)))
          CFI DPH0 load(1, XDATA, add(CFA_XSP16, literal(-1)))
          CFI CFA_SP SP+-2
          CFI CFA_XSP16 add(XSP16, 26)
          CFI Block cfiCond18 Using cfiCommon0
          CFI (cfiCond18) Function compactPage
          CFI (cfiCond18) Conditional ??CrossCallReturnLabel_78
          CFI (cfiCond18) R6 load(1, XDATA, add(CFA_XSP16, literal(-15)))
          CFI (cfiCond18) VB load(1, XDATA, add(CFA_XSP16, literal(-14)))
          CFI (cfiCond18) V0 load(1, XDATA, add(CFA_XSP16, literal(-13)))
          CFI (cfiCond18) V1 load(1, XDATA, add(CFA_XSP16, literal(-12)))
          CFI (cfiCond18) V2 load(1, XDATA, add(CFA_XSP16, literal(-11)))
          CFI (cfiCond18) V3 load(1, XDATA, add(CFA_XSP16, literal(-10)))
          CFI (cfiCond18) V4 load(1, XDATA, add(CFA_XSP16, literal(-9)))
          CFI (cfiCond18) V5 load(1, XDATA, add(CFA_XSP16, literal(-8)))
          CFI (cfiCond18) V6 load(1, XDATA, add(CFA_XSP16, literal(-7)))
          CFI (cfiCond18) R7 load(1, XDATA, add(CFA_XSP16, literal(-6)))
          CFI (cfiCond18) ?RET_LOW load(1, XDATA, add(CFA_XSP16, literal(-5)))
          CFI (cfiCond18) ?RET_HIGH load(1, XDATA, add(CFA_XSP16, literal(-4)))
          CFI (cfiCond18) ?BRET_EXT load(1, XDATA, add(CFA_XSP16, literal(-3)))
          CFI (cfiCond18) DPL0 load(1, XDATA, add(CFA_XSP16, literal(-2)))
          CFI (cfiCond18) DPH0 load(1, XDATA, add(CFA_XSP16, literal(-1)))
          CFI (cfiCond18) CFA_SP SP+-2
          CFI (cfiCond18) CFA_XSP16 add(XSP16, 26)
          CFI Block cfiPicker19 Using cfiCommon1
          CFI (cfiPicker19) NoFunction
          CFI (cfiPicker19) Picker
        MOV       R1,?V6
        LCALL     `??calcChkF::?relay`; Banked call to: calcChkF
        MOV       ?V4,R2
        MOV       ?V5,R3
        MOV       R0,?V4
        MOV       R1,?V5
        RET
          CFI EndBlock cfiCond17
          CFI EndBlock cfiCond18
          CFI EndBlock cfiPicker19

        RSEG BANKED_CODE:HUGECODE:NOROOT(0)
?Subroutine37:
          CFI Block cfiCond20 Using cfiCommon0
          CFI Function initPage
          CFI Conditional ??CrossCallReturnLabel_73
          CFI R6 load(1, XDATA, add(CFA_XSP16, literal(-16)))
          CFI VB load(1, XDATA, add(CFA_XSP16, literal(-15)))
          CFI V0 load(1, XDATA, add(CFA_XSP16, literal(-14)))
          CFI V1 load(1, XDATA, add(CFA_XSP16, literal(-13)))
          CFI V2 load(1, XDATA, add(CFA_XSP16, literal(-12)))
          CFI V3 load(1, XDATA, add(CFA_XSP16, literal(-11)))
          CFI V4 load(1, XDATA, add(CFA_XSP16, literal(-10)))
          CFI V5 load(1, XDATA, add(CFA_XSP16, literal(-9)))
          CFI V6 load(1, XDATA, add(CFA_XSP16, literal(-8)))
          CFI V7 load(1, XDATA, add(CFA_XSP16, literal(-7)))
          CFI R7 load(1, XDATA, add(CFA_XSP16, literal(-6)))
          CFI ?RET_LOW load(1, XDATA, add(CFA_XSP16, literal(-5)))
          CFI ?RET_HIGH load(1, XDATA, add(CFA_XSP16, literal(-4)))
          CFI ?BRET_EXT load(1, XDATA, add(CFA_XSP16, literal(-3)))
          CFI DPL0 load(1, XDATA, add(CFA_XSP16, literal(-2)))
          CFI DPH0 load(1, XDATA, add(CFA_XSP16, literal(-1)))
          CFI CFA_SP SP+-2
          CFI CFA_XSP16 add(XSP16, 26)
          CFI Block cfiCond21 Using cfiCommon0
          CFI (cfiCond21) Function compactPage
          CFI (cfiCond21) Conditional ??CrossCallReturnLabel_74
          CFI (cfiCond21) R6 load(1, XDATA, add(CFA_XSP16, literal(-15)))
          CFI (cfiCond21) VB load(1, XDATA, add(CFA_XSP16, literal(-14)))
          CFI (cfiCond21) V0 load(1, XDATA, add(CFA_XSP16, literal(-13)))
          CFI (cfiCond21) V1 load(1, XDATA, add(CFA_XSP16, literal(-12)))
          CFI (cfiCond21) V2 load(1, XDATA, add(CFA_XSP16, literal(-11)))
          CFI (cfiCond21) V3 load(1, XDATA, add(CFA_XSP16, literal(-10)))
          CFI (cfiCond21) V4 load(1, XDATA, add(CFA_XSP16, literal(-9)))
          CFI (cfiCond21) V5 load(1, XDATA, add(CFA_XSP16, literal(-8)))
          CFI (cfiCond21) V6 load(1, XDATA, add(CFA_XSP16, literal(-7)))
          CFI (cfiCond21) R7 load(1, XDATA, add(CFA_XSP16, literal(-6)))
          CFI (cfiCond21) ?RET_LOW load(1, XDATA, add(CFA_XSP16, literal(-5)))
          CFI (cfiCond21) ?RET_HIGH load(1, XDATA, add(CFA_XSP16, literal(-4)))
          CFI (cfiCond21) ?BRET_EXT load(1, XDATA, add(CFA_XSP16, literal(-3)))
          CFI (cfiCond21) DPL0 load(1, XDATA, add(CFA_XSP16, literal(-2)))
          CFI (cfiCond21) DPH0 load(1, XDATA, add(CFA_XSP16, literal(-1)))
          CFI (cfiCond21) CFA_SP SP+-2
          CFI (cfiCond21) CFA_XSP16 add(XSP16, 26)
          CFI Block cfiPicker22 Using cfiCommon1
          CFI (cfiPicker22) NoFunction
          CFI (cfiPicker22) Picker
        MOV       A,?V0
        ADD       A,#0x8
        MOV       ?V0,A
        CLR       A
        ADDC      A,?V1
        MOV       ?V1,A
        RET
          CFI EndBlock cfiCond20
          CFI EndBlock cfiCond21
          CFI EndBlock cfiPicker22

        RSEG BANKED_CODE:HUGECODE:NOROOT(0)
?Subroutine35:
          CFI Block cfiCond23 Using cfiCommon0
          CFI Function initPage
          CFI Conditional ??CrossCallReturnLabel_71
          CFI R6 load(1, XDATA, add(CFA_XSP16, literal(-16)))
          CFI VB load(1, XDATA, add(CFA_XSP16, literal(-15)))
          CFI V0 load(1, XDATA, add(CFA_XSP16, literal(-14)))
          CFI V1 load(1, XDATA, add(CFA_XSP16, literal(-13)))
          CFI V2 load(1, XDATA, add(CFA_XSP16, literal(-12)))
          CFI V3 load(1, XDATA, add(CFA_XSP16, literal(-11)))
          CFI V4 load(1, XDATA, add(CFA_XSP16, literal(-10)))
          CFI V5 load(1, XDATA, add(CFA_XSP16, literal(-9)))
          CFI V6 load(1, XDATA, add(CFA_XSP16, literal(-8)))
          CFI V7 load(1, XDATA, add(CFA_XSP16, literal(-7)))
          CFI R7 load(1, XDATA, add(CFA_XSP16, literal(-6)))
          CFI ?RET_LOW load(1, XDATA, add(CFA_XSP16, literal(-5)))
          CFI ?RET_HIGH load(1, XDATA, add(CFA_XSP16, literal(-4)))
          CFI ?BRET_EXT load(1, XDATA, add(CFA_XSP16, literal(-3)))
          CFI DPL0 load(1, XDATA, add(CFA_XSP16, literal(-2)))
          CFI DPH0 load(1, XDATA, add(CFA_XSP16, literal(-1)))
          CFI CFA_SP SP+-2
          CFI CFA_XSP16 add(XSP16, 26)
          CFI Block cfiCond24 Using cfiCommon0
          CFI (cfiCond24) Function compactPage
          CFI (cfiCond24) Conditional ??CrossCallReturnLabel_72
          CFI (cfiCond24) R6 load(1, XDATA, add(CFA_XSP16, literal(-15)))
          CFI (cfiCond24) VB load(1, XDATA, add(CFA_XSP16, literal(-14)))
          CFI (cfiCond24) V0 load(1, XDATA, add(CFA_XSP16, literal(-13)))
          CFI (cfiCond24) V1 load(1, XDATA, add(CFA_XSP16, literal(-12)))
          CFI (cfiCond24) V2 load(1, XDATA, add(CFA_XSP16, literal(-11)))
          CFI (cfiCond24) V3 load(1, XDATA, add(CFA_XSP16, literal(-10)))
          CFI (cfiCond24) V4 load(1, XDATA, add(CFA_XSP16, literal(-9)))
          CFI (cfiCond24) V5 load(1, XDATA, add(CFA_XSP16, literal(-8)))
          CFI (cfiCond24) V6 load(1, XDATA, add(CFA_XSP16, literal(-7)))
          CFI (cfiCond24) R7 load(1, XDATA, add(CFA_XSP16, literal(-6)))
          CFI (cfiCond24) ?RET_LOW load(1, XDATA, add(CFA_XSP16, literal(-5)))
          CFI (cfiCond24) ?RET_HIGH load(1, XDATA, add(CFA_XSP16, literal(-4)))
          CFI (cfiCond24) ?BRET_EXT load(1, XDATA, add(CFA_XSP16, literal(-3)))
          CFI (cfiCond24) DPL0 load(1, XDATA, add(CFA_XSP16, literal(-2)))
          CFI (cfiCond24) DPH0 load(1, XDATA, add(CFA_XSP16, literal(-1)))
          CFI (cfiCond24) CFA_SP SP+-2
          CFI (cfiCond24) CFA_XSP16 add(XSP16, 26)
          CFI Block cfiPicker25 Using cfiCommon1
          CFI (cfiPicker25) NoFunction
          CFI (cfiPicker25) Picker
        MOV       A,R4
        ADD       A,#0x3
        MOV       R0,A
        CLR       A
        ADDC      A,R5
        MOV       R1,A
        MOV       A,R0
        ANL       A,#0xfc
        MOV       R6,A
        MOV       A,R1
        MOV       R7,A
        RET
          CFI EndBlock cfiCond23
          CFI EndBlock cfiCond24
          CFI EndBlock cfiPicker25

        RSEG BANKED_CODE:HUGECODE:NOROOT(0)
?Subroutine34:
          CFI Block cfiCond26 Using cfiCommon0
          CFI Function initPage
          CFI Conditional ??CrossCallReturnLabel_69
          CFI R6 load(1, XDATA, add(CFA_XSP16, literal(-16)))
          CFI VB load(1, XDATA, add(CFA_XSP16, literal(-15)))
          CFI V0 load(1, XDATA, add(CFA_XSP16, literal(-14)))
          CFI V1 load(1, XDATA, add(CFA_XSP16, literal(-13)))
          CFI V2 load(1, XDATA, add(CFA_XSP16, literal(-12)))
          CFI V3 load(1, XDATA, add(CFA_XSP16, literal(-11)))
          CFI V4 load(1, XDATA, add(CFA_XSP16, literal(-10)))
          CFI V5 load(1, XDATA, add(CFA_XSP16, literal(-9)))
          CFI V6 load(1, XDATA, add(CFA_XSP16, literal(-8)))
          CFI V7 load(1, XDATA, add(CFA_XSP16, literal(-7)))
          CFI R7 load(1, XDATA, add(CFA_XSP16, literal(-6)))
          CFI ?RET_LOW load(1, XDATA, add(CFA_XSP16, literal(-5)))
          CFI ?RET_HIGH load(1, XDATA, add(CFA_XSP16, literal(-4)))
          CFI ?BRET_EXT load(1, XDATA, add(CFA_XSP16, literal(-3)))
          CFI DPL0 load(1, XDATA, add(CFA_XSP16, literal(-2)))
          CFI DPH0 load(1, XDATA, add(CFA_XSP16, literal(-1)))
          CFI CFA_SP SP+-2
          CFI CFA_XSP16 add(XSP16, 26)
          CFI Block cfiCond27 Using cfiCommon0
          CFI (cfiCond27) Function compactPage
          CFI (cfiCond27) Conditional ??CrossCallReturnLabel_70
          CFI (cfiCond27) R6 load(1, XDATA, add(CFA_XSP16, literal(-15)))
          CFI (cfiCond27) VB load(1, XDATA, add(CFA_XSP16, literal(-14)))
          CFI (cfiCond27) V0 load(1, XDATA, add(CFA_XSP16, literal(-13)))
          CFI (cfiCond27) V1 load(1, XDATA, add(CFA_XSP16, literal(-12)))
          CFI (cfiCond27) V2 load(1, XDATA, add(CFA_XSP16, literal(-11)))
          CFI (cfiCond27) V3 load(1, XDATA, add(CFA_XSP16, literal(-10)))
          CFI (cfiCond27) V4 load(1, XDATA, add(CFA_XSP16, literal(-9)))
          CFI (cfiCond27) V5 load(1, XDATA, add(CFA_XSP16, literal(-8)))
          CFI (cfiCond27) V6 load(1, XDATA, add(CFA_XSP16, literal(-7)))
          CFI (cfiCond27) R7 load(1, XDATA, add(CFA_XSP16, literal(-6)))
          CFI (cfiCond27) ?RET_LOW load(1, XDATA, add(CFA_XSP16, literal(-5)))
          CFI (cfiCond27) ?RET_HIGH load(1, XDATA, add(CFA_XSP16, literal(-4)))
          CFI (cfiCond27) ?BRET_EXT load(1, XDATA, add(CFA_XSP16, literal(-3)))
          CFI (cfiCond27) DPL0 load(1, XDATA, add(CFA_XSP16, literal(-2)))
          CFI (cfiCond27) DPH0 load(1, XDATA, add(CFA_XSP16, literal(-1)))
          CFI (cfiCond27) CFA_SP SP+-2
          CFI (cfiCond27) CFA_XSP16 add(XSP16, 26)
          CFI Block cfiPicker28 Using cfiCommon1
          CFI (cfiPicker28) NoFunction
          CFI (cfiPicker28) Picker
        MOV       A,#-0x8
        CLR       C
        SUBB      A,?V0
        MOV       R0,A
        MOV       A,#0x7
        SUBB      A,?V1
        MOV       R1,A
        CLR       C
        MOV       A,R0
        SUBB      A,R6
        MOV       A,R1
        SUBB      A,R7
        RET
          CFI EndBlock cfiCond26
          CFI EndBlock cfiCond27
          CFI EndBlock cfiPicker28

        RSEG BANKED_CODE:HUGECODE:NOROOT(0)
?Subroutine28:
          CFI Block cfiCond29 Using cfiCommon0
          CFI Function compactPage
          CFI Conditional ??CrossCallReturnLabel_97
          CFI R6 load(1, XDATA, add(CFA_XSP16, literal(-15)))
          CFI VB load(1, XDATA, add(CFA_XSP16, literal(-14)))
          CFI V0 load(1, XDATA, add(CFA_XSP16, literal(-13)))
          CFI V1 load(1, XDATA, add(CFA_XSP16, literal(-12)))
          CFI V2 load(1, XDATA, add(CFA_XSP16, literal(-11)))
          CFI V3 load(1, XDATA, add(CFA_XSP16, literal(-10)))
          CFI V4 load(1, XDATA, add(CFA_XSP16, literal(-9)))
          CFI V5 load(1, XDATA, add(CFA_XSP16, literal(-8)))
          CFI V6 load(1, XDATA, add(CFA_XSP16, literal(-7)))
          CFI R7 load(1, XDATA, add(CFA_XSP16, literal(-6)))
          CFI ?RET_LOW load(1, XDATA, add(CFA_XSP16, literal(-5)))
          CFI ?RET_HIGH load(1, XDATA, add(CFA_XSP16, literal(-4)))
          CFI ?BRET_EXT load(1, XDATA, add(CFA_XSP16, literal(-3)))
          CFI DPL0 load(1, XDATA, add(CFA_XSP16, literal(-2)))
          CFI DPH0 load(1, XDATA, add(CFA_XSP16, literal(-1)))
          CFI CFA_SP SP+-2
          CFI CFA_XSP16 add(XSP16, 26)
          CFI Block cfiCond30 Using cfiCommon0
          CFI (cfiCond30) Function initItem
          CFI (cfiCond30) Conditional ??CrossCallReturnLabel_98
          CFI (cfiCond30) R6 load(1, XDATA, add(CFA_XSP16, literal(-16)))
          CFI (cfiCond30) VB load(1, XDATA, add(CFA_XSP16, literal(-15)))
          CFI (cfiCond30) V0 load(1, XDATA, add(CFA_XSP16, literal(-14)))
          CFI (cfiCond30) V1 load(1, XDATA, add(CFA_XSP16, literal(-13)))
          CFI (cfiCond30) V2 load(1, XDATA, add(CFA_XSP16, literal(-12)))
          CFI (cfiCond30) V3 load(1, XDATA, add(CFA_XSP16, literal(-11)))
          CFI (cfiCond30) V4 load(1, XDATA, add(CFA_XSP16, literal(-10)))
          CFI (cfiCond30) V5 load(1, XDATA, add(CFA_XSP16, literal(-9)))
          CFI (cfiCond30) V6 load(1, XDATA, add(CFA_XSP16, literal(-8)))
          CFI (cfiCond30) V7 load(1, XDATA, add(CFA_XSP16, literal(-7)))
          CFI (cfiCond30) R7 load(1, XDATA, add(CFA_XSP16, literal(-6)))
          CFI (cfiCond30) ?RET_LOW load(1, XDATA, add(CFA_XSP16, literal(-5)))
          CFI (cfiCond30) ?RET_HIGH load(1, XDATA, add(CFA_XSP16, literal(-4)))
          CFI (cfiCond30) ?BRET_EXT load(1, XDATA, add(CFA_XSP16, literal(-3)))
          CFI (cfiCond30) DPL0 load(1, XDATA, add(CFA_XSP16, literal(-2)))
          CFI (cfiCond30) DPH0 load(1, XDATA, add(CFA_XSP16, literal(-1)))
          CFI (cfiCond30) CFA_SP SP+-2
          CFI (cfiCond30) CFA_XSP16 add(XSP16, 26)
          CFI Block cfiPicker31 Using cfiCommon1
          CFI (cfiPicker31) NoFunction
          CFI (cfiPicker31) Picker
        ADD       A,0xE0 /* A   */
          CFI EndBlock cfiCond29
          CFI EndBlock cfiCond30
          CFI EndBlock cfiPicker31
        REQUIRE ??Subroutine52_0
        ; // Fall through to label ??Subroutine52_0

        RSEG BANKED_CODE:HUGECODE:NOROOT(0)
??Subroutine52_0:
          CFI Block cfiCond32 Using cfiCommon0
          CFI Function initPage
          CFI Conditional ??CrossCallReturnLabel_95
          CFI R6 load(1, XDATA, add(CFA_XSP16, literal(-16)))
          CFI VB load(1, XDATA, add(CFA_XSP16, literal(-15)))
          CFI V0 load(1, XDATA, add(CFA_XSP16, literal(-14)))
          CFI V1 load(1, XDATA, add(CFA_XSP16, literal(-13)))
          CFI V2 load(1, XDATA, add(CFA_XSP16, literal(-12)))
          CFI V3 load(1, XDATA, add(CFA_XSP16, literal(-11)))
          CFI V4 load(1, XDATA, add(CFA_XSP16, literal(-10)))
          CFI V5 load(1, XDATA, add(CFA_XSP16, literal(-9)))
          CFI V6 load(1, XDATA, add(CFA_XSP16, literal(-8)))
          CFI V7 load(1, XDATA, add(CFA_XSP16, literal(-7)))
          CFI R7 load(1, XDATA, add(CFA_XSP16, literal(-6)))
          CFI ?RET_LOW load(1, XDATA, add(CFA_XSP16, literal(-5)))
          CFI ?RET_HIGH load(1, XDATA, add(CFA_XSP16, literal(-4)))
          CFI ?BRET_EXT load(1, XDATA, add(CFA_XSP16, literal(-3)))
          CFI DPL0 load(1, XDATA, add(CFA_XSP16, literal(-2)))
          CFI DPH0 load(1, XDATA, add(CFA_XSP16, literal(-1)))
          CFI CFA_SP SP+-2
          CFI CFA_XSP16 add(XSP16, 26)
          CFI Block cfiCond33 Using cfiCommon0
          CFI (cfiCond33) Function erasePage
          CFI (cfiCond33) Conditional ??CrossCallReturnLabel_96
          CFI (cfiCond33) R6 load(1, XDATA, add(CFA_XSP16, literal(-9)))
          CFI (cfiCond33) VB load(1, XDATA, add(CFA_XSP16, literal(-8)))
          CFI (cfiCond33) V0 load(1, XDATA, add(CFA_XSP16, literal(-7)))
          CFI (cfiCond33) R7 load(1, XDATA, add(CFA_XSP16, literal(-6)))
          CFI (cfiCond33) ?RET_LOW load(1, XDATA, add(CFA_XSP16, literal(-5)))
          CFI (cfiCond33) ?RET_HIGH load(1, XDATA, add(CFA_XSP16, literal(-4)))
          CFI (cfiCond33) ?BRET_EXT load(1, XDATA, add(CFA_XSP16, literal(-3)))
          CFI (cfiCond33) DPL0 load(1, XDATA, add(CFA_XSP16, literal(-2)))
          CFI (cfiCond33) DPH0 load(1, XDATA, add(CFA_XSP16, literal(-1)))
          CFI (cfiCond33) CFA_SP SP+-2
          CFI (cfiCond33) CFA_XSP16 add(XSP16, 9)
          CFI Block cfiCond34 Using cfiCommon0
          CFI (cfiCond34) Function compactPage
          CFI (cfiCond34) Conditional ??CrossCallReturnLabel_97
          CFI (cfiCond34) R6 load(1, XDATA, add(CFA_XSP16, literal(-15)))
          CFI (cfiCond34) VB load(1, XDATA, add(CFA_XSP16, literal(-14)))
          CFI (cfiCond34) V0 load(1, XDATA, add(CFA_XSP16, literal(-13)))
          CFI (cfiCond34) V1 load(1, XDATA, add(CFA_XSP16, literal(-12)))
          CFI (cfiCond34) V2 load(1, XDATA, add(CFA_XSP16, literal(-11)))
          CFI (cfiCond34) V3 load(1, XDATA, add(CFA_XSP16, literal(-10)))
          CFI (cfiCond34) V4 load(1, XDATA, add(CFA_XSP16, literal(-9)))
          CFI (cfiCond34) V5 load(1, XDATA, add(CFA_XSP16, literal(-8)))
          CFI (cfiCond34) V6 load(1, XDATA, add(CFA_XSP16, literal(-7)))
          CFI (cfiCond34) R7 load(1, XDATA, add(CFA_XSP16, literal(-6)))
          CFI (cfiCond34) ?RET_LOW load(1, XDATA, add(CFA_XSP16, literal(-5)))
          CFI (cfiCond34) ?RET_HIGH load(1, XDATA, add(CFA_XSP16, literal(-4)))
          CFI (cfiCond34) ?BRET_EXT load(1, XDATA, add(CFA_XSP16, literal(-3)))
          CFI (cfiCond34) DPL0 load(1, XDATA, add(CFA_XSP16, literal(-2)))
          CFI (cfiCond34) DPH0 load(1, XDATA, add(CFA_XSP16, literal(-1)))
          CFI (cfiCond34) CFA_SP SP+-2
          CFI (cfiCond34) CFA_XSP16 add(XSP16, 26)
          CFI Block cfiCond35 Using cfiCommon0
          CFI (cfiCond35) Function initItem
          CFI (cfiCond35) Conditional ??CrossCallReturnLabel_98
          CFI (cfiCond35) R6 load(1, XDATA, add(CFA_XSP16, literal(-16)))
          CFI (cfiCond35) VB load(1, XDATA, add(CFA_XSP16, literal(-15)))
          CFI (cfiCond35) V0 load(1, XDATA, add(CFA_XSP16, literal(-14)))
          CFI (cfiCond35) V1 load(1, XDATA, add(CFA_XSP16, literal(-13)))
          CFI (cfiCond35) V2 load(1, XDATA, add(CFA_XSP16, literal(-12)))
          CFI (cfiCond35) V3 load(1, XDATA, add(CFA_XSP16, literal(-11)))
          CFI (cfiCond35) V4 load(1, XDATA, add(CFA_XSP16, literal(-10)))
          CFI (cfiCond35) V5 load(1, XDATA, add(CFA_XSP16, literal(-9)))
          CFI (cfiCond35) V6 load(1, XDATA, add(CFA_XSP16, literal(-8)))
          CFI (cfiCond35) V7 load(1, XDATA, add(CFA_XSP16, literal(-7)))
          CFI (cfiCond35) R7 load(1, XDATA, add(CFA_XSP16, literal(-6)))
          CFI (cfiCond35) ?RET_LOW load(1, XDATA, add(CFA_XSP16, literal(-5)))
          CFI (cfiCond35) ?RET_HIGH load(1, XDATA, add(CFA_XSP16, literal(-4)))
          CFI (cfiCond35) ?BRET_EXT load(1, XDATA, add(CFA_XSP16, literal(-3)))
          CFI (cfiCond35) DPL0 load(1, XDATA, add(CFA_XSP16, literal(-2)))
          CFI (cfiCond35) DPH0 load(1, XDATA, add(CFA_XSP16, literal(-1)))
          CFI (cfiCond35) CFA_SP SP+-2
          CFI (cfiCond35) CFA_XSP16 add(XSP16, 26)
          CFI Block cfiPicker36 Using cfiCommon1
          CFI (cfiPicker36) NoFunction
          CFI (cfiPicker36) Picker
        MOV       R0,A
        CLR       A
        RLC       A
        MOV       R1,A
        MOV       A,#(pgOff + 14) & 0xff
        ADD       A,R0
        MOV       DPL,A
        MOV       A,#((pgOff - 242) >> 8) & 0xff
        ADDC      A,R1
        MOV       DPH,A
        RET
          CFI EndBlock cfiCond32
          CFI EndBlock cfiCond33
          CFI EndBlock cfiCond34
          CFI EndBlock cfiCond35
          CFI EndBlock cfiPicker36

        RSEG BANKED_CODE:HUGECODE:NOROOT(0)
?Subroutine23:
          CFI Block cfiCond37 Using cfiCommon0
          CFI Function compactPage
          CFI Conditional ??CrossCallReturnLabel_99
          CFI R6 load(1, XDATA, add(CFA_XSP16, literal(-15)))
          CFI VB load(1, XDATA, add(CFA_XSP16, literal(-14)))
          CFI V0 load(1, XDATA, add(CFA_XSP16, literal(-13)))
          CFI V1 load(1, XDATA, add(CFA_XSP16, literal(-12)))
          CFI V2 load(1, XDATA, add(CFA_XSP16, literal(-11)))
          CFI V3 load(1, XDATA, add(CFA_XSP16, literal(-10)))
          CFI V4 load(1, XDATA, add(CFA_XSP16, literal(-9)))
          CFI V5 load(1, XDATA, add(CFA_XSP16, literal(-8)))
          CFI V6 load(1, XDATA, add(CFA_XSP16, literal(-7)))
          CFI R7 load(1, XDATA, add(CFA_XSP16, literal(-6)))
          CFI ?RET_LOW load(1, XDATA, add(CFA_XSP16, literal(-5)))
          CFI ?RET_HIGH load(1, XDATA, add(CFA_XSP16, literal(-4)))
          CFI ?BRET_EXT load(1, XDATA, add(CFA_XSP16, literal(-3)))
          CFI DPL0 load(1, XDATA, add(CFA_XSP16, literal(-2)))
          CFI DPH0 load(1, XDATA, add(CFA_XSP16, literal(-1)))
          CFI CFA_SP SP+-2
          CFI CFA_XSP16 add(XSP16, 26)
          CFI Block cfiCond38 Using cfiCommon0
          CFI (cfiCond38) Function compactPage
          CFI (cfiCond38) Conditional ??CrossCallReturnLabel_100
          CFI (cfiCond38) R6 load(1, XDATA, add(CFA_XSP16, literal(-15)))
          CFI (cfiCond38) VB load(1, XDATA, add(CFA_XSP16, literal(-14)))
          CFI (cfiCond38) V0 load(1, XDATA, add(CFA_XSP16, literal(-13)))
          CFI (cfiCond38) V1 load(1, XDATA, add(CFA_XSP16, literal(-12)))
          CFI (cfiCond38) V2 load(1, XDATA, add(CFA_XSP16, literal(-11)))
          CFI (cfiCond38) V3 load(1, XDATA, add(CFA_XSP16, literal(-10)))
          CFI (cfiCond38) V4 load(1, XDATA, add(CFA_XSP16, literal(-9)))
          CFI (cfiCond38) V5 load(1, XDATA, add(CFA_XSP16, literal(-8)))
          CFI (cfiCond38) V6 load(1, XDATA, add(CFA_XSP16, literal(-7)))
          CFI (cfiCond38) R7 load(1, XDATA, add(CFA_XSP16, literal(-6)))
          CFI (cfiCond38) ?RET_LOW load(1, XDATA, add(CFA_XSP16, literal(-5)))
          CFI (cfiCond38) ?RET_HIGH load(1, XDATA, add(CFA_XSP16, literal(-4)))
          CFI (cfiCond38) ?BRET_EXT load(1, XDATA, add(CFA_XSP16, literal(-3)))
          CFI (cfiCond38) DPL0 load(1, XDATA, add(CFA_XSP16, literal(-2)))
          CFI (cfiCond38) DPH0 load(1, XDATA, add(CFA_XSP16, literal(-1)))
          CFI (cfiCond38) CFA_SP SP+-2
          CFI (cfiCond38) CFA_XSP16 add(XSP16, 26)
          CFI Block cfiCond39 Using cfiCommon0
          CFI (cfiCond39) Function osal_nv_write
          CFI (cfiCond39) Conditional ??CrossCallReturnLabel_101
          CFI (cfiCond39) R6 load(1, XDATA, add(CFA_XSP16, literal(-16)))
          CFI (cfiCond39) VB load(1, XDATA, add(CFA_XSP16, literal(-15)))
          CFI (cfiCond39) V0 load(1, XDATA, add(CFA_XSP16, literal(-14)))
          CFI (cfiCond39) V1 load(1, XDATA, add(CFA_XSP16, literal(-13)))
          CFI (cfiCond39) V2 load(1, XDATA, add(CFA_XSP16, literal(-12)))
          CFI (cfiCond39) V3 load(1, XDATA, add(CFA_XSP16, literal(-11)))
          CFI (cfiCond39) V4 load(1, XDATA, add(CFA_XSP16, literal(-10)))
          CFI (cfiCond39) V5 load(1, XDATA, add(CFA_XSP16, literal(-9)))
          CFI (cfiCond39) V6 load(1, XDATA, add(CFA_XSP16, literal(-8)))
          CFI (cfiCond39) V7 load(1, XDATA, add(CFA_XSP16, literal(-7)))
          CFI (cfiCond39) R7 load(1, XDATA, add(CFA_XSP16, literal(-6)))
          CFI (cfiCond39) ?RET_LOW load(1, XDATA, add(CFA_XSP16, literal(-5)))
          CFI (cfiCond39) ?RET_HIGH load(1, XDATA, add(CFA_XSP16, literal(-4)))
          CFI (cfiCond39) ?BRET_EXT load(1, XDATA, add(CFA_XSP16, literal(-3)))
          CFI (cfiCond39) DPL0 load(1, XDATA, add(CFA_XSP16, literal(-2)))
          CFI (cfiCond39) DPH0 load(1, XDATA, add(CFA_XSP16, literal(-1)))
          CFI (cfiCond39) CFA_SP SP+-2
          CFI (cfiCond39) CFA_XSP16 add(XSP16, 35)
          CFI Block cfiPicker40 Using cfiCommon1
          CFI (cfiPicker40) NoFunction
          CFI (cfiPicker40) Picker
        MOV       DPTR,#pgRes
          CFI EndBlock cfiCond37
          CFI EndBlock cfiCond38
          CFI EndBlock cfiCond39
          CFI EndBlock cfiPicker40
        REQUIRE ??Subroutine53_0
        ; // Fall through to label ??Subroutine53_0

        RSEG BANKED_CODE:HUGECODE:NOROOT(0)
??Subroutine53_0:
          CFI Block cfiCond41 Using cfiCommon0
          CFI Function osal_nv_write
          CFI Conditional ??CrossCallReturnLabel_102
          CFI R6 load(1, XDATA, add(CFA_XSP16, literal(-16)))
          CFI VB load(1, XDATA, add(CFA_XSP16, literal(-15)))
          CFI V0 load(1, XDATA, add(CFA_XSP16, literal(-14)))
          CFI V1 load(1, XDATA, add(CFA_XSP16, literal(-13)))
          CFI V2 load(1, XDATA, add(CFA_XSP16, literal(-12)))
          CFI V3 load(1, XDATA, add(CFA_XSP16, literal(-11)))
          CFI V4 load(1, XDATA, add(CFA_XSP16, literal(-10)))
          CFI V5 load(1, XDATA, add(CFA_XSP16, literal(-9)))
          CFI V6 load(1, XDATA, add(CFA_XSP16, literal(-8)))
          CFI V7 load(1, XDATA, add(CFA_XSP16, literal(-7)))
          CFI R7 load(1, XDATA, add(CFA_XSP16, literal(-6)))
          CFI ?RET_LOW load(1, XDATA, add(CFA_XSP16, literal(-5)))
          CFI ?RET_HIGH load(1, XDATA, add(CFA_XSP16, literal(-4)))
          CFI ?BRET_EXT load(1, XDATA, add(CFA_XSP16, literal(-3)))
          CFI DPL0 load(1, XDATA, add(CFA_XSP16, literal(-2)))
          CFI DPH0 load(1, XDATA, add(CFA_XSP16, literal(-1)))
          CFI CFA_SP SP+-2
          CFI CFA_XSP16 add(XSP16, 35)
          CFI Block cfiCond42 Using cfiCommon0
          CFI (cfiCond42) Function compactPage
          CFI (cfiCond42) Conditional ??CrossCallReturnLabel_99
          CFI (cfiCond42) R6 load(1, XDATA, add(CFA_XSP16, literal(-15)))
          CFI (cfiCond42) VB load(1, XDATA, add(CFA_XSP16, literal(-14)))
          CFI (cfiCond42) V0 load(1, XDATA, add(CFA_XSP16, literal(-13)))
          CFI (cfiCond42) V1 load(1, XDATA, add(CFA_XSP16, literal(-12)))
          CFI (cfiCond42) V2 load(1, XDATA, add(CFA_XSP16, literal(-11)))
          CFI (cfiCond42) V3 load(1, XDATA, add(CFA_XSP16, literal(-10)))
          CFI (cfiCond42) V4 load(1, XDATA, add(CFA_XSP16, literal(-9)))
          CFI (cfiCond42) V5 load(1, XDATA, add(CFA_XSP16, literal(-8)))
          CFI (cfiCond42) V6 load(1, XDATA, add(CFA_XSP16, literal(-7)))
          CFI (cfiCond42) R7 load(1, XDATA, add(CFA_XSP16, literal(-6)))
          CFI (cfiCond42) ?RET_LOW load(1, XDATA, add(CFA_XSP16, literal(-5)))
          CFI (cfiCond42) ?RET_HIGH load(1, XDATA, add(CFA_XSP16, literal(-4)))
          CFI (cfiCond42) ?BRET_EXT load(1, XDATA, add(CFA_XSP16, literal(-3)))
          CFI (cfiCond42) DPL0 load(1, XDATA, add(CFA_XSP16, literal(-2)))
          CFI (cfiCond42) DPH0 load(1, XDATA, add(CFA_XSP16, literal(-1)))
          CFI (cfiCond42) CFA_SP SP+-2
          CFI (cfiCond42) CFA_XSP16 add(XSP16, 26)
          CFI Block cfiCond43 Using cfiCommon0
          CFI (cfiCond43) Function compactPage
          CFI (cfiCond43) Conditional ??CrossCallReturnLabel_100
          CFI (cfiCond43) R6 load(1, XDATA, add(CFA_XSP16, literal(-15)))
          CFI (cfiCond43) VB load(1, XDATA, add(CFA_XSP16, literal(-14)))
          CFI (cfiCond43) V0 load(1, XDATA, add(CFA_XSP16, literal(-13)))
          CFI (cfiCond43) V1 load(1, XDATA, add(CFA_XSP16, literal(-12)))
          CFI (cfiCond43) V2 load(1, XDATA, add(CFA_XSP16, literal(-11)))
          CFI (cfiCond43) V3 load(1, XDATA, add(CFA_XSP16, literal(-10)))
          CFI (cfiCond43) V4 load(1, XDATA, add(CFA_XSP16, literal(-9)))
          CFI (cfiCond43) V5 load(1, XDATA, add(CFA_XSP16, literal(-8)))
          CFI (cfiCond43) V6 load(1, XDATA, add(CFA_XSP16, literal(-7)))
          CFI (cfiCond43) R7 load(1, XDATA, add(CFA_XSP16, literal(-6)))
          CFI (cfiCond43) ?RET_LOW load(1, XDATA, add(CFA_XSP16, literal(-5)))
          CFI (cfiCond43) ?RET_HIGH load(1, XDATA, add(CFA_XSP16, literal(-4)))
          CFI (cfiCond43) ?BRET_EXT load(1, XDATA, add(CFA_XSP16, literal(-3)))
          CFI (cfiCond43) DPL0 load(1, XDATA, add(CFA_XSP16, literal(-2)))
          CFI (cfiCond43) DPH0 load(1, XDATA, add(CFA_XSP16, literal(-1)))
          CFI (cfiCond43) CFA_SP SP+-2
          CFI (cfiCond43) CFA_XSP16 add(XSP16, 26)
          CFI Block cfiCond44 Using cfiCommon0
          CFI (cfiCond44) Function osal_nv_write
          CFI (cfiCond44) Conditional ??CrossCallReturnLabel_101
          CFI (cfiCond44) R6 load(1, XDATA, add(CFA_XSP16, literal(-16)))
          CFI (cfiCond44) VB load(1, XDATA, add(CFA_XSP16, literal(-15)))
          CFI (cfiCond44) V0 load(1, XDATA, add(CFA_XSP16, literal(-14)))
          CFI (cfiCond44) V1 load(1, XDATA, add(CFA_XSP16, literal(-13)))
          CFI (cfiCond44) V2 load(1, XDATA, add(CFA_XSP16, literal(-12)))
          CFI (cfiCond44) V3 load(1, XDATA, add(CFA_XSP16, literal(-11)))
          CFI (cfiCond44) V4 load(1, XDATA, add(CFA_XSP16, literal(-10)))
          CFI (cfiCond44) V5 load(1, XDATA, add(CFA_XSP16, literal(-9)))
          CFI (cfiCond44) V6 load(1, XDATA, add(CFA_XSP16, literal(-8)))
          CFI (cfiCond44) V7 load(1, XDATA, add(CFA_XSP16, literal(-7)))
          CFI (cfiCond44) R7 load(1, XDATA, add(CFA_XSP16, literal(-6)))
          CFI (cfiCond44) ?RET_LOW load(1, XDATA, add(CFA_XSP16, literal(-5)))
          CFI (cfiCond44) ?RET_HIGH load(1, XDATA, add(CFA_XSP16, literal(-4)))
          CFI (cfiCond44) ?BRET_EXT load(1, XDATA, add(CFA_XSP16, literal(-3)))
          CFI (cfiCond44) DPL0 load(1, XDATA, add(CFA_XSP16, literal(-2)))
          CFI (cfiCond44) DPH0 load(1, XDATA, add(CFA_XSP16, literal(-1)))
          CFI (cfiCond44) CFA_SP SP+-2
          CFI (cfiCond44) CFA_XSP16 add(XSP16, 35)
          CFI Block cfiPicker45 Using cfiCommon1
          CFI (cfiPicker45) NoFunction
          CFI (cfiPicker45) Picker
        MOVX      A,@DPTR
        MOV       R1,A
        LCALL     `??erasePage::?relay`; Banked call to: erasePage
        RET
          CFI EndBlock cfiCond41
          CFI EndBlock cfiCond42
          CFI EndBlock cfiCond43
          CFI EndBlock cfiCond44
          CFI EndBlock cfiPicker45

        RSEG BANKED_CODE:HUGECODE:NOROOT(0)
?Subroutine17:
          CFI Block cfiCond46 Using cfiCommon0
          CFI Function initPage
          CFI Conditional ??CrossCallReturnLabel_26
          CFI R6 load(1, XDATA, add(CFA_XSP16, literal(-16)))
          CFI VB load(1, XDATA, add(CFA_XSP16, literal(-15)))
          CFI V0 load(1, XDATA, add(CFA_XSP16, literal(-14)))
          CFI V1 load(1, XDATA, add(CFA_XSP16, literal(-13)))
          CFI V2 load(1, XDATA, add(CFA_XSP16, literal(-12)))
          CFI V3 load(1, XDATA, add(CFA_XSP16, literal(-11)))
          CFI V4 load(1, XDATA, add(CFA_XSP16, literal(-10)))
          CFI V5 load(1, XDATA, add(CFA_XSP16, literal(-9)))
          CFI V6 load(1, XDATA, add(CFA_XSP16, literal(-8)))
          CFI V7 load(1, XDATA, add(CFA_XSP16, literal(-7)))
          CFI R7 load(1, XDATA, add(CFA_XSP16, literal(-6)))
          CFI ?RET_LOW load(1, XDATA, add(CFA_XSP16, literal(-5)))
          CFI ?RET_HIGH load(1, XDATA, add(CFA_XSP16, literal(-4)))
          CFI ?BRET_EXT load(1, XDATA, add(CFA_XSP16, literal(-3)))
          CFI DPL0 load(1, XDATA, add(CFA_XSP16, literal(-2)))
          CFI DPH0 load(1, XDATA, add(CFA_XSP16, literal(-1)))
          CFI CFA_SP SP+-2
          CFI CFA_XSP16 add(XSP16, 26)
          CFI Block cfiCond47 Using cfiCommon0
          CFI (cfiCond47) Function compactPage
          CFI (cfiCond47) Conditional ??CrossCallReturnLabel_27
          CFI (cfiCond47) R6 load(1, XDATA, add(CFA_XSP16, literal(-15)))
          CFI (cfiCond47) VB load(1, XDATA, add(CFA_XSP16, literal(-14)))
          CFI (cfiCond47) V0 load(1, XDATA, add(CFA_XSP16, literal(-13)))
          CFI (cfiCond47) V1 load(1, XDATA, add(CFA_XSP16, literal(-12)))
          CFI (cfiCond47) V2 load(1, XDATA, add(CFA_XSP16, literal(-11)))
          CFI (cfiCond47) V3 load(1, XDATA, add(CFA_XSP16, literal(-10)))
          CFI (cfiCond47) V4 load(1, XDATA, add(CFA_XSP16, literal(-9)))
          CFI (cfiCond47) V5 load(1, XDATA, add(CFA_XSP16, literal(-8)))
          CFI (cfiCond47) V6 load(1, XDATA, add(CFA_XSP16, literal(-7)))
          CFI (cfiCond47) R7 load(1, XDATA, add(CFA_XSP16, literal(-6)))
          CFI (cfiCond47) ?RET_LOW load(1, XDATA, add(CFA_XSP16, literal(-5)))
          CFI (cfiCond47) ?RET_HIGH load(1, XDATA, add(CFA_XSP16, literal(-4)))
          CFI (cfiCond47) ?BRET_EXT load(1, XDATA, add(CFA_XSP16, literal(-3)))
          CFI (cfiCond47) DPL0 load(1, XDATA, add(CFA_XSP16, literal(-2)))
          CFI (cfiCond47) DPH0 load(1, XDATA, add(CFA_XSP16, literal(-1)))
          CFI (cfiCond47) CFA_SP SP+-2
          CFI (cfiCond47) CFA_XSP16 add(XSP16, 26)
          CFI Block cfiPicker48 Using cfiCommon1
          CFI (cfiPicker48) NoFunction
          CFI (cfiPicker48) Picker
        LCALL     ?Subroutine44 & 0xFFFF
??CrossCallReturnLabel_90:
        CLR       C
        MOV       A,R4
        SUBB      A,#-0x4
        MOV       A,R5
        SUBB      A,#-0x1
        RET
          CFI EndBlock cfiCond46
          CFI EndBlock cfiCond47
          CFI EndBlock cfiPicker48

        RSEG BANKED_CODE:HUGECODE:NOROOT(0)
?Subroutine16:
          CFI Block cfiCond49 Using cfiCommon0
          CFI Function compactPage
          CFI Conditional ??CrossCallReturnLabel_24
          CFI R6 load(1, XDATA, add(CFA_XSP16, literal(-15)))
          CFI VB load(1, XDATA, add(CFA_XSP16, literal(-14)))
          CFI V0 load(1, XDATA, add(CFA_XSP16, literal(-13)))
          CFI V1 load(1, XDATA, add(CFA_XSP16, literal(-12)))
          CFI V2 load(1, XDATA, add(CFA_XSP16, literal(-11)))
          CFI V3 load(1, XDATA, add(CFA_XSP16, literal(-10)))
          CFI V4 load(1, XDATA, add(CFA_XSP16, literal(-9)))
          CFI V5 load(1, XDATA, add(CFA_XSP16, literal(-8)))
          CFI V6 load(1, XDATA, add(CFA_XSP16, literal(-7)))
          CFI R7 load(1, XDATA, add(CFA_XSP16, literal(-6)))
          CFI ?RET_LOW load(1, XDATA, add(CFA_XSP16, literal(-5)))
          CFI ?RET_HIGH load(1, XDATA, add(CFA_XSP16, literal(-4)))
          CFI ?BRET_EXT load(1, XDATA, add(CFA_XSP16, literal(-3)))
          CFI DPL0 load(1, XDATA, add(CFA_XSP16, literal(-2)))
          CFI DPH0 load(1, XDATA, add(CFA_XSP16, literal(-1)))
          CFI CFA_SP SP+-2
          CFI CFA_XSP16 add(XSP16, 26)
          CFI Block cfiCond50 Using cfiCommon0
          CFI (cfiCond50) Function compactPage
          CFI (cfiCond50) Conditional ??CrossCallReturnLabel_25
          CFI (cfiCond50) R6 load(1, XDATA, add(CFA_XSP16, literal(-15)))
          CFI (cfiCond50) VB load(1, XDATA, add(CFA_XSP16, literal(-14)))
          CFI (cfiCond50) V0 load(1, XDATA, add(CFA_XSP16, literal(-13)))
          CFI (cfiCond50) V1 load(1, XDATA, add(CFA_XSP16, literal(-12)))
          CFI (cfiCond50) V2 load(1, XDATA, add(CFA_XSP16, literal(-11)))
          CFI (cfiCond50) V3 load(1, XDATA, add(CFA_XSP16, literal(-10)))
          CFI (cfiCond50) V4 load(1, XDATA, add(CFA_XSP16, literal(-9)))
          CFI (cfiCond50) V5 load(1, XDATA, add(CFA_XSP16, literal(-8)))
          CFI (cfiCond50) V6 load(1, XDATA, add(CFA_XSP16, literal(-7)))
          CFI (cfiCond50) R7 load(1, XDATA, add(CFA_XSP16, literal(-6)))
          CFI (cfiCond50) ?RET_LOW load(1, XDATA, add(CFA_XSP16, literal(-5)))
          CFI (cfiCond50) ?RET_HIGH load(1, XDATA, add(CFA_XSP16, literal(-4)))
          CFI (cfiCond50) ?BRET_EXT load(1, XDATA, add(CFA_XSP16, literal(-3)))
          CFI (cfiCond50) DPL0 load(1, XDATA, add(CFA_XSP16, literal(-2)))
          CFI (cfiCond50) DPH0 load(1, XDATA, add(CFA_XSP16, literal(-1)))
          CFI (cfiCond50) CFA_SP SP+-2
          CFI (cfiCond50) CFA_XSP16 add(XSP16, 26)
          CFI Block cfiPicker51 Using cfiCommon1
          CFI (cfiPicker51) NoFunction
          CFI (cfiPicker51) Picker
        LCALL     ?Subroutine44 & 0xFFFF
??CrossCallReturnLabel_89:
        MOV       R2,?V0
        MOV       R3,?V1
        MOV       DPTR,#pgRes
        MOVX      A,@DPTR
        MOV       R1,A
        RET
          CFI EndBlock cfiCond49
          CFI EndBlock cfiCond50
          CFI EndBlock cfiPicker51

        RSEG BANKED_CODE:HUGECODE:NOROOT(0)
?Subroutine12:
          CFI Block cfiCond52 Using cfiCommon0
          CFI Function initPage
          CFI Conditional ??CrossCallReturnLabel_13
          CFI R6 load(1, XDATA, add(CFA_XSP16, literal(-16)))
          CFI VB load(1, XDATA, add(CFA_XSP16, literal(-15)))
          CFI V0 load(1, XDATA, add(CFA_XSP16, literal(-14)))
          CFI V1 load(1, XDATA, add(CFA_XSP16, literal(-13)))
          CFI V2 load(1, XDATA, add(CFA_XSP16, literal(-12)))
          CFI V3 load(1, XDATA, add(CFA_XSP16, literal(-11)))
          CFI V4 load(1, XDATA, add(CFA_XSP16, literal(-10)))
          CFI V5 load(1, XDATA, add(CFA_XSP16, literal(-9)))
          CFI V6 load(1, XDATA, add(CFA_XSP16, literal(-8)))
          CFI V7 load(1, XDATA, add(CFA_XSP16, literal(-7)))
          CFI R7 load(1, XDATA, add(CFA_XSP16, literal(-6)))
          CFI ?RET_LOW load(1, XDATA, add(CFA_XSP16, literal(-5)))
          CFI ?RET_HIGH load(1, XDATA, add(CFA_XSP16, literal(-4)))
          CFI ?BRET_EXT load(1, XDATA, add(CFA_XSP16, literal(-3)))
          CFI DPL0 load(1, XDATA, add(CFA_XSP16, literal(-2)))
          CFI DPH0 load(1, XDATA, add(CFA_XSP16, literal(-1)))
          CFI CFA_SP SP+-2
          CFI CFA_XSP16 add(XSP16, 26)
          CFI Block cfiCond53 Using cfiCommon0
          CFI (cfiCond53) Function initPage
          CFI (cfiCond53) Conditional ??CrossCallReturnLabel_14
          CFI (cfiCond53) R6 load(1, XDATA, add(CFA_XSP16, literal(-16)))
          CFI (cfiCond53) VB load(1, XDATA, add(CFA_XSP16, literal(-15)))
          CFI (cfiCond53) V0 load(1, XDATA, add(CFA_XSP16, literal(-14)))
          CFI (cfiCond53) V1 load(1, XDATA, add(CFA_XSP16, literal(-13)))
          CFI (cfiCond53) V2 load(1, XDATA, add(CFA_XSP16, literal(-12)))
          CFI (cfiCond53) V3 load(1, XDATA, add(CFA_XSP16, literal(-11)))
          CFI (cfiCond53) V4 load(1, XDATA, add(CFA_XSP16, literal(-10)))
          CFI (cfiCond53) V5 load(1, XDATA, add(CFA_XSP16, literal(-9)))
          CFI (cfiCond53) V6 load(1, XDATA, add(CFA_XSP16, literal(-8)))
          CFI (cfiCond53) V7 load(1, XDATA, add(CFA_XSP16, literal(-7)))
          CFI (cfiCond53) R7 load(1, XDATA, add(CFA_XSP16, literal(-6)))
          CFI (cfiCond53) ?RET_LOW load(1, XDATA, add(CFA_XSP16, literal(-5)))
          CFI (cfiCond53) ?RET_HIGH load(1, XDATA, add(CFA_XSP16, literal(-4)))
          CFI (cfiCond53) ?BRET_EXT load(1, XDATA, add(CFA_XSP16, literal(-3)))
          CFI (cfiCond53) DPL0 load(1, XDATA, add(CFA_XSP16, literal(-2)))
          CFI (cfiCond53) DPH0 load(1, XDATA, add(CFA_XSP16, literal(-1)))
          CFI (cfiCond53) CFA_SP SP+-2
          CFI (cfiCond53) CFA_XSP16 add(XSP16, 26)
          CFI Block cfiCond54 Using cfiCommon0
          CFI (cfiCond54) Function compactPage
          CFI (cfiCond54) Conditional ??CrossCallReturnLabel_15
          CFI (cfiCond54) R6 load(1, XDATA, add(CFA_XSP16, literal(-15)))
          CFI (cfiCond54) VB load(1, XDATA, add(CFA_XSP16, literal(-14)))
          CFI (cfiCond54) V0 load(1, XDATA, add(CFA_XSP16, literal(-13)))
          CFI (cfiCond54) V1 load(1, XDATA, add(CFA_XSP16, literal(-12)))
          CFI (cfiCond54) V2 load(1, XDATA, add(CFA_XSP16, literal(-11)))
          CFI (cfiCond54) V3 load(1, XDATA, add(CFA_XSP16, literal(-10)))
          CFI (cfiCond54) V4 load(1, XDATA, add(CFA_XSP16, literal(-9)))
          CFI (cfiCond54) V5 load(1, XDATA, add(CFA_XSP16, literal(-8)))
          CFI (cfiCond54) V6 load(1, XDATA, add(CFA_XSP16, literal(-7)))
          CFI (cfiCond54) R7 load(1, XDATA, add(CFA_XSP16, literal(-6)))
          CFI (cfiCond54) ?RET_LOW load(1, XDATA, add(CFA_XSP16, literal(-5)))
          CFI (cfiCond54) ?RET_HIGH load(1, XDATA, add(CFA_XSP16, literal(-4)))
          CFI (cfiCond54) ?BRET_EXT load(1, XDATA, add(CFA_XSP16, literal(-3)))
          CFI (cfiCond54) DPL0 load(1, XDATA, add(CFA_XSP16, literal(-2)))
          CFI (cfiCond54) DPH0 load(1, XDATA, add(CFA_XSP16, literal(-1)))
          CFI (cfiCond54) CFA_SP SP+-2
          CFI (cfiCond54) CFA_XSP16 add(XSP16, 26)
          CFI Block cfiCond55 Using cfiCommon0
          CFI (cfiCond55) Function compactPage
          CFI (cfiCond55) Conditional ??CrossCallReturnLabel_16
          CFI (cfiCond55) R6 load(1, XDATA, add(CFA_XSP16, literal(-15)))
          CFI (cfiCond55) VB load(1, XDATA, add(CFA_XSP16, literal(-14)))
          CFI (cfiCond55) V0 load(1, XDATA, add(CFA_XSP16, literal(-13)))
          CFI (cfiCond55) V1 load(1, XDATA, add(CFA_XSP16, literal(-12)))
          CFI (cfiCond55) V2 load(1, XDATA, add(CFA_XSP16, literal(-11)))
          CFI (cfiCond55) V3 load(1, XDATA, add(CFA_XSP16, literal(-10)))
          CFI (cfiCond55) V4 load(1, XDATA, add(CFA_XSP16, literal(-9)))
          CFI (cfiCond55) V5 load(1, XDATA, add(CFA_XSP16, literal(-8)))
          CFI (cfiCond55) V6 load(1, XDATA, add(CFA_XSP16, literal(-7)))
          CFI (cfiCond55) R7 load(1, XDATA, add(CFA_XSP16, literal(-6)))
          CFI (cfiCond55) ?RET_LOW load(1, XDATA, add(CFA_XSP16, literal(-5)))
          CFI (cfiCond55) ?RET_HIGH load(1, XDATA, add(CFA_XSP16, literal(-4)))
          CFI (cfiCond55) ?BRET_EXT load(1, XDATA, add(CFA_XSP16, literal(-3)))
          CFI (cfiCond55) DPL0 load(1, XDATA, add(CFA_XSP16, literal(-2)))
          CFI (cfiCond55) DPH0 load(1, XDATA, add(CFA_XSP16, literal(-1)))
          CFI (cfiCond55) CFA_SP SP+-2
          CFI (cfiCond55) CFA_XSP16 add(XSP16, 26)
          CFI Block cfiCond56 Using cfiCommon0
          CFI (cfiCond56) Function osal_nv_write
          CFI (cfiCond56) Conditional ??CrossCallReturnLabel_17
          CFI (cfiCond56) R6 load(1, XDATA, add(CFA_XSP16, literal(-16)))
          CFI (cfiCond56) VB load(1, XDATA, add(CFA_XSP16, literal(-15)))
          CFI (cfiCond56) V0 load(1, XDATA, add(CFA_XSP16, literal(-14)))
          CFI (cfiCond56) V1 load(1, XDATA, add(CFA_XSP16, literal(-13)))
          CFI (cfiCond56) V2 load(1, XDATA, add(CFA_XSP16, literal(-12)))
          CFI (cfiCond56) V3 load(1, XDATA, add(CFA_XSP16, literal(-11)))
          CFI (cfiCond56) V4 load(1, XDATA, add(CFA_XSP16, literal(-10)))
          CFI (cfiCond56) V5 load(1, XDATA, add(CFA_XSP16, literal(-9)))
          CFI (cfiCond56) V6 load(1, XDATA, add(CFA_XSP16, literal(-8)))
          CFI (cfiCond56) V7 load(1, XDATA, add(CFA_XSP16, literal(-7)))
          CFI (cfiCond56) R7 load(1, XDATA, add(CFA_XSP16, literal(-6)))
          CFI (cfiCond56) ?RET_LOW load(1, XDATA, add(CFA_XSP16, literal(-5)))
          CFI (cfiCond56) ?RET_HIGH load(1, XDATA, add(CFA_XSP16, literal(-4)))
          CFI (cfiCond56) ?BRET_EXT load(1, XDATA, add(CFA_XSP16, literal(-3)))
          CFI (cfiCond56) DPL0 load(1, XDATA, add(CFA_XSP16, literal(-2)))
          CFI (cfiCond56) DPH0 load(1, XDATA, add(CFA_XSP16, literal(-1)))
          CFI (cfiCond56) CFA_SP SP+-2
          CFI (cfiCond56) CFA_XSP16 add(XSP16, 35)
          CFI Block cfiCond57 Using cfiCommon0
          CFI (cfiCond57) Function osal_nv_write
          CFI (cfiCond57) Conditional ??CrossCallReturnLabel_18
          CFI (cfiCond57) R6 load(1, XDATA, add(CFA_XSP16, literal(-16)))
          CFI (cfiCond57) VB load(1, XDATA, add(CFA_XSP16, literal(-15)))
          CFI (cfiCond57) V0 load(1, XDATA, add(CFA_XSP16, literal(-14)))
          CFI (cfiCond57) V1 load(1, XDATA, add(CFA_XSP16, literal(-13)))
          CFI (cfiCond57) V2 load(1, XDATA, add(CFA_XSP16, literal(-12)))
          CFI (cfiCond57) V3 load(1, XDATA, add(CFA_XSP16, literal(-11)))
          CFI (cfiCond57) V4 load(1, XDATA, add(CFA_XSP16, literal(-10)))
          CFI (cfiCond57) V5 load(1, XDATA, add(CFA_XSP16, literal(-9)))
          CFI (cfiCond57) V6 load(1, XDATA, add(CFA_XSP16, literal(-8)))
          CFI (cfiCond57) V7 load(1, XDATA, add(CFA_XSP16, literal(-7)))
          CFI (cfiCond57) R7 load(1, XDATA, add(CFA_XSP16, literal(-6)))
          CFI (cfiCond57) ?RET_LOW load(1, XDATA, add(CFA_XSP16, literal(-5)))
          CFI (cfiCond57) ?RET_HIGH load(1, XDATA, add(CFA_XSP16, literal(-4)))
          CFI (cfiCond57) ?BRET_EXT load(1, XDATA, add(CFA_XSP16, literal(-3)))
          CFI (cfiCond57) DPL0 load(1, XDATA, add(CFA_XSP16, literal(-2)))
          CFI (cfiCond57) DPH0 load(1, XDATA, add(CFA_XSP16, literal(-1)))
          CFI (cfiCond57) CFA_SP SP+-2
          CFI (cfiCond57) CFA_XSP16 add(XSP16, 35)
          CFI Block cfiPicker58 Using cfiCommon1
          CFI (cfiPicker58) NoFunction
          CFI (cfiPicker58) Picker
        MOVX      A,@DPTR
        MOV       R0,A
        INC       DPTR
        MOVX      A,@DPTR
        MOV       R1,A
        MOV       A,R0
        ORL       A,R1
        RET
          CFI EndBlock cfiCond52
          CFI EndBlock cfiCond53
          CFI EndBlock cfiCond54
          CFI EndBlock cfiCond55
          CFI EndBlock cfiCond56
          CFI EndBlock cfiCond57
          CFI EndBlock cfiPicker58

        RSEG BANKED_CODE:HUGECODE:NOROOT(0)
?Subroutine8:
          CFI Block cfiCond59 Using cfiCommon0
          CFI Function initPage
          CFI Conditional ??CrossCallReturnLabel_4
          CFI R6 load(1, XDATA, add(CFA_XSP16, literal(-16)))
          CFI VB load(1, XDATA, add(CFA_XSP16, literal(-15)))
          CFI V0 load(1, XDATA, add(CFA_XSP16, literal(-14)))
          CFI V1 load(1, XDATA, add(CFA_XSP16, literal(-13)))
          CFI V2 load(1, XDATA, add(CFA_XSP16, literal(-12)))
          CFI V3 load(1, XDATA, add(CFA_XSP16, literal(-11)))
          CFI V4 load(1, XDATA, add(CFA_XSP16, literal(-10)))
          CFI V5 load(1, XDATA, add(CFA_XSP16, literal(-9)))
          CFI V6 load(1, XDATA, add(CFA_XSP16, literal(-8)))
          CFI V7 load(1, XDATA, add(CFA_XSP16, literal(-7)))
          CFI R7 load(1, XDATA, add(CFA_XSP16, literal(-6)))
          CFI ?RET_LOW load(1, XDATA, add(CFA_XSP16, literal(-5)))
          CFI ?RET_HIGH load(1, XDATA, add(CFA_XSP16, literal(-4)))
          CFI ?BRET_EXT load(1, XDATA, add(CFA_XSP16, literal(-3)))
          CFI DPL0 load(1, XDATA, add(CFA_XSP16, literal(-2)))
          CFI DPH0 load(1, XDATA, add(CFA_XSP16, literal(-1)))
          CFI CFA_SP SP+-2
          CFI CFA_XSP16 add(XSP16, 26)
          CFI Block cfiCond60 Using cfiCommon0
          CFI (cfiCond60) Function compactPage
          CFI (cfiCond60) Conditional ??CrossCallReturnLabel_5
          CFI (cfiCond60) R6 load(1, XDATA, add(CFA_XSP16, literal(-15)))
          CFI (cfiCond60) VB load(1, XDATA, add(CFA_XSP16, literal(-14)))
          CFI (cfiCond60) V0 load(1, XDATA, add(CFA_XSP16, literal(-13)))
          CFI (cfiCond60) V1 load(1, XDATA, add(CFA_XSP16, literal(-12)))
          CFI (cfiCond60) V2 load(1, XDATA, add(CFA_XSP16, literal(-11)))
          CFI (cfiCond60) V3 load(1, XDATA, add(CFA_XSP16, literal(-10)))
          CFI (cfiCond60) V4 load(1, XDATA, add(CFA_XSP16, literal(-9)))
          CFI (cfiCond60) V5 load(1, XDATA, add(CFA_XSP16, literal(-8)))
          CFI (cfiCond60) V6 load(1, XDATA, add(CFA_XSP16, literal(-7)))
          CFI (cfiCond60) R7 load(1, XDATA, add(CFA_XSP16, literal(-6)))
          CFI (cfiCond60) ?RET_LOW load(1, XDATA, add(CFA_XSP16, literal(-5)))
          CFI (cfiCond60) ?RET_HIGH load(1, XDATA, add(CFA_XSP16, literal(-4)))
          CFI (cfiCond60) ?BRET_EXT load(1, XDATA, add(CFA_XSP16, literal(-3)))
          CFI (cfiCond60) DPL0 load(1, XDATA, add(CFA_XSP16, literal(-2)))
          CFI (cfiCond60) DPH0 load(1, XDATA, add(CFA_XSP16, literal(-1)))
          CFI (cfiCond60) CFA_SP SP+-2
          CFI (cfiCond60) CFA_XSP16 add(XSP16, 26)
          CFI Block cfiCond61 Using cfiCommon0
          CFI (cfiCond61) Function writeItem
          CFI (cfiCond61) Conditional ??CrossCallReturnLabel_6
          CFI (cfiCond61) R6 load(1, XDATA, add(CFA_XSP16, literal(-16)))
          CFI (cfiCond61) VB load(1, XDATA, add(CFA_XSP16, literal(-15)))
          CFI (cfiCond61) V0 load(1, XDATA, add(CFA_XSP16, literal(-14)))
          CFI (cfiCond61) V1 load(1, XDATA, add(CFA_XSP16, literal(-13)))
          CFI (cfiCond61) V2 load(1, XDATA, add(CFA_XSP16, literal(-12)))
          CFI (cfiCond61) V3 load(1, XDATA, add(CFA_XSP16, literal(-11)))
          CFI (cfiCond61) V4 load(1, XDATA, add(CFA_XSP16, literal(-10)))
          CFI (cfiCond61) V5 load(1, XDATA, add(CFA_XSP16, literal(-9)))
          CFI (cfiCond61) V6 load(1, XDATA, add(CFA_XSP16, literal(-8)))
          CFI (cfiCond61) V7 load(1, XDATA, add(CFA_XSP16, literal(-7)))
          CFI (cfiCond61) R7 load(1, XDATA, add(CFA_XSP16, literal(-6)))
          CFI (cfiCond61) ?RET_LOW load(1, XDATA, add(CFA_XSP16, literal(-5)))
          CFI (cfiCond61) ?RET_HIGH load(1, XDATA, add(CFA_XSP16, literal(-4)))
          CFI (cfiCond61) ?BRET_EXT load(1, XDATA, add(CFA_XSP16, literal(-3)))
          CFI (cfiCond61) DPL0 load(1, XDATA, add(CFA_XSP16, literal(-2)))
          CFI (cfiCond61) DPH0 load(1, XDATA, add(CFA_XSP16, literal(-1)))
          CFI (cfiCond61) CFA_SP SP+-2
          CFI (cfiCond61) CFA_XSP16 add(XSP16, 28)
          CFI Block cfiPicker62 Using cfiCommon1
          CFI (cfiPicker62) NoFunction
          CFI (cfiPicker62) Picker
        MOV       A,R2
        MOVX      @DPTR,A
        INC       DPTR
        MOV       A,R3
        MOVX      @DPTR,A
        MOV       ?V6,R1
        RET
          CFI EndBlock cfiCond59
          CFI EndBlock cfiCond60
          CFI EndBlock cfiCond61
          CFI EndBlock cfiPicker62
//  635 
//  636 /*********************************************************************
//  637  * @fn      findItem
//  638  *
//  639  * @brief   Find an item Id in NV and return the page and offset to its data.
//  640  *
//  641  * @param   id - Valid NV item Id.
//  642  *
//  643  * @return  Offset of data corresponding to item Id, if found;
//  644  *          otherwise OSAL_NV_ITEM_NULL.
//  645  *
//  646  *          The page containing the item, if found;
//  647  *          otherwise no valid assignment made - left equal to item Id.
//  648  *
//  649  */

        RSEG BANKED_CODE:HUGECODE:NOROOT(0)
//  650 static uint16 findItem( uint16 id )
findItem:
          CFI Block cfiBlock63 Using cfiCommon0
          CFI Function findItem
        CODE
//  651 {
        FUNCALL findItem, initPage
        LOCFRAME ISTACK, 0, STACK
        LOCFRAME PSTACK, 0, STACK
        LOCFRAME XSTACK, 12, STACK
        LOCFRAME IOVERLAY, 0, STATIC
        LOCFRAME DOVERLAY, 0, STATIC
        ARGFRAME ISTACK, 0, STACK
        ARGFRAME PSTACK, 0, STACK
        ARGFRAME XSTACK, 12, STACK
        ARGFRAME IOVERLAY, 0, STATIC
        ARGFRAME DOVERLAY, 0, STATIC
        REQUIRE ?V0
        REQUIRE ?V2
        REQUIRE ?V3
        MOV       A,#-0xc
        LCALL     ?BANKED_ENTER_XDATA
          CFI DPH0 load(1, XDATA, add(CFA_XSP16, literal(-1)))
          CFI DPL0 load(1, XDATA, add(CFA_XSP16, literal(-2)))
          CFI ?BRET_EXT load(1, XDATA, add(CFA_XSP16, literal(-3)))
          CFI ?RET_HIGH load(1, XDATA, add(CFA_XSP16, literal(-4)))
          CFI ?RET_LOW load(1, XDATA, add(CFA_XSP16, literal(-5)))
          CFI R7 load(1, XDATA, add(CFA_XSP16, literal(-6)))
          CFI V3 load(1, XDATA, add(CFA_XSP16, literal(-7)))
          CFI V2 load(1, XDATA, add(CFA_XSP16, literal(-8)))
          CFI V1 load(1, XDATA, add(CFA_XSP16, literal(-9)))
          CFI V0 load(1, XDATA, add(CFA_XSP16, literal(-10)))
          CFI VB load(1, XDATA, add(CFA_XSP16, literal(-11)))
          CFI R6 load(1, XDATA, add(CFA_XSP16, literal(-12)))
          CFI CFA_SP SP+0
          CFI CFA_XSP16 add(XSP16, 12)
        ; Saved register size: 12
        ; Auto size: 0
        MOV       A,R2
        MOV       R6,A
        MOV       A,R3
        SJMP      ??findItem_0
//  652   uint16 off;
//  653   uint8 pg;
//  654 
//  655   for ( pg = OSAL_NV_PAGE_BEG; pg <= OSAL_NV_PAGE_END; pg++ )
//  656   {
//  657     if ( (off = initPage( pg, id, FALSE )) != OSAL_NV_ITEM_NULL )
//  658     {
//  659       findPg = pg;
//  660       return off;
//  661     }
//  662   }
//  663 
//  664   // Now attempt to find the item as the "old" item of a failed/interrupted NV write.
//  665   if ( (id & OSAL_NV_SOURCE_ID) == 0 )
//  666   {
//  667     return findItem( id | OSAL_NV_SOURCE_ID );
??findItem_1:
        MOV       A,#-0x80
        ORL       A,R7
??findItem_0:
        MOV       R7,A
//  668   }
        MOV       ?V0,#0x79
??findItem_2:
        ; Setup parameters for call to function initPage
        MOV       R4,#0x0
        MOV       A,R6
        MOV       R2,A
        MOV       A,R7
        MOV       R3,A
        MOV       R1,?V0
        LCALL     `??initPage::?relay`; Banked call to: initPage
        MOV       A,R2
        ORL       A,R3
        JZ        ??findItem_3
        MOV       A,?V0
        MOV       DPTR,#findPg
        MOVX      @DPTR,A
        SJMP      ??findItem_4
??findItem_3:
        INC       ?V0
        MOV       A,?V0
        CLR       C
        SUBB      A,#0x7f
        JC        ??findItem_2
        MOV       A,R7
        ANL       A,#0x80
        JZ        ??findItem_1
//  669   else
//  670   {
//  671     findPg = OSAL_NV_PAGE_NULL;
        MOV       DPTR,#findPg
        CLR       A
        MOVX      @DPTR,A
//  672     return OSAL_NV_ITEM_NULL;
        MOV       R2,A
        MOV       R3,A
//  673   }
??findItem_4:
        LJMP      ??Subroutine50_0 & 0xFFFF
//  674 }
          CFI EndBlock cfiBlock63
//  675 
//  676 /*********************************************************************
//  677  * @fn      initItem
//  678  *
//  679  * @brief   An NV item is created and initialized with the data passed to the function, if any.
//  680  *
//  681  * @param   flag - TRUE if the 'buf' parameter contains data for the call to writeItem().
//  682  *                 (i.e. if invoked from osal_nv_item_init() ).
//  683  *                 FALSE if writeItem() should just write the header and the 'buf' parameter
//  684  *                 is ok to use as a return value of the page number to be cleaned with
//  685  *                 COMPACT_PAGE_CLEANUP().
//  686  *                 (i.e. if invoked from osal_nv_write() ).
//  687  * @param   id  - Valid NV item Id.
//  688  * @param   len - Item data length.
//  689  * @param  *buf - Pointer to item initalization data. Set to NULL if none.
//  690  *
//  691  * @return  The OSAL Nv page number if item write and read back checksums ok; 
//  692  *          OSAL_NV_PAGE_NULL otherwise.
//  693  */

        RSEG BANKED_CODE:HUGECODE:NOROOT(0)
//  694 static uint8 initItem( uint8 flag, uint16 id, uint16 len, void *buf )
initItem:
          CFI Block cfiBlock64 Using cfiCommon0
          CFI Function initItem
        CODE
//  695 {
        FUNCALL initItem, HalFlashRead
        LOCFRAME ISTACK, 0, STACK
        LOCFRAME PSTACK, 0, STACK
        LOCFRAME XSTACK, 28, STACK
        LOCFRAME IOVERLAY, 0, STATIC
        LOCFRAME DOVERLAY, 0, STATIC
        ARGFRAME ISTACK, 0, STACK
        ARGFRAME PSTACK, 0, STACK
        ARGFRAME XSTACK, 28, STACK
        ARGFRAME IOVERLAY, 0, STATIC
        ARGFRAME DOVERLAY, 0, STATIC
        FUNCALL initItem, writeWordH
        LOCFRAME ISTACK, 0, STACK
        LOCFRAME PSTACK, 0, STACK
        LOCFRAME XSTACK, 26, STACK
        LOCFRAME IOVERLAY, 0, STATIC
        LOCFRAME DOVERLAY, 0, STATIC
        ARGFRAME ISTACK, 0, STACK
        ARGFRAME PSTACK, 0, STACK
        ARGFRAME XSTACK, 26, STACK
        ARGFRAME IOVERLAY, 0, STATIC
        ARGFRAME DOVERLAY, 0, STATIC
        FUNCALL initItem, compactPage
        LOCFRAME ISTACK, 0, STACK
        LOCFRAME PSTACK, 0, STACK
        LOCFRAME XSTACK, 26, STACK
        LOCFRAME IOVERLAY, 0, STATIC
        LOCFRAME DOVERLAY, 0, STATIC
        ARGFRAME ISTACK, 0, STACK
        ARGFRAME PSTACK, 0, STACK
        ARGFRAME XSTACK, 26, STACK
        ARGFRAME IOVERLAY, 0, STATIC
        ARGFRAME DOVERLAY, 0, STATIC
        FUNCALL initItem, writeItem
        LOCFRAME ISTACK, 0, STACK
        LOCFRAME PSTACK, 0, STACK
        LOCFRAME XSTACK, 29, STACK
        LOCFRAME IOVERLAY, 0, STATIC
        LOCFRAME DOVERLAY, 0, STATIC
        ARGFRAME ISTACK, 0, STACK
        ARGFRAME PSTACK, 0, STACK
        ARGFRAME XSTACK, 29, STACK
        ARGFRAME IOVERLAY, 0, STATIC
        ARGFRAME DOVERLAY, 0, STATIC
        FUNCALL initItem, setPageUse
        LOCFRAME ISTACK, 0, STACK
        LOCFRAME PSTACK, 0, STACK
        LOCFRAME XSTACK, 26, STACK
        LOCFRAME IOVERLAY, 0, STATIC
        LOCFRAME DOVERLAY, 0, STATIC
        ARGFRAME ISTACK, 0, STACK
        ARGFRAME PSTACK, 0, STACK
        ARGFRAME XSTACK, 26, STACK
        ARGFRAME IOVERLAY, 0, STATIC
        ARGFRAME DOVERLAY, 0, STATIC
        FUNCALL initItem, erasePage
        LOCFRAME ISTACK, 0, STACK
        LOCFRAME PSTACK, 0, STACK
        LOCFRAME XSTACK, 26, STACK
        LOCFRAME IOVERLAY, 0, STATIC
        LOCFRAME DOVERLAY, 0, STATIC
        ARGFRAME ISTACK, 0, STACK
        ARGFRAME PSTACK, 0, STACK
        ARGFRAME XSTACK, 26, STACK
        ARGFRAME IOVERLAY, 0, STATIC
        ARGFRAME DOVERLAY, 0, STATIC
        FUNCALL initItem, writeItem
        LOCFRAME ISTACK, 0, STACK
        LOCFRAME PSTACK, 0, STACK
        LOCFRAME XSTACK, 29, STACK
        LOCFRAME IOVERLAY, 0, STATIC
        LOCFRAME DOVERLAY, 0, STATIC
        ARGFRAME ISTACK, 0, STACK
        ARGFRAME PSTACK, 0, STACK
        ARGFRAME XSTACK, 29, STACK
        ARGFRAME IOVERLAY, 0, STATIC
        ARGFRAME DOVERLAY, 0, STATIC
        REQUIRE ?V0
        REQUIRE ?V1
        REQUIRE ?V2
        REQUIRE ?V3
        REQUIRE ?V4
        REQUIRE ?V6
        REQUIRE ?V7
        MOV       A,#-0x10
        LCALL     ?BANKED_ENTER_XDATA
          CFI DPH0 load(1, XDATA, add(CFA_XSP16, literal(-1)))
          CFI DPL0 load(1, XDATA, add(CFA_XSP16, literal(-2)))
          CFI ?BRET_EXT load(1, XDATA, add(CFA_XSP16, literal(-3)))
          CFI ?RET_HIGH load(1, XDATA, add(CFA_XSP16, literal(-4)))
          CFI ?RET_LOW load(1, XDATA, add(CFA_XSP16, literal(-5)))
          CFI R7 load(1, XDATA, add(CFA_XSP16, literal(-6)))
          CFI V7 load(1, XDATA, add(CFA_XSP16, literal(-7)))
          CFI V6 load(1, XDATA, add(CFA_XSP16, literal(-8)))
          CFI V5 load(1, XDATA, add(CFA_XSP16, literal(-9)))
          CFI V4 load(1, XDATA, add(CFA_XSP16, literal(-10)))
          CFI V3 load(1, XDATA, add(CFA_XSP16, literal(-11)))
          CFI V2 load(1, XDATA, add(CFA_XSP16, literal(-12)))
          CFI V1 load(1, XDATA, add(CFA_XSP16, literal(-13)))
          CFI V0 load(1, XDATA, add(CFA_XSP16, literal(-14)))
          CFI VB load(1, XDATA, add(CFA_XSP16, literal(-15)))
          CFI R6 load(1, XDATA, add(CFA_XSP16, literal(-16)))
          CFI CFA_SP SP+0
          CFI CFA_XSP16 add(XSP16, 16)
        ; Saved register size: 16
        ; Auto size: 10
        MOV       A,#-0xa
        LCALL     ?ALLOC_XSTACK8
          CFI CFA_XSP16 add(XSP16, 26)
        MOV       ?V4,R1
        MOV       ?V6,R2
        MOV       ?V7,R3
        MOV       ?V0,R4
        MOV       ?V1,R5
//  696   uint16 sz = OSAL_NV_ITEM_SIZE( len );
        CLR       C
        MOV       A,R4
        SUBB      A,#-0xc
        MOV       A,R5
        SUBB      A,#-0x1
        JC        ??initItem_0
        MOV       DPL,?XSP + 0
        MOV       DPH,?XSP + 1
        MOV       A,#-0x4
        MOVX      @DPTR,A
        INC       DPTR
        MOV       A,#-0x1
        SJMP      ??initItem_1
??initItem_0:
        MOV       A,R4
        ADD       A,#0x3
        MOV       R0,A
        CLR       A
        ADDC      A,?V1
        MOV       R1,A
        MOV       A,R0
        ANL       A,#0xfc
        ADD       A,#0x8
        JNC       ??initItem_2
        INC       R1
??initItem_2:
        MOV       DPL,?XSP + 0
        MOV       DPH,?XSP + 1
        MOVX      @DPTR,A
        INC       DPTR
        MOV       A,R1
??initItem_1:
        MOVX      @DPTR,A
//  697   uint8 rtrn = OSAL_NV_PAGE_NULL;
        MOV       R7,#0x0
//  698   uint8 cnt = OSAL_NV_PAGES_USED;
        MOV       R4,#0x6
//  699   uint8 pg = pgRes+1;  // Set to 1 after the reserve page to even wear across all available pages.
        MOV       DPTR,#pgRes
        MOVX      A,@DPTR
        INC       A
        MOV       R6,A
//  700 
//  701   do {
//  702     if (pg >= OSAL_NV_PAGE_BEG+OSAL_NV_PAGES_USED)
??initItem_3:
        MOV       A,R6
        CLR       C
        SUBB      A,#0x7f
        JC        ??initItem_4
//  703     {
//  704       pg = OSAL_NV_PAGE_BEG;
        MOV       R6,#0x79
//  705     }
//  706     if ( pg != pgRes )
??initItem_4:
        MOV       DPTR,#pgRes
        MOVX      A,@DPTR
        XRL       A,R6
        JZ        ??initItem_5
//  707     {
//  708       uint8 idx = pg - OSAL_NV_PAGE_BEG;
        MOV       A,#-0x79
        ADD       A,R6
//  709       if ( sz <= (OSAL_NV_PAGE_SIZE - pgOff[idx] + pgLost[idx]) )
        ADD       A,0xE0 /* A   */
        MOV       R0,A
        CLR       A
        RLC       A
        MOV       R1,A
        MOV       A,#pgOff & 0xff
        ADD       A,R0
        MOV       DPL,A
        MOV       A,#(pgOff >> 8) & 0xff
        LCALL     ?Subroutine11 & 0xFFFF
//  710       {
//  711         break;
//  712       }
//  713     }
??CrossCallReturnLabel_156:
        CLR       A
        CLR       C
        SUBB      A,R2
        MOV       R2,A
        MOV       A,#0x8
        SUBB      A,R3
        MOV       R3,A
        MOV       A,#pgLost & 0xff
        ADD       A,R0
        MOV       DPL,A
        MOV       A,#(pgLost >> 8) & 0xff
        ADDC      A,R1
        MOV       DPH,A
        MOVX      A,@DPTR
        ADD       A,R2
        MOV       R2,A
        INC       DPTR
        MOVX      A,@DPTR
        ADDC      A,R3
        LCALL     ?Subroutine21 & 0xFFFF
??CrossCallReturnLabel_36:
        JNC       ??initItem_6
//  714     pg++;
??initItem_5:
        INC       R6
//  715   } while (--cnt);
        DEC       R4
        MOV       A,R4
        JNZ       ??initItem_3
        LJMP      ??initItem_7 & 0xFFFF
//  716 
//  717   if (cnt)
??initItem_6:
        MOV       A,R4
        JNZ       $+5
        LJMP      ??initItem_7 & 0xFFFF
//  718   {
//  719     // Item fits if an old page is compacted.
//  720     if ( sz > (OSAL_NV_PAGE_SIZE - pgOff[pg - OSAL_NV_PAGE_BEG]) )
        MOV       A,R6
        LCALL     ?Subroutine28 & 0xFFFF
??CrossCallReturnLabel_98:
        LCALL     ?Subroutine22 & 0xFFFF
??CrossCallReturnLabel_39:
        CLR       A
        CLR       C
        SUBB      A,R0
        MOV       R2,A
        MOV       A,#0x8
        SUBB      A,R1
        LCALL     ?Subroutine21 & 0xFFFF
??CrossCallReturnLabel_37:
        JC        $+5
        LJMP      ??initItem_8 & 0xFFFF
//  721     {
//  722       osalNvPgHdr_t pgHdr;
//  723 
//  724       /* Prevent excessive re-writes to page header caused by numerous, rapid, & successive
//  725        * OSAL_Nv interruptions caused by resets.
//  726        */
//  727       HalFlashRead(pg, OSAL_NV_PAGE_HDR_OFFSET, (uint8 *)(&pgHdr), OSAL_NV_PAGE_HDR_SIZE);
        ; Setup parameters for call to function HalFlashRead
        MOV       ?V2,#0x8
        MOV       ?V3,R7
        MOV       R0,#?V2
        LCALL     ?PUSH_XSTACK_I_TWO
          CFI CFA_XSP16 add(XSP16, 28)
        MOV       A,#0x4
        LCALL     ?XSTACK_DISP102_8
        MOV       R2,#0x0
        MOV       R3,#0x0
        MOV       A,R6
        LCALL     ??Subroutine57_0 & 0xFFFF
??CrossCallReturnLabel_123:
        LCALL     ?DEALLOC_XSTACK8
          CFI CFA_XSP16 add(XSP16, 26)
//  728       if ( pgHdr.xfer == OSAL_NV_ERASED_ID )
        MOV       A,#0x6
        LCALL     ?XSTACK_DISP0_8
        MOVX      A,@DPTR
        CPL       A
        JNZ       ??initItem_9
        INC       DPTR
        MOVX      A,@DPTR
        CPL       A
??initItem_9:
        JNZ       ??initItem_10
//  729       {
//  730         // Mark the old page as being in process of compaction.
//  731         sz = OSAL_NV_ZEROED_ID;
        LCALL     ?Subroutine6 & 0xFFFF
//  732         writeWordH( pg, OSAL_NV_PG_XFER, (uint8*)(&sz) );
//  733       }
??CrossCallReturnLabel_103:
        MOV       R2,#0x4
        MOV       R3,A
        MOV       A,R6
        MOV       R1,A
        LCALL     `??writeWordH::?relay`; Banked call to: writeWordH
//  734 
//  735       /* First the old page is compacted, then the new item will be the last one written to what
//  736        * had been the reserved page. 
//  737        */
//  738       if (compactPage( pg, id ))
??initItem_10:
        ; Setup parameters for call to function compactPage
        MOV       R2,?V6
        MOV       R3,?V7
        MOV       A,R6
        MOV       R1,A
        LCALL     `??compactPage::?relay`; Banked call to: compactPage
        MOV       A,R1
        JZ        ??initItem_7
//  739       {
//  740         if ( writeItem( pgRes, id, len, buf, flag ) )
        ; Setup parameters for call to function writeItem
        MOV       A,?V4
        MOV       ?V2,A
        MOV       R0,#?V2
        LCALL     ?PUSH_XSTACK_I_ONE
          CFI CFA_XSP16 add(XSP16, 27)
        MOV       A,#0x1b
        LCALL     ?XSTACK_DISP0_8
        LCALL     ?PUSH_XSTACK8_X_TWO
          CFI CFA_XSP16 add(XSP16, 29)
        MOV       R4,?V0
        MOV       R5,?V1
        MOV       R2,?V6
        MOV       R3,?V7
        MOV       DPTR,#pgRes
        MOVX      A,@DPTR
        MOV       R1,A
        LCALL     `??writeItem::?relay`; Banked call to: writeItem
        MOV       A,#0x3
        LCALL     ?DEALLOC_XSTACK8
          CFI CFA_XSP16 add(XSP16, 26)
        MOV       A,R1
        JZ        ??initItem_11
//  741         {
//  742           rtrn = pgRes;
        MOV       DPTR,#pgRes
        MOVX      A,@DPTR
        MOV       R7,A
//  743         }
//  744 
//  745         if ( flag == FALSE )
??initItem_11:
        MOV       A,?V4
        JNZ       ??initItem_12
//  746         {
//  747           /* Overload 'buf' as an OUT parameter to pass back to the calling function
//  748            * the old page to be cleaned up.
//  749            */
//  750           *(uint8 *)buf = pg;
        MOV       A,#0x1a
        LCALL     ?XSTACK_DISP0_8
        LCALL     ?Subroutine48 & 0xFFFF
//  751         }
??CrossCallReturnLabel_141:
        MOV       A,R6
        SJMP      ??initItem_13
//  752         else
//  753         {
//  754           /* Safe to do the compacted page cleanup even if writeItem() above failed because the
//  755            * item does not yet exist since this call with flag==TRUE is from osal_nv_item_init().
//  756            */
//  757           COMPACT_PAGE_CLEANUP( pg );
??initItem_12:
        ; Setup parameters for call to function setPageUse
        LCALL     ?Subroutine27 & 0xFFFF
??CrossCallReturnLabel_58:
        ; Setup parameters for call to function erasePage
        MOV       A,R6
        MOV       R1,A
        LCALL     `??erasePage::?relay`; Banked call to: erasePage
        MOV       A,R6
        MOV       DPTR,#pgRes
??initItem_13:
        MOVX      @DPTR,A
        SJMP      ??initItem_7
//  758         }
//  759       }
//  760     }
//  761     else
//  762     {
//  763       if ( writeItem( pg, id, len, buf, flag ) )
??initItem_8:
        ; Setup parameters for call to function writeItem
        MOV       A,?V4
        MOV       ?V2,A
        MOV       R0,#?V2
        LCALL     ?PUSH_XSTACK_I_ONE
          CFI CFA_XSP16 add(XSP16, 27)
        MOV       A,#0x1b
        LCALL     ?XSTACK_DISP0_8
        LCALL     ?PUSH_XSTACK8_X_TWO
          CFI CFA_XSP16 add(XSP16, 29)
        MOV       R4,?V0
        MOV       R2,?V6
        MOV       R3,?V7
        MOV       A,R6
        MOV       R1,A
        LCALL     `??writeItem::?relay`; Banked call to: writeItem
        MOV       A,#0x3
        LCALL     ?DEALLOC_XSTACK8
          CFI CFA_XSP16 add(XSP16, 26)
        MOV       A,R1
        JZ        ??initItem_7
//  764       {
//  765         rtrn = pg;
        MOV       A,R6
        MOV       R7,A
//  766       }
//  767     }
//  768   }
//  769 
//  770   return rtrn;
??initItem_7:
        MOV       A,R7
        MOV       R1,A
        LJMP      ?Subroutine2 & 0xFFFF
//  771 }
          CFI EndBlock cfiBlock64

        RSEG BANKED_CODE:HUGECODE:NOROOT(0)
?Subroutine27:
          CFI Block cfiCond65 Using cfiCommon0
          CFI Function compactPage
          CFI Conditional ??CrossCallReturnLabel_57
          CFI R6 load(1, XDATA, add(CFA_XSP16, literal(-15)))
          CFI VB load(1, XDATA, add(CFA_XSP16, literal(-14)))
          CFI V0 load(1, XDATA, add(CFA_XSP16, literal(-13)))
          CFI V1 load(1, XDATA, add(CFA_XSP16, literal(-12)))
          CFI V2 load(1, XDATA, add(CFA_XSP16, literal(-11)))
          CFI V3 load(1, XDATA, add(CFA_XSP16, literal(-10)))
          CFI V4 load(1, XDATA, add(CFA_XSP16, literal(-9)))
          CFI V5 load(1, XDATA, add(CFA_XSP16, literal(-8)))
          CFI V6 load(1, XDATA, add(CFA_XSP16, literal(-7)))
          CFI R7 load(1, XDATA, add(CFA_XSP16, literal(-6)))
          CFI ?RET_LOW load(1, XDATA, add(CFA_XSP16, literal(-5)))
          CFI ?RET_HIGH load(1, XDATA, add(CFA_XSP16, literal(-4)))
          CFI ?BRET_EXT load(1, XDATA, add(CFA_XSP16, literal(-3)))
          CFI DPL0 load(1, XDATA, add(CFA_XSP16, literal(-2)))
          CFI DPH0 load(1, XDATA, add(CFA_XSP16, literal(-1)))
          CFI CFA_SP SP+-2
          CFI CFA_XSP16 add(XSP16, 26)
          CFI Block cfiCond66 Using cfiCommon0
          CFI (cfiCond66) Function initItem
          CFI (cfiCond66) Conditional ??CrossCallReturnLabel_58
          CFI (cfiCond66) R6 load(1, XDATA, add(CFA_XSP16, literal(-16)))
          CFI (cfiCond66) VB load(1, XDATA, add(CFA_XSP16, literal(-15)))
          CFI (cfiCond66) V0 load(1, XDATA, add(CFA_XSP16, literal(-14)))
          CFI (cfiCond66) V1 load(1, XDATA, add(CFA_XSP16, literal(-13)))
          CFI (cfiCond66) V2 load(1, XDATA, add(CFA_XSP16, literal(-12)))
          CFI (cfiCond66) V3 load(1, XDATA, add(CFA_XSP16, literal(-11)))
          CFI (cfiCond66) V4 load(1, XDATA, add(CFA_XSP16, literal(-10)))
          CFI (cfiCond66) V5 load(1, XDATA, add(CFA_XSP16, literal(-9)))
          CFI (cfiCond66) V6 load(1, XDATA, add(CFA_XSP16, literal(-8)))
          CFI (cfiCond66) V7 load(1, XDATA, add(CFA_XSP16, literal(-7)))
          CFI (cfiCond66) R7 load(1, XDATA, add(CFA_XSP16, literal(-6)))
          CFI (cfiCond66) ?RET_LOW load(1, XDATA, add(CFA_XSP16, literal(-5)))
          CFI (cfiCond66) ?RET_HIGH load(1, XDATA, add(CFA_XSP16, literal(-4)))
          CFI (cfiCond66) ?BRET_EXT load(1, XDATA, add(CFA_XSP16, literal(-3)))
          CFI (cfiCond66) DPL0 load(1, XDATA, add(CFA_XSP16, literal(-2)))
          CFI (cfiCond66) DPH0 load(1, XDATA, add(CFA_XSP16, literal(-1)))
          CFI (cfiCond66) CFA_SP SP+-2
          CFI (cfiCond66) CFA_XSP16 add(XSP16, 26)
          CFI Block cfiCond67 Using cfiCommon0
          CFI (cfiCond67) Function osal_nv_write
          CFI (cfiCond67) Conditional ??CrossCallReturnLabel_59
          CFI (cfiCond67) R6 load(1, XDATA, add(CFA_XSP16, literal(-16)))
          CFI (cfiCond67) VB load(1, XDATA, add(CFA_XSP16, literal(-15)))
          CFI (cfiCond67) V0 load(1, XDATA, add(CFA_XSP16, literal(-14)))
          CFI (cfiCond67) V1 load(1, XDATA, add(CFA_XSP16, literal(-13)))
          CFI (cfiCond67) V2 load(1, XDATA, add(CFA_XSP16, literal(-12)))
          CFI (cfiCond67) V3 load(1, XDATA, add(CFA_XSP16, literal(-11)))
          CFI (cfiCond67) V4 load(1, XDATA, add(CFA_XSP16, literal(-10)))
          CFI (cfiCond67) V5 load(1, XDATA, add(CFA_XSP16, literal(-9)))
          CFI (cfiCond67) V6 load(1, XDATA, add(CFA_XSP16, literal(-8)))
          CFI (cfiCond67) V7 load(1, XDATA, add(CFA_XSP16, literal(-7)))
          CFI (cfiCond67) R7 load(1, XDATA, add(CFA_XSP16, literal(-6)))
          CFI (cfiCond67) ?RET_LOW load(1, XDATA, add(CFA_XSP16, literal(-5)))
          CFI (cfiCond67) ?RET_HIGH load(1, XDATA, add(CFA_XSP16, literal(-4)))
          CFI (cfiCond67) ?BRET_EXT load(1, XDATA, add(CFA_XSP16, literal(-3)))
          CFI (cfiCond67) DPL0 load(1, XDATA, add(CFA_XSP16, literal(-2)))
          CFI (cfiCond67) DPH0 load(1, XDATA, add(CFA_XSP16, literal(-1)))
          CFI (cfiCond67) CFA_SP SP+-2
          CFI (cfiCond67) CFA_XSP16 add(XSP16, 35)
          CFI Block cfiPicker68 Using cfiCommon1
          CFI (cfiPicker68) NoFunction
          CFI (cfiPicker68) Picker
        MOV       R2,#0x1
        MOV       DPTR,#pgRes
        MOVX      A,@DPTR
        MOV       R1,A
        LCALL     `??setPageUse::?relay`; Banked call to: setPageUse
        RET
          CFI EndBlock cfiCond65
          CFI EndBlock cfiCond66
          CFI EndBlock cfiCond67
          CFI EndBlock cfiPicker68

        RSEG BANKED_CODE:HUGECODE:NOROOT(0)
?Subroutine21:
          CFI Block cfiCond69 Using cfiCommon0
          CFI Function initItem
          CFI Conditional ??CrossCallReturnLabel_36
          CFI R6 load(1, XDATA, add(CFA_XSP16, literal(-16)))
          CFI VB load(1, XDATA, add(CFA_XSP16, literal(-15)))
          CFI V0 load(1, XDATA, add(CFA_XSP16, literal(-14)))
          CFI V1 load(1, XDATA, add(CFA_XSP16, literal(-13)))
          CFI V2 load(1, XDATA, add(CFA_XSP16, literal(-12)))
          CFI V3 load(1, XDATA, add(CFA_XSP16, literal(-11)))
          CFI V4 load(1, XDATA, add(CFA_XSP16, literal(-10)))
          CFI V5 load(1, XDATA, add(CFA_XSP16, literal(-9)))
          CFI V6 load(1, XDATA, add(CFA_XSP16, literal(-8)))
          CFI V7 load(1, XDATA, add(CFA_XSP16, literal(-7)))
          CFI R7 load(1, XDATA, add(CFA_XSP16, literal(-6)))
          CFI ?RET_LOW load(1, XDATA, add(CFA_XSP16, literal(-5)))
          CFI ?RET_HIGH load(1, XDATA, add(CFA_XSP16, literal(-4)))
          CFI ?BRET_EXT load(1, XDATA, add(CFA_XSP16, literal(-3)))
          CFI DPL0 load(1, XDATA, add(CFA_XSP16, literal(-2)))
          CFI DPH0 load(1, XDATA, add(CFA_XSP16, literal(-1)))
          CFI CFA_SP SP+-2
          CFI CFA_XSP16 add(XSP16, 26)
          CFI Block cfiCond70 Using cfiCommon0
          CFI (cfiCond70) Function initItem
          CFI (cfiCond70) Conditional ??CrossCallReturnLabel_37
          CFI (cfiCond70) R6 load(1, XDATA, add(CFA_XSP16, literal(-16)))
          CFI (cfiCond70) VB load(1, XDATA, add(CFA_XSP16, literal(-15)))
          CFI (cfiCond70) V0 load(1, XDATA, add(CFA_XSP16, literal(-14)))
          CFI (cfiCond70) V1 load(1, XDATA, add(CFA_XSP16, literal(-13)))
          CFI (cfiCond70) V2 load(1, XDATA, add(CFA_XSP16, literal(-12)))
          CFI (cfiCond70) V3 load(1, XDATA, add(CFA_XSP16, literal(-11)))
          CFI (cfiCond70) V4 load(1, XDATA, add(CFA_XSP16, literal(-10)))
          CFI (cfiCond70) V5 load(1, XDATA, add(CFA_XSP16, literal(-9)))
          CFI (cfiCond70) V6 load(1, XDATA, add(CFA_XSP16, literal(-8)))
          CFI (cfiCond70) V7 load(1, XDATA, add(CFA_XSP16, literal(-7)))
          CFI (cfiCond70) R7 load(1, XDATA, add(CFA_XSP16, literal(-6)))
          CFI (cfiCond70) ?RET_LOW load(1, XDATA, add(CFA_XSP16, literal(-5)))
          CFI (cfiCond70) ?RET_HIGH load(1, XDATA, add(CFA_XSP16, literal(-4)))
          CFI (cfiCond70) ?BRET_EXT load(1, XDATA, add(CFA_XSP16, literal(-3)))
          CFI (cfiCond70) DPL0 load(1, XDATA, add(CFA_XSP16, literal(-2)))
          CFI (cfiCond70) DPH0 load(1, XDATA, add(CFA_XSP16, literal(-1)))
          CFI (cfiCond70) CFA_SP SP+-2
          CFI (cfiCond70) CFA_XSP16 add(XSP16, 26)
          CFI Block cfiPicker71 Using cfiCommon1
          CFI (cfiPicker71) NoFunction
          CFI (cfiPicker71) Picker
        MOV       R3,A
        MOV       DPL,?XSP + 0
        MOV       DPH,?XSP + 1
        MOVX      A,@DPTR
        MOV       R0,A
        INC       DPTR
        MOVX      A,@DPTR
        MOV       R1,A
        CLR       C
        MOV       A,R2
        SUBB      A,R0
        MOV       A,R3
        SUBB      A,R1
        RET
          CFI EndBlock cfiCond69
          CFI EndBlock cfiCond70
          CFI EndBlock cfiPicker71

        RSEG BANKED_CODE:HUGECODE:NOROOT(0)
?Subroutine6:
          CFI Block cfiCond72 Using cfiCommon0
          CFI Function initItem
          CFI Conditional ??CrossCallReturnLabel_103
          CFI R6 load(1, XDATA, add(CFA_XSP16, literal(-16)))
          CFI VB load(1, XDATA, add(CFA_XSP16, literal(-15)))
          CFI V0 load(1, XDATA, add(CFA_XSP16, literal(-14)))
          CFI V1 load(1, XDATA, add(CFA_XSP16, literal(-13)))
          CFI V2 load(1, XDATA, add(CFA_XSP16, literal(-12)))
          CFI V3 load(1, XDATA, add(CFA_XSP16, literal(-11)))
          CFI V4 load(1, XDATA, add(CFA_XSP16, literal(-10)))
          CFI V5 load(1, XDATA, add(CFA_XSP16, literal(-9)))
          CFI V6 load(1, XDATA, add(CFA_XSP16, literal(-8)))
          CFI V7 load(1, XDATA, add(CFA_XSP16, literal(-7)))
          CFI R7 load(1, XDATA, add(CFA_XSP16, literal(-6)))
          CFI ?RET_LOW load(1, XDATA, add(CFA_XSP16, literal(-5)))
          CFI ?RET_HIGH load(1, XDATA, add(CFA_XSP16, literal(-4)))
          CFI ?BRET_EXT load(1, XDATA, add(CFA_XSP16, literal(-3)))
          CFI DPL0 load(1, XDATA, add(CFA_XSP16, literal(-2)))
          CFI DPH0 load(1, XDATA, add(CFA_XSP16, literal(-1)))
          CFI CFA_SP SP+-2
          CFI CFA_XSP16 add(XSP16, 26)
          CFI Block cfiCond73 Using cfiCommon0
          CFI (cfiCond73) Function setItem
          CFI (cfiCond73) Conditional ??CrossCallReturnLabel_104
          CFI (cfiCond73) R6 load(1, XDATA, add(CFA_XSP16, literal(-14)))
          CFI (cfiCond73) VB load(1, XDATA, add(CFA_XSP16, literal(-13)))
          CFI (cfiCond73) V0 load(1, XDATA, add(CFA_XSP16, literal(-12)))
          CFI (cfiCond73) V1 load(1, XDATA, add(CFA_XSP16, literal(-11)))
          CFI (cfiCond73) V2 load(1, XDATA, add(CFA_XSP16, literal(-10)))
          CFI (cfiCond73) V3 load(1, XDATA, add(CFA_XSP16, literal(-9)))
          CFI (cfiCond73) V4 load(1, XDATA, add(CFA_XSP16, literal(-8)))
          CFI (cfiCond73) V5 load(1, XDATA, add(CFA_XSP16, literal(-7)))
          CFI (cfiCond73) R7 load(1, XDATA, add(CFA_XSP16, literal(-6)))
          CFI (cfiCond73) ?RET_LOW load(1, XDATA, add(CFA_XSP16, literal(-5)))
          CFI (cfiCond73) ?RET_HIGH load(1, XDATA, add(CFA_XSP16, literal(-4)))
          CFI (cfiCond73) ?BRET_EXT load(1, XDATA, add(CFA_XSP16, literal(-3)))
          CFI (cfiCond73) DPL0 load(1, XDATA, add(CFA_XSP16, literal(-2)))
          CFI (cfiCond73) DPH0 load(1, XDATA, add(CFA_XSP16, literal(-1)))
          CFI (cfiCond73) CFA_SP SP+-2
          CFI (cfiCond73) CFA_XSP16 add(XSP16, 22)
          CFI Block cfiPicker74 Using cfiCommon1
          CFI (cfiPicker74) NoFunction
          CFI (cfiPicker74) Picker
        MOV       DPL,?XSP + 0
        MOV       DPH,?XSP + 1
        CLR       A
          CFI EndBlock cfiCond72
          CFI EndBlock cfiCond73
          CFI EndBlock cfiPicker74
        REQUIRE ??Subroutine54_0
        ; // Fall through to label ??Subroutine54_0

        RSEG BANKED_CODE:HUGECODE:NOROOT(0)
??Subroutine54_0:
          CFI Block cfiCond75 Using cfiCommon0
          CFI Function setPageUse
          CFI Conditional ??CrossCallReturnLabel_105
          CFI R6 load(1, XDATA, add(CFA_XSP16, literal(-9)))
          CFI VB load(1, XDATA, add(CFA_XSP16, literal(-8)))
          CFI V0 load(1, XDATA, add(CFA_XSP16, literal(-7)))
          CFI R7 load(1, XDATA, add(CFA_XSP16, literal(-6)))
          CFI ?RET_LOW load(1, XDATA, add(CFA_XSP16, literal(-5)))
          CFI ?RET_HIGH load(1, XDATA, add(CFA_XSP16, literal(-4)))
          CFI ?BRET_EXT load(1, XDATA, add(CFA_XSP16, literal(-3)))
          CFI DPL0 load(1, XDATA, add(CFA_XSP16, literal(-2)))
          CFI DPH0 load(1, XDATA, add(CFA_XSP16, literal(-1)))
          CFI CFA_SP SP+-2
          CFI CFA_XSP16 add(XSP16, 17)
          CFI Block cfiCond76 Using cfiCommon0
          CFI (cfiCond76) Function initItem
          CFI (cfiCond76) Conditional ??CrossCallReturnLabel_103
          CFI (cfiCond76) R6 load(1, XDATA, add(CFA_XSP16, literal(-16)))
          CFI (cfiCond76) VB load(1, XDATA, add(CFA_XSP16, literal(-15)))
          CFI (cfiCond76) V0 load(1, XDATA, add(CFA_XSP16, literal(-14)))
          CFI (cfiCond76) V1 load(1, XDATA, add(CFA_XSP16, literal(-13)))
          CFI (cfiCond76) V2 load(1, XDATA, add(CFA_XSP16, literal(-12)))
          CFI (cfiCond76) V3 load(1, XDATA, add(CFA_XSP16, literal(-11)))
          CFI (cfiCond76) V4 load(1, XDATA, add(CFA_XSP16, literal(-10)))
          CFI (cfiCond76) V5 load(1, XDATA, add(CFA_XSP16, literal(-9)))
          CFI (cfiCond76) V6 load(1, XDATA, add(CFA_XSP16, literal(-8)))
          CFI (cfiCond76) V7 load(1, XDATA, add(CFA_XSP16, literal(-7)))
          CFI (cfiCond76) R7 load(1, XDATA, add(CFA_XSP16, literal(-6)))
          CFI (cfiCond76) ?RET_LOW load(1, XDATA, add(CFA_XSP16, literal(-5)))
          CFI (cfiCond76) ?RET_HIGH load(1, XDATA, add(CFA_XSP16, literal(-4)))
          CFI (cfiCond76) ?BRET_EXT load(1, XDATA, add(CFA_XSP16, literal(-3)))
          CFI (cfiCond76) DPL0 load(1, XDATA, add(CFA_XSP16, literal(-2)))
          CFI (cfiCond76) DPH0 load(1, XDATA, add(CFA_XSP16, literal(-1)))
          CFI (cfiCond76) CFA_SP SP+-2
          CFI (cfiCond76) CFA_XSP16 add(XSP16, 26)
          CFI Block cfiCond77 Using cfiCommon0
          CFI (cfiCond77) Function setItem
          CFI (cfiCond77) Conditional ??CrossCallReturnLabel_104
          CFI (cfiCond77) R6 load(1, XDATA, add(CFA_XSP16, literal(-14)))
          CFI (cfiCond77) VB load(1, XDATA, add(CFA_XSP16, literal(-13)))
          CFI (cfiCond77) V0 load(1, XDATA, add(CFA_XSP16, literal(-12)))
          CFI (cfiCond77) V1 load(1, XDATA, add(CFA_XSP16, literal(-11)))
          CFI (cfiCond77) V2 load(1, XDATA, add(CFA_XSP16, literal(-10)))
          CFI (cfiCond77) V3 load(1, XDATA, add(CFA_XSP16, literal(-9)))
          CFI (cfiCond77) V4 load(1, XDATA, add(CFA_XSP16, literal(-8)))
          CFI (cfiCond77) V5 load(1, XDATA, add(CFA_XSP16, literal(-7)))
          CFI (cfiCond77) R7 load(1, XDATA, add(CFA_XSP16, literal(-6)))
          CFI (cfiCond77) ?RET_LOW load(1, XDATA, add(CFA_XSP16, literal(-5)))
          CFI (cfiCond77) ?RET_HIGH load(1, XDATA, add(CFA_XSP16, literal(-4)))
          CFI (cfiCond77) ?BRET_EXT load(1, XDATA, add(CFA_XSP16, literal(-3)))
          CFI (cfiCond77) DPL0 load(1, XDATA, add(CFA_XSP16, literal(-2)))
          CFI (cfiCond77) DPH0 load(1, XDATA, add(CFA_XSP16, literal(-1)))
          CFI (cfiCond77) CFA_SP SP+-2
          CFI (cfiCond77) CFA_XSP16 add(XSP16, 22)
          CFI Block cfiPicker78 Using cfiCommon1
          CFI (cfiPicker78) NoFunction
          CFI (cfiPicker78) Picker
        MOVX      @DPTR,A
        INC       DPTR
        MOVX      @DPTR,A
        ; Setup parameters for call to function writeWordH
        ; Setup parameters for call to function writeWord
        ; Setup parameters for call to function writeWord
        MOV       R4,?XSP + 0
        MOV       R5,?XSP + 1
        RET
          CFI EndBlock cfiCond75
          CFI EndBlock cfiCond76
          CFI EndBlock cfiCond77
          CFI EndBlock cfiPicker78
//  772 
//  773 /*********************************************************************
//  774  * @fn      setItem
//  775  *
//  776  * @brief   Set an item Id or status to mark its state.
//  777  *
//  778  * @param   pg - Valid NV page.
//  779  * @param   offset - Valid offset into the page of the item data - the header
//  780  *                   offset is calculated from this.
//  781  * @param   stat - Valid enum value for the item status.
//  782  *
//  783  * @return  none
//  784  */

        RSEG BANKED_CODE:HUGECODE:NOROOT(0)
//  785 static void setItem( uint8 pg, uint16 offset, eNvHdrEnum stat )
setItem:
          CFI Block cfiBlock79 Using cfiCommon0
          CFI Function setItem
        CODE
//  786 {
        FUNCALL setItem, HalFlashRead
        LOCFRAME ISTACK, 0, STACK
        LOCFRAME PSTACK, 0, STACK
        LOCFRAME XSTACK, 24, STACK
        LOCFRAME IOVERLAY, 0, STATIC
        LOCFRAME DOVERLAY, 0, STATIC
        ARGFRAME ISTACK, 0, STACK
        ARGFRAME PSTACK, 0, STACK
        ARGFRAME XSTACK, 24, STACK
        ARGFRAME IOVERLAY, 0, STATIC
        ARGFRAME DOVERLAY, 0, STATIC
        FUNCALL setItem, writeWord
        LOCFRAME ISTACK, 0, STACK
        LOCFRAME PSTACK, 0, STACK
        LOCFRAME XSTACK, 22, STACK
        LOCFRAME IOVERLAY, 0, STATIC
        LOCFRAME DOVERLAY, 0, STATIC
        ARGFRAME ISTACK, 0, STACK
        ARGFRAME PSTACK, 0, STACK
        ARGFRAME XSTACK, 22, STACK
        ARGFRAME IOVERLAY, 0, STATIC
        ARGFRAME DOVERLAY, 0, STATIC
        FUNCALL setItem, writeWord
        LOCFRAME ISTACK, 0, STACK
        LOCFRAME PSTACK, 0, STACK
        LOCFRAME XSTACK, 22, STACK
        LOCFRAME IOVERLAY, 0, STATIC
        LOCFRAME DOVERLAY, 0, STATIC
        ARGFRAME ISTACK, 0, STACK
        ARGFRAME PSTACK, 0, STACK
        ARGFRAME XSTACK, 22, STACK
        ARGFRAME IOVERLAY, 0, STATIC
        ARGFRAME DOVERLAY, 0, STATIC
        REQUIRE ?V0
        REQUIRE ?V1
        REQUIRE ?V2
        REQUIRE ?V3
        REQUIRE ?V4
        REQUIRE ?V5
        MOV       A,#-0xe
        LCALL     ?BANKED_ENTER_XDATA
          CFI DPH0 load(1, XDATA, add(CFA_XSP16, literal(-1)))
          CFI DPL0 load(1, XDATA, add(CFA_XSP16, literal(-2)))
          CFI ?BRET_EXT load(1, XDATA, add(CFA_XSP16, literal(-3)))
          CFI ?RET_HIGH load(1, XDATA, add(CFA_XSP16, literal(-4)))
          CFI ?RET_LOW load(1, XDATA, add(CFA_XSP16, literal(-5)))
          CFI R7 load(1, XDATA, add(CFA_XSP16, literal(-6)))
          CFI V5 load(1, XDATA, add(CFA_XSP16, literal(-7)))
          CFI V4 load(1, XDATA, add(CFA_XSP16, literal(-8)))
          CFI V3 load(1, XDATA, add(CFA_XSP16, literal(-9)))
          CFI V2 load(1, XDATA, add(CFA_XSP16, literal(-10)))
          CFI V1 load(1, XDATA, add(CFA_XSP16, literal(-11)))
          CFI V0 load(1, XDATA, add(CFA_XSP16, literal(-12)))
          CFI VB load(1, XDATA, add(CFA_XSP16, literal(-13)))
          CFI R6 load(1, XDATA, add(CFA_XSP16, literal(-14)))
          CFI CFA_SP SP+0
          CFI CFA_XSP16 add(XSP16, 14)
        ; Saved register size: 14
        ; Auto size: 8
        MOV       A,#-0x8
        LCALL     ?ALLOC_XSTACK8
          CFI CFA_XSP16 add(XSP16, 22)
        MOV       ?V2,R1
        MOV       ?V3,R4
//  787   osalNvHdr_t hdr;
//  788 
//  789   offset -= OSAL_NV_HDR_SIZE;
        MOV       A,R2
        ADD       A,#-0x8
        MOV       ?V0,A
        MOV       A,R3
        ADDC      A,#-0x1
        MOV       ?V1,A
//  790   HalFlashRead(pg, offset, (uint8 *)(&hdr), OSAL_NV_HDR_SIZE);
        ; Setup parameters for call to function HalFlashRead
        MOV       ?V4,#0x8
        MOV       ?V5,#0x0
        MOV       R0,#?V4
        LCALL     ?PUSH_XSTACK_I_TWO
          CFI CFA_XSP16 add(XSP16, 24)
        MOV       A,#0x2
        LCALL     ?XSTACK_DISP102_8
        MOV       R2,?V0
        MOV       R3,?V1
        LCALL     ??Subroutine58_0 & 0xFFFF
??CrossCallReturnLabel_126:
        LCALL     ?DEALLOC_XSTACK8
          CFI CFA_XSP16 add(XSP16, 22)
//  791 
//  792   if ( stat == eNvXfer )
        MOV       A,?V3
        JNZ       ??setItem_0
//  793   {
//  794     hdr.stat = OSAL_NV_ACTIVE;
        MOV       A,#0x6
        LCALL     ?XSTACK_DISP0_8
        CLR       A
        MOVX      @DPTR,A
        INC       DPTR
        MOVX      @DPTR,A
//  795     writeWord( pg, offset+OSAL_NV_HDR_CHK, (uint8*)(&(hdr.chk)) );
        ; Setup parameters for call to function writeWord
        MOV       A,#0x4
        LCALL     ?XSTACK_DISP0_8
        MOV       R4,DPL
        MOV       R5,DPH
        MOV       A,?V0
        ADD       A,#0x4
        MOV       R2,A
        CLR       A
        ADDC      A,?V1
        MOV       R3,A
        MOV       R1,?V2
        LCALL     `??writeWord::?relay`; Banked call to: writeWord
        SJMP      ??CrossCallReturnLabel_107
//  796   }
//  797   else // if ( stat == eNvZero )
//  798   {
//  799     uint16 sz = ((hdr.len + (OSAL_NV_WORD_SIZE-1)) / OSAL_NV_WORD_SIZE) * OSAL_NV_WORD_SIZE +
//  800                                                                           OSAL_NV_HDR_SIZE;
??setItem_0:
        MOV       A,#0x2
        LCALL     ?XSTACK_DISP0_8
        MOVX      A,@DPTR
        ADD       A,#0x3
        MOV       R0,A
        INC       DPTR
        MOVX      A,@DPTR
        ADDC      A,#0x0
        MOV       R1,A
        MOV       A,R0
        LCALL     ?Subroutine33 & 0xFFFF
//  801     hdr.id = 0;
??CrossCallReturnLabel_66:
        LCALL     ?Subroutine6 & 0xFFFF
//  802     writeWord( pg, offset, (uint8 *)(&hdr) );
??CrossCallReturnLabel_104:
        MOV       R2,?V0
        MOV       R3,?V1
        MOV       R1,?V2
        LCALL     `??writeWord::?relay`; Banked call to: writeWord
//  803     pgLost[pg-OSAL_NV_PAGE_BEG] += sz;
        MOV       R0,?V2
        MOV       A,R0
        ADD       A,R0
        MOV       R0,A
        CLR       A
        RLC       A
        MOV       R1,A
        MOV       A,#(pgLost + 14) & 0xff
        ADD       A,R0
        MOV       DPL,A
        MOV       A,#((pgLost - 242) >> 8) & 0xff
        ADDC      A,R1
        LCALL     ?Subroutine36 & 0xFFFF
//  804   }
//  805 }
??CrossCallReturnLabel_107:
        MOV       A,#0x8
        LCALL     ?DEALLOC_XSTACK8
          CFI CFA_XSP16 add(XSP16, 14)
        MOV       R7,#0x6
        LJMP      ?BANKED_LEAVE_XDATA
          CFI EndBlock cfiBlock79

        RSEG BANKED_CODE:HUGECODE:NOROOT(0)
?Subroutine36:
          CFI Block cfiCond80 Using cfiCommon0
          CFI Function setItem
          CFI Conditional ??CrossCallReturnLabel_107
          CFI R6 load(1, XDATA, add(CFA_XSP16, literal(-14)))
          CFI VB load(1, XDATA, add(CFA_XSP16, literal(-13)))
          CFI V0 load(1, XDATA, add(CFA_XSP16, literal(-12)))
          CFI V1 load(1, XDATA, add(CFA_XSP16, literal(-11)))
          CFI V2 load(1, XDATA, add(CFA_XSP16, literal(-10)))
          CFI V3 load(1, XDATA, add(CFA_XSP16, literal(-9)))
          CFI V4 load(1, XDATA, add(CFA_XSP16, literal(-8)))
          CFI V5 load(1, XDATA, add(CFA_XSP16, literal(-7)))
          CFI R7 load(1, XDATA, add(CFA_XSP16, literal(-6)))
          CFI ?RET_LOW load(1, XDATA, add(CFA_XSP16, literal(-5)))
          CFI ?RET_HIGH load(1, XDATA, add(CFA_XSP16, literal(-4)))
          CFI ?BRET_EXT load(1, XDATA, add(CFA_XSP16, literal(-3)))
          CFI DPL0 load(1, XDATA, add(CFA_XSP16, literal(-2)))
          CFI DPH0 load(1, XDATA, add(CFA_XSP16, literal(-1)))
          CFI CFA_SP SP+-2
          CFI CFA_XSP16 add(XSP16, 22)
          CFI Block cfiCond81 Using cfiCommon0
          CFI (cfiCond81) Function writeItem
          CFI (cfiCond81) Conditional ??CrossCallReturnLabel_108
          CFI (cfiCond81) R6 load(1, XDATA, add(CFA_XSP16, literal(-16)))
          CFI (cfiCond81) VB load(1, XDATA, add(CFA_XSP16, literal(-15)))
          CFI (cfiCond81) V0 load(1, XDATA, add(CFA_XSP16, literal(-14)))
          CFI (cfiCond81) V1 load(1, XDATA, add(CFA_XSP16, literal(-13)))
          CFI (cfiCond81) V2 load(1, XDATA, add(CFA_XSP16, literal(-12)))
          CFI (cfiCond81) V3 load(1, XDATA, add(CFA_XSP16, literal(-11)))
          CFI (cfiCond81) V4 load(1, XDATA, add(CFA_XSP16, literal(-10)))
          CFI (cfiCond81) V5 load(1, XDATA, add(CFA_XSP16, literal(-9)))
          CFI (cfiCond81) V6 load(1, XDATA, add(CFA_XSP16, literal(-8)))
          CFI (cfiCond81) V7 load(1, XDATA, add(CFA_XSP16, literal(-7)))
          CFI (cfiCond81) R7 load(1, XDATA, add(CFA_XSP16, literal(-6)))
          CFI (cfiCond81) ?RET_LOW load(1, XDATA, add(CFA_XSP16, literal(-5)))
          CFI (cfiCond81) ?RET_HIGH load(1, XDATA, add(CFA_XSP16, literal(-4)))
          CFI (cfiCond81) ?BRET_EXT load(1, XDATA, add(CFA_XSP16, literal(-3)))
          CFI (cfiCond81) DPL0 load(1, XDATA, add(CFA_XSP16, literal(-2)))
          CFI (cfiCond81) DPH0 load(1, XDATA, add(CFA_XSP16, literal(-1)))
          CFI (cfiCond81) CFA_SP SP+-2
          CFI (cfiCond81) CFA_XSP16 add(XSP16, 28)
          CFI Block cfiPicker82 Using cfiCommon1
          CFI (cfiPicker82) NoFunction
          CFI (cfiPicker82) Picker
        MOV       DPH,A
        MOVX      A,@DPTR
          CFI EndBlock cfiCond80
          CFI EndBlock cfiCond81
          CFI EndBlock cfiPicker82
        REQUIRE ??Subroutine55_0
        ; // Fall through to label ??Subroutine55_0

        RSEG BANKED_CODE:HUGECODE:NOROOT(0)
??Subroutine55_0:
          CFI Block cfiCond83 Using cfiCommon0
          CFI Function writeItem
          CFI Conditional ??CrossCallReturnLabel_106
          CFI R6 load(1, XDATA, add(CFA_XSP16, literal(-16)))
          CFI VB load(1, XDATA, add(CFA_XSP16, literal(-15)))
          CFI V0 load(1, XDATA, add(CFA_XSP16, literal(-14)))
          CFI V1 load(1, XDATA, add(CFA_XSP16, literal(-13)))
          CFI V2 load(1, XDATA, add(CFA_XSP16, literal(-12)))
          CFI V3 load(1, XDATA, add(CFA_XSP16, literal(-11)))
          CFI V4 load(1, XDATA, add(CFA_XSP16, literal(-10)))
          CFI V5 load(1, XDATA, add(CFA_XSP16, literal(-9)))
          CFI V6 load(1, XDATA, add(CFA_XSP16, literal(-8)))
          CFI V7 load(1, XDATA, add(CFA_XSP16, literal(-7)))
          CFI R7 load(1, XDATA, add(CFA_XSP16, literal(-6)))
          CFI ?RET_LOW load(1, XDATA, add(CFA_XSP16, literal(-5)))
          CFI ?RET_HIGH load(1, XDATA, add(CFA_XSP16, literal(-4)))
          CFI ?BRET_EXT load(1, XDATA, add(CFA_XSP16, literal(-3)))
          CFI DPL0 load(1, XDATA, add(CFA_XSP16, literal(-2)))
          CFI DPH0 load(1, XDATA, add(CFA_XSP16, literal(-1)))
          CFI CFA_SP SP+-2
          CFI CFA_XSP16 add(XSP16, 28)
          CFI Block cfiCond84 Using cfiCommon0
          CFI (cfiCond84) Function setItem
          CFI (cfiCond84) Conditional ??CrossCallReturnLabel_107
          CFI (cfiCond84) R6 load(1, XDATA, add(CFA_XSP16, literal(-14)))
          CFI (cfiCond84) VB load(1, XDATA, add(CFA_XSP16, literal(-13)))
          CFI (cfiCond84) V0 load(1, XDATA, add(CFA_XSP16, literal(-12)))
          CFI (cfiCond84) V1 load(1, XDATA, add(CFA_XSP16, literal(-11)))
          CFI (cfiCond84) V2 load(1, XDATA, add(CFA_XSP16, literal(-10)))
          CFI (cfiCond84) V3 load(1, XDATA, add(CFA_XSP16, literal(-9)))
          CFI (cfiCond84) V4 load(1, XDATA, add(CFA_XSP16, literal(-8)))
          CFI (cfiCond84) V5 load(1, XDATA, add(CFA_XSP16, literal(-7)))
          CFI (cfiCond84) R7 load(1, XDATA, add(CFA_XSP16, literal(-6)))
          CFI (cfiCond84) ?RET_LOW load(1, XDATA, add(CFA_XSP16, literal(-5)))
          CFI (cfiCond84) ?RET_HIGH load(1, XDATA, add(CFA_XSP16, literal(-4)))
          CFI (cfiCond84) ?BRET_EXT load(1, XDATA, add(CFA_XSP16, literal(-3)))
          CFI (cfiCond84) DPL0 load(1, XDATA, add(CFA_XSP16, literal(-2)))
          CFI (cfiCond84) DPH0 load(1, XDATA, add(CFA_XSP16, literal(-1)))
          CFI (cfiCond84) CFA_SP SP+-2
          CFI (cfiCond84) CFA_XSP16 add(XSP16, 22)
          CFI Block cfiCond85 Using cfiCommon0
          CFI (cfiCond85) Function writeItem
          CFI (cfiCond85) Conditional ??CrossCallReturnLabel_108
          CFI (cfiCond85) R6 load(1, XDATA, add(CFA_XSP16, literal(-16)))
          CFI (cfiCond85) VB load(1, XDATA, add(CFA_XSP16, literal(-15)))
          CFI (cfiCond85) V0 load(1, XDATA, add(CFA_XSP16, literal(-14)))
          CFI (cfiCond85) V1 load(1, XDATA, add(CFA_XSP16, literal(-13)))
          CFI (cfiCond85) V2 load(1, XDATA, add(CFA_XSP16, literal(-12)))
          CFI (cfiCond85) V3 load(1, XDATA, add(CFA_XSP16, literal(-11)))
          CFI (cfiCond85) V4 load(1, XDATA, add(CFA_XSP16, literal(-10)))
          CFI (cfiCond85) V5 load(1, XDATA, add(CFA_XSP16, literal(-9)))
          CFI (cfiCond85) V6 load(1, XDATA, add(CFA_XSP16, literal(-8)))
          CFI (cfiCond85) V7 load(1, XDATA, add(CFA_XSP16, literal(-7)))
          CFI (cfiCond85) R7 load(1, XDATA, add(CFA_XSP16, literal(-6)))
          CFI (cfiCond85) ?RET_LOW load(1, XDATA, add(CFA_XSP16, literal(-5)))
          CFI (cfiCond85) ?RET_HIGH load(1, XDATA, add(CFA_XSP16, literal(-4)))
          CFI (cfiCond85) ?BRET_EXT load(1, XDATA, add(CFA_XSP16, literal(-3)))
          CFI (cfiCond85) DPL0 load(1, XDATA, add(CFA_XSP16, literal(-2)))
          CFI (cfiCond85) DPH0 load(1, XDATA, add(CFA_XSP16, literal(-1)))
          CFI (cfiCond85) CFA_SP SP+-2
          CFI (cfiCond85) CFA_XSP16 add(XSP16, 28)
          CFI Block cfiPicker86 Using cfiCommon1
          CFI (cfiPicker86) NoFunction
          CFI (cfiPicker86) Picker
        ADD       A,R6
        MOVX      @DPTR,A
        INC       DPTR
        MOVX      A,@DPTR
        ADDC      A,R7
        MOVX      @DPTR,A
        RET
          CFI EndBlock cfiCond83
          CFI EndBlock cfiCond84
          CFI EndBlock cfiCond85
          CFI EndBlock cfiPicker86
//  806 
//  807 /*********************************************************************
//  808  * @fn      setChk
//  809  *
//  810  * @brief   Set the item header checksum given the data buffer offset.
//  811  *
//  812  * @param   pg - Valid NV page.
//  813  * @param   offset - Valid offset into the page of the item data - the header
//  814  *                   offset is calculated from this.
//  815  * @param   chk - The checksum to set.
//  816  *
//  817  * @return  The checksum read back.
//  818  */

        RSEG BANKED_CODE:HUGECODE:NOROOT(0)
//  819 static uint16 setChk( uint8 pg, uint16 offset, uint16 chk )
setChk:
          CFI Block cfiBlock87 Using cfiCommon0
          CFI Function setChk
        CODE
//  820 {
        FUNCALL setChk, writeWordH
        LOCFRAME ISTACK, 0, STACK
        LOCFRAME PSTACK, 0, STACK
        LOCFRAME XSTACK, 14, STACK
        LOCFRAME IOVERLAY, 0, STATIC
        LOCFRAME DOVERLAY, 0, STATIC
        ARGFRAME ISTACK, 0, STACK
        ARGFRAME PSTACK, 0, STACK
        ARGFRAME XSTACK, 14, STACK
        ARGFRAME IOVERLAY, 0, STATIC
        ARGFRAME DOVERLAY, 0, STATIC
        FUNCALL setChk, HalFlashRead
        LOCFRAME ISTACK, 0, STACK
        LOCFRAME PSTACK, 0, STACK
        LOCFRAME XSTACK, 16, STACK
        LOCFRAME IOVERLAY, 0, STATIC
        LOCFRAME DOVERLAY, 0, STATIC
        ARGFRAME ISTACK, 0, STACK
        ARGFRAME PSTACK, 0, STACK
        ARGFRAME XSTACK, 16, STACK
        ARGFRAME IOVERLAY, 0, STATIC
        ARGFRAME DOVERLAY, 0, STATIC
        REQUIRE ?V0
        REQUIRE ?V2
        REQUIRE ?V3
        MOV       A,#-0xc
        LCALL     ?BANKED_ENTER_XDATA
          CFI DPH0 load(1, XDATA, add(CFA_XSP16, literal(-1)))
          CFI DPL0 load(1, XDATA, add(CFA_XSP16, literal(-2)))
          CFI ?BRET_EXT load(1, XDATA, add(CFA_XSP16, literal(-3)))
          CFI ?RET_HIGH load(1, XDATA, add(CFA_XSP16, literal(-4)))
          CFI ?RET_LOW load(1, XDATA, add(CFA_XSP16, literal(-5)))
          CFI R7 load(1, XDATA, add(CFA_XSP16, literal(-6)))
          CFI V3 load(1, XDATA, add(CFA_XSP16, literal(-7)))
          CFI V2 load(1, XDATA, add(CFA_XSP16, literal(-8)))
          CFI V1 load(1, XDATA, add(CFA_XSP16, literal(-9)))
          CFI V0 load(1, XDATA, add(CFA_XSP16, literal(-10)))
          CFI VB load(1, XDATA, add(CFA_XSP16, literal(-11)))
          CFI R6 load(1, XDATA, add(CFA_XSP16, literal(-12)))
          CFI CFA_SP SP+0
          CFI CFA_XSP16 add(XSP16, 12)
        ; Saved register size: 12
        ; Auto size: 2
        MOV       A,#-0x2
        LCALL     ?ALLOC_XSTACK8
          CFI CFA_XSP16 add(XSP16, 14)
        MOV       DPL,?XSP + 0
        MOV       DPH,?XSP + 1
        MOV       A,R4
        MOVX      @DPTR,A
        INC       DPTR
        MOV       A,R5
        MOVX      @DPTR,A
        MOV       ?V0,R1
//  821   offset -= OSAL_NV_WORD_SIZE;
        MOV       A,R2
        ADD       A,#-0x4
        MOV       R6,A
        MOV       A,R3
        ADDC      A,#-0x1
        MOV       R7,A
//  822   writeWordH( pg, offset, (uint8 *)&chk );
        ; Setup parameters for call to function writeWordH
        MOV       R4,?XSP + 0
        MOV       R5,?XSP + 1
        MOV       A,R6
        MOV       R2,A
        MOV       A,R7
        MOV       R3,A
        LCALL     `??writeWordH::?relay`; Banked call to: writeWordH
//  823   HalFlashRead( pg, offset, (uint8 *)(&chk), sizeof( chk ) );
        ; Setup parameters for call to function HalFlashRead
        MOV       ?V2,#0x2
        MOV       ?V3,#0x0
        MOV       R0,#?V2
        LCALL     ?PUSH_XSTACK_I_TWO
          CFI CFA_XSP16 add(XSP16, 16)
        MOV       A,#0x2
        LCALL     ?XSTACK_DISP102_8
        MOV       A,R6
        MOV       R2,A
        MOV       A,R7
        MOV       R3,A
        MOV       R1,?V0
        LCALL     ??Subroutine58_0 & 0xFFFF
??CrossCallReturnLabel_127:
        LCALL     ?DEALLOC_XSTACK8
          CFI CFA_XSP16 add(XSP16, 14)
//  824 
//  825   return chk;
        MOV       DPL,?XSP + 0
        MOV       DPH,?XSP + 1
        LCALL     ??Subroutine62_0 & 0xFFFF
??CrossCallReturnLabel_145:
        LJMP      ?Subroutine0 & 0xFFFF
//  826 }
          CFI EndBlock cfiBlock87
//  827 
//  828 /*********************************************************************
//  829  * @fn      calcChkB
//  830  *
//  831  * @brief   Calculates the data checksum over the 'buf' parameter.
//  832  *
//  833  * @param   len - Byte count of the data to be checksummed.
//  834  * @param   buf - Data buffer to be checksummed.
//  835  *
//  836  * @return  Calculated checksum of the data bytes.
//  837  */
//  838 static uint16 calcChkB( uint16 len, uint8 *buf )
//  839 {
//  840   uint8 fill = len % OSAL_NV_WORD_SIZE;
//  841   uint16 chk;
//  842 
//  843   if ( !buf )
//  844   {
//  845     chk = len * OSAL_NV_ERASED;
//  846   }
//  847   else
//  848   {
//  849     chk = 0;
//  850     while ( len-- )
//  851     {
//  852       chk += *buf++;
//  853     }
//  854   }
//  855 
//  856   // calcChkF() will calculate over OSAL_NV_WORD_SIZE alignment.
//  857   if ( fill )
//  858   {
//  859     chk += (OSAL_NV_WORD_SIZE - fill) * OSAL_NV_ERASED;
//  860   }
//  861 
//  862   return chk;
//  863 }
//  864 
//  865 /*********************************************************************
//  866  * @fn      calcChkF
//  867  *
//  868  * @brief   Calculates the data checksum by reading the data bytes from NV.
//  869  *
//  870  * @param   pg - A valid NV Flash page.
//  871  * @param   offset - A valid offset into the page.
//  872  * @param   len - Byte count of the data to be checksummed.
//  873  *
//  874  * @return  Calculated checksum of the data bytes.
//  875  */

        RSEG BANKED_CODE:HUGECODE:NOROOT(0)
//  876 static uint16 calcChkF( uint8 pg, uint16 offset, uint16 len )
calcChkF:
          CFI Block cfiBlock88 Using cfiCommon0
          CFI Function calcChkF
        CODE
//  877 {
        FUNCALL calcChkF, HalFlashRead
        LOCFRAME ISTACK, 0, STACK
        LOCFRAME PSTACK, 0, STACK
        LOCFRAME XSTACK, 21, STACK
        LOCFRAME IOVERLAY, 0, STATIC
        LOCFRAME DOVERLAY, 0, STATIC
        ARGFRAME ISTACK, 0, STACK
        ARGFRAME PSTACK, 0, STACK
        ARGFRAME XSTACK, 21, STACK
        ARGFRAME IOVERLAY, 0, STATIC
        ARGFRAME DOVERLAY, 0, STATIC
        REQUIRE ?V0
        REQUIRE ?V1
        REQUIRE ?V2
        REQUIRE ?V3
        REQUIRE ?V4
        REQUIRE ?V5
        REQUIRE ?V6
        MOV       A,#-0xf
        LCALL     ?BANKED_ENTER_XDATA
          CFI DPH0 load(1, XDATA, add(CFA_XSP16, literal(-1)))
          CFI DPL0 load(1, XDATA, add(CFA_XSP16, literal(-2)))
          CFI ?BRET_EXT load(1, XDATA, add(CFA_XSP16, literal(-3)))
          CFI ?RET_HIGH load(1, XDATA, add(CFA_XSP16, literal(-4)))
          CFI ?RET_LOW load(1, XDATA, add(CFA_XSP16, literal(-5)))
          CFI R7 load(1, XDATA, add(CFA_XSP16, literal(-6)))
          CFI V6 load(1, XDATA, add(CFA_XSP16, literal(-7)))
          CFI V5 load(1, XDATA, add(CFA_XSP16, literal(-8)))
          CFI V4 load(1, XDATA, add(CFA_XSP16, literal(-9)))
          CFI V3 load(1, XDATA, add(CFA_XSP16, literal(-10)))
          CFI V2 load(1, XDATA, add(CFA_XSP16, literal(-11)))
          CFI V1 load(1, XDATA, add(CFA_XSP16, literal(-12)))
          CFI V0 load(1, XDATA, add(CFA_XSP16, literal(-13)))
          CFI VB load(1, XDATA, add(CFA_XSP16, literal(-14)))
          CFI R6 load(1, XDATA, add(CFA_XSP16, literal(-15)))
          CFI CFA_SP SP+0
          CFI CFA_XSP16 add(XSP16, 15)
        ; Saved register size: 15
        ; Auto size: 4
        MOV       A,#-0x4
        LCALL     ?ALLOC_XSTACK8
          CFI CFA_XSP16 add(XSP16, 19)
        MOV       ?V6,R1
        MOV       ?V0,R2
        MOV       ?V1,R3
        MOV       A,R5
        MOV       R7,A
//  878   uint16 chk = 0;
        MOV       ?V2,#0x0
        MOV       ?V3,#0x0
//  879 
//  880   len = (len + (OSAL_NV_WORD_SIZE-1)) / OSAL_NV_WORD_SIZE;
        MOV       A,R4
        ADD       A,#0x3
        MOV       ?V4,A
        CLR       A
        ADDC      A,R7
        MOV       ?V5,A
        MOV       A,#0x2
        MOV       R0,#?V4
        LCALL     ?US_SHR
        MOV       R6,?V4
        MOV       R7,?V5
//  881 
//  882   while ( len-- )
??calcChkF_0:
        LCALL     ?Subroutine41 & 0xFFFF
??CrossCallReturnLabel_81:
        JZ        ??calcChkF_1
//  883   {
//  884     uint8 cnt, tmp[OSAL_NV_WORD_SIZE];
//  885 
//  886     HalFlashRead(pg, offset, tmp, OSAL_NV_WORD_SIZE);
        ; Setup parameters for call to function HalFlashRead
        MOV       ?V4,#0x4
        MOV       ?V5,#0x0
        MOV       R0,#?V4
        LCALL     ?PUSH_XSTACK_I_TWO
          CFI CFA_XSP16 add(XSP16, 21)
        MOV       A,#0x2
        LCALL     ?XSTACK_DISP102_8
        MOV       R2,?V0
        MOV       R3,?V1
        MOV       R1,?V6
        LCALL     ??Subroutine58_0 & 0xFFFF
??CrossCallReturnLabel_128:
        LCALL     ?DEALLOC_XSTACK8
          CFI CFA_XSP16 add(XSP16, 19)
//  887     offset += OSAL_NV_WORD_SIZE;
        LCALL     ?Subroutine47 & 0xFFFF
//  888 
//  889     for ( cnt = 0; cnt < OSAL_NV_WORD_SIZE; cnt++ )
??CrossCallReturnLabel_112:
        MOV       R0,#0x0
//  890     {
//  891       chk += tmp[cnt];
??calcChkF_2:
        MOV       A,R0
        MOV       R2,A
        MOV       DPL,?XSP + 0
        MOV       DPH,?XSP + 1
        MOV       A,DPL
        ADD       A,R2
        MOV       DPL,A
        CLR       A
        ADDC      A,DPH
        MOV       DPH,A
        MOVX      A,@DPTR
        MOV       R2,A
        MOV       A,?V2
        ADD       A,R2
        MOV       ?V2,A
        CLR       A
        ADDC      A,?V3
        MOV       ?V3,A
//  892     }
        INC       R0
        MOV       A,R0
        CLR       C
        SUBB      A,#0x4
        JNC       ??calcChkF_0
        SJMP      ??calcChkF_2
//  893   }
//  894 
//  895   return chk;
??calcChkF_1:
        MOV       R2,?V2
        MOV       R3,?V3
        MOV       A,#0x4
        LJMP      ?Subroutine3 & 0xFFFF
//  896 }
          CFI EndBlock cfiBlock88
//  897 
//  898 /*********************************************************************
//  899  * @fn      writeWord
//  900  *
//  901  * @brief   Writes a Flash-WORD to NV.
//  902  *
//  903  * @param   pg - A valid NV Flash page.
//  904  * @param   offset - A valid offset into the page.
//  905  * @param   buf - Pointer to source buffer.
//  906  *
//  907  * @return  none
//  908  */

        RSEG BANKED_CODE:HUGECODE:NOROOT(0)
//  909 static void writeWord( uint8 pg, uint16 offset, uint8 *buf )
writeWord:
          CFI Block cfiBlock89 Using cfiCommon0
          CFI Function writeWord
        CODE
//  910 {
        FUNCALL writeWord, HalFlashWrite
        LOCFRAME ISTACK, 0, STACK
        LOCFRAME PSTACK, 0, STACK
        LOCFRAME XSTACK, 14, STACK
        LOCFRAME IOVERLAY, 0, STATIC
        LOCFRAME DOVERLAY, 0, STATIC
        ARGFRAME ISTACK, 0, STACK
        ARGFRAME PSTACK, 0, STACK
        ARGFRAME XSTACK, 14, STACK
        ARGFRAME IOVERLAY, 0, STATIC
        ARGFRAME DOVERLAY, 0, STATIC
        REQUIRE ?V0
        REQUIRE ?V1
        REQUIRE ?V2
        REQUIRE ?V3
        MOV       A,#-0xc
        LCALL     ?BANKED_ENTER_XDATA
          CFI DPH0 load(1, XDATA, add(CFA_XSP16, literal(-1)))
          CFI DPL0 load(1, XDATA, add(CFA_XSP16, literal(-2)))
          CFI ?BRET_EXT load(1, XDATA, add(CFA_XSP16, literal(-3)))
          CFI ?RET_HIGH load(1, XDATA, add(CFA_XSP16, literal(-4)))
          CFI ?RET_LOW load(1, XDATA, add(CFA_XSP16, literal(-5)))
          CFI R7 load(1, XDATA, add(CFA_XSP16, literal(-6)))
          CFI V3 load(1, XDATA, add(CFA_XSP16, literal(-7)))
          CFI V2 load(1, XDATA, add(CFA_XSP16, literal(-8)))
          CFI V1 load(1, XDATA, add(CFA_XSP16, literal(-9)))
          CFI V0 load(1, XDATA, add(CFA_XSP16, literal(-10)))
          CFI VB load(1, XDATA, add(CFA_XSP16, literal(-11)))
          CFI R6 load(1, XDATA, add(CFA_XSP16, literal(-12)))
          CFI CFA_SP SP+0
          CFI CFA_XSP16 add(XSP16, 12)
        ; Saved register size: 12
        ; Auto size: 0
//  911   offset = (offset / HAL_FLASH_WORD_SIZE) +
//  912           ((uint16)pg * (HAL_FLASH_PAGE_SIZE / HAL_FLASH_WORD_SIZE));
//  913 
//  914   HalFlashWrite(offset, buf, 1);
        ; Setup parameters for call to function HalFlashWrite
        MOV       ?V0,#0x1
        MOV       ?V1,#0x0
        MOV       R0,#?V0
        LCALL     ?PUSH_XSTACK_I_TWO
          CFI CFA_XSP16 add(XSP16, 14)
        MOV       ?V0,R2
        MOV       ?V1,R3
        MOV       A,#0x2
        MOV       R0,#?V0
        LCALL     ?US_SHR
        MOV       A,R1
        MOV       ?V2,A
        MOV       ?V3,#0x0
        MOV       A,#0x9
        MOV       R0,#?V2
        LCALL     ?S_SHL
        MOV       A,?V0
        ADD       A,#0x0
        MOV       R2,A
        MOV       A,?V1
        ADDC      A,?V3
        MOV       R3,A
        LCALL     `??HalFlashWrite::?relay`; Banked call to: HalFlashWrite
        LJMP      ?Subroutine0 & 0xFFFF
//  915 }
          CFI EndBlock cfiBlock89
//  916 
//  917 /*********************************************************************
//  918  * @fn      writeWordM
//  919  *
//  920  * @brief   Writes multiple Flash-WORDs to NV.
//  921  *
//  922  * @param   pg - A valid NV Flash page.
//  923  * @param   offset - A valid offset into the page.
//  924  * @param   buf - Pointer to source buffer.
//  925  * @param   cnt - Number of 4-byte blocks to write.
//  926  *
//  927  * @return  none
//  928  */
//  929 static void writeWordM( uint8 pg, uint16 offset, uint8 *buf, uint16 cnt )
//  930 {
//  931   offset = (offset / HAL_FLASH_WORD_SIZE) +
//  932           ((uint16)pg * (HAL_FLASH_PAGE_SIZE / HAL_FLASH_WORD_SIZE));
//  933   HalFlashWrite(offset, buf, cnt);
//  934 }
//  935 
//  936 /*********************************************************************
//  937  * @fn      writeWordH
//  938  *
//  939  * @brief   Writes the 1st half of a Flash-WORD to NV (filling 2nd half with 0xffff).
//  940  *
//  941  * @param   pg - A valid NV Flash page.
//  942  * @param   offset - A valid offset into the page.
//  943  * @param   buf - Pointer to source buffer.
//  944  *
//  945  * @return  none
//  946  */

        RSEG BANKED_CODE:HUGECODE:NOROOT(0)
//  947 static void writeWordH( uint8 pg, uint16 offset, uint8 *buf )
writeWordH:
          CFI Block cfiBlock90 Using cfiCommon0
          CFI Function writeWordH
        CODE
//  948 {
        FUNCALL writeWordH, writeWord
        LOCFRAME ISTACK, 0, STACK
        LOCFRAME PSTACK, 0, STACK
        LOCFRAME XSTACK, 13, STACK
        LOCFRAME IOVERLAY, 0, STATIC
        LOCFRAME DOVERLAY, 0, STATIC
        ARGFRAME ISTACK, 0, STACK
        ARGFRAME PSTACK, 0, STACK
        ARGFRAME XSTACK, 13, STACK
        ARGFRAME IOVERLAY, 0, STATIC
        ARGFRAME DOVERLAY, 0, STATIC
        MOV       A,#-0x9
        LCALL     ?BANKED_ENTER_XDATA
          CFI DPH0 load(1, XDATA, add(CFA_XSP16, literal(-1)))
          CFI DPL0 load(1, XDATA, add(CFA_XSP16, literal(-2)))
          CFI ?BRET_EXT load(1, XDATA, add(CFA_XSP16, literal(-3)))
          CFI ?RET_HIGH load(1, XDATA, add(CFA_XSP16, literal(-4)))
          CFI ?RET_LOW load(1, XDATA, add(CFA_XSP16, literal(-5)))
          CFI R7 load(1, XDATA, add(CFA_XSP16, literal(-6)))
          CFI V0 load(1, XDATA, add(CFA_XSP16, literal(-7)))
          CFI VB load(1, XDATA, add(CFA_XSP16, literal(-8)))
          CFI R6 load(1, XDATA, add(CFA_XSP16, literal(-9)))
          CFI CFA_SP SP+0
          CFI CFA_XSP16 add(XSP16, 9)
        ; Saved register size: 9
        ; Auto size: 4
        MOV       A,#-0x4
        LCALL     ?ALLOC_XSTACK8
          CFI CFA_XSP16 add(XSP16, 13)
//  949   uint8 tmp[4];
//  950 
//  951   tmp[0] = buf[0];
        MOV       DPL,R4
        MOV       DPH,R5
        MOVX      A,@DPTR
        MOV       DPL,?XSP + 0
        MOV       DPH,?XSP + 1
        MOVX      @DPTR,A
//  952   tmp[1] = buf[1];
        MOV       DPL,R4
        MOV       DPH,R5
        INC       DPTR
        MOVX      A,@DPTR
        PUSH      A
          CFI CFA_SP SP+-1
        MOV       A,#0x1
        LCALL     ?XSTACK_DISP0_8
        POP       A
          CFI CFA_SP SP+0
        MOVX      @DPTR,A
//  953   tmp[2] = OSAL_NV_ERASED;
        MOV       A,#0x2
        LCALL     ?XSTACK_DISP0_8
        MOV       A,#-0x1
        MOVX      @DPTR,A
//  954   tmp[3] = OSAL_NV_ERASED;
        MOV       A,#0x3
        LCALL     ?XSTACK_DISP0_8
        MOV       A,#-0x1
        MOVX      @DPTR,A
//  955 
//  956   writeWord( pg, offset, tmp );
        ; Setup parameters for call to function writeWord
        MOV       R4,?XSP + 0
        MOV       R5,?XSP + 1
        LCALL     `??writeWord::?relay`; Banked call to: writeWord
//  957 }
        MOV       A,#0x4
        LJMP      ?Subroutine1 & 0xFFFF
          CFI EndBlock cfiBlock90
//  958 
//  959 /*********************************************************************
//  960  * @fn      writeBuf
//  961  *
//  962  * @brief   Writes a data buffer to NV.
//  963  *
//  964  * @param   dstPg - A valid NV Flash page.
//  965  * @param   offset - A valid offset into the page.
//  966  * @param   len  - Byte count of the data to write.
//  967  * @param   buf  - The data to write.
//  968  *
//  969  * @return  TRUE if data buf checksum matches read back checksum, else FALSE.
//  970  */

        RSEG BANKED_CODE:HUGECODE:NOROOT(0)
//  971 static void writeBuf( uint8 dstPg, uint16 dstOff, uint16 len, uint8 *buf )
writeBuf:
          CFI Block cfiBlock91 Using cfiCommon0
          CFI Function writeBuf
        CODE
//  972 {
        FUNCALL writeBuf, HalFlashRead
        LOCFRAME ISTACK, 0, STACK
        LOCFRAME PSTACK, 0, STACK
        LOCFRAME XSTACK, 22, STACK
        LOCFRAME IOVERLAY, 0, STATIC
        LOCFRAME DOVERLAY, 0, STATIC
        ARGFRAME ISTACK, 0, STACK
        ARGFRAME PSTACK, 0, STACK
        ARGFRAME XSTACK, 22, STACK
        ARGFRAME IOVERLAY, 0, STATIC
        ARGFRAME DOVERLAY, 0, STATIC
        FUNCALL writeBuf, writeWord
        LOCFRAME ISTACK, 0, STACK
        LOCFRAME PSTACK, 0, STACK
        LOCFRAME XSTACK, 20, STACK
        LOCFRAME IOVERLAY, 0, STATIC
        LOCFRAME DOVERLAY, 0, STATIC
        ARGFRAME ISTACK, 0, STACK
        ARGFRAME PSTACK, 0, STACK
        ARGFRAME XSTACK, 20, STACK
        ARGFRAME IOVERLAY, 0, STATIC
        ARGFRAME DOVERLAY, 0, STATIC
        FUNCALL writeBuf, HalFlashWrite
        LOCFRAME ISTACK, 0, STACK
        LOCFRAME PSTACK, 0, STACK
        LOCFRAME XSTACK, 22, STACK
        LOCFRAME IOVERLAY, 0, STATIC
        LOCFRAME DOVERLAY, 0, STATIC
        ARGFRAME ISTACK, 0, STACK
        ARGFRAME PSTACK, 0, STACK
        ARGFRAME XSTACK, 22, STACK
        ARGFRAME IOVERLAY, 0, STATIC
        ARGFRAME DOVERLAY, 0, STATIC
        FUNCALL writeBuf, HalFlashRead
        LOCFRAME ISTACK, 0, STACK
        LOCFRAME PSTACK, 0, STACK
        LOCFRAME XSTACK, 22, STACK
        LOCFRAME IOVERLAY, 0, STATIC
        LOCFRAME DOVERLAY, 0, STATIC
        ARGFRAME ISTACK, 0, STACK
        ARGFRAME PSTACK, 0, STACK
        ARGFRAME XSTACK, 22, STACK
        ARGFRAME IOVERLAY, 0, STATIC
        ARGFRAME DOVERLAY, 0, STATIC
        FUNCALL writeBuf, writeWord
        LOCFRAME ISTACK, 0, STACK
        LOCFRAME PSTACK, 0, STACK
        LOCFRAME XSTACK, 20, STACK
        LOCFRAME IOVERLAY, 0, STATIC
        LOCFRAME DOVERLAY, 0, STATIC
        ARGFRAME ISTACK, 0, STACK
        ARGFRAME PSTACK, 0, STACK
        ARGFRAME XSTACK, 20, STACK
        ARGFRAME IOVERLAY, 0, STATIC
        ARGFRAME DOVERLAY, 0, STATIC
        REQUIRE ?V0
        REQUIRE ?V1
        REQUIRE ?V2
        REQUIRE ?V3
        REQUIRE ?V4
        REQUIRE ?V5
        REQUIRE ?V6
        REQUIRE ?V7
        MOV       A,#-0x10
        LCALL     ?BANKED_ENTER_XDATA
          CFI DPH0 load(1, XDATA, add(CFA_XSP16, literal(-1)))
          CFI DPL0 load(1, XDATA, add(CFA_XSP16, literal(-2)))
          CFI ?BRET_EXT load(1, XDATA, add(CFA_XSP16, literal(-3)))
          CFI ?RET_HIGH load(1, XDATA, add(CFA_XSP16, literal(-4)))
          CFI ?RET_LOW load(1, XDATA, add(CFA_XSP16, literal(-5)))
          CFI R7 load(1, XDATA, add(CFA_XSP16, literal(-6)))
          CFI V7 load(1, XDATA, add(CFA_XSP16, literal(-7)))
          CFI V6 load(1, XDATA, add(CFA_XSP16, literal(-8)))
          CFI V5 load(1, XDATA, add(CFA_XSP16, literal(-9)))
          CFI V4 load(1, XDATA, add(CFA_XSP16, literal(-10)))
          CFI V3 load(1, XDATA, add(CFA_XSP16, literal(-11)))
          CFI V2 load(1, XDATA, add(CFA_XSP16, literal(-12)))
          CFI V1 load(1, XDATA, add(CFA_XSP16, literal(-13)))
          CFI V0 load(1, XDATA, add(CFA_XSP16, literal(-14)))
          CFI VB load(1, XDATA, add(CFA_XSP16, literal(-15)))
          CFI R6 load(1, XDATA, add(CFA_XSP16, literal(-16)))
          CFI CFA_SP SP+0
          CFI CFA_XSP16 add(XSP16, 16)
        ; Saved register size: 16
        ; Auto size: 4
        MOV       A,#-0x4
        LCALL     ?ALLOC_XSTACK8
          CFI CFA_XSP16 add(XSP16, 20)
        MOV       ?V7,R1
        MOV       ?V0,R2
        MOV       ?V1,R3
        MOV       A,R4
        MOV       R6,A
        MOV       A,R5
        MOV       R7,A
//  973   uint8 rem = dstOff % OSAL_NV_WORD_SIZE;
        MOV       A,R2
        ANL       A,#0x3
        MOV       ?V6,A
//  974   uint8 tmp[OSAL_NV_WORD_SIZE];
//  975 
//  976   if ( rem )
        JZ        ??CrossCallReturnLabel_111
//  977   {
//  978     dstOff = (dstOff / OSAL_NV_WORD_SIZE) * OSAL_NV_WORD_SIZE;
        MOV       A,#-0x4
        ANL       A,R2
        MOV       ?V0,A
//  979     HalFlashRead(dstPg, dstOff, tmp, OSAL_NV_WORD_SIZE);
        ; Setup parameters for call to function HalFlashRead
        MOV       ?V2,#0x4
        MOV       ?V3,#0x0
        MOV       R0,#?V2
        LCALL     ?PUSH_XSTACK_I_TWO
          CFI CFA_XSP16 add(XSP16, 22)
        MOV       A,#0x2
        LCALL     ?XSTACK_DISP102_8
        MOV       R2,?V0
        LCALL     ??Subroutine58_0 & 0xFFFF
??CrossCallReturnLabel_129:
        LCALL     ?DEALLOC_XSTACK8
          CFI CFA_XSP16 add(XSP16, 20)
??writeBuf_0:
        MOV       A,R6
        ORL       A,R7
        JZ        ??writeBuf_1
//  980 
//  981     while ( (rem < OSAL_NV_WORD_SIZE) && len )
//  982     {
//  983       tmp[rem++] = *buf++;
        MOV       A,#0x14
        LCALL     ?XSTACK_DISP0_8
        LCALL     ??Subroutine61_0 & 0xFFFF
??CrossCallReturnLabel_134:
        PUSH      A
          CFI CFA_SP SP+-1
        MOV       R0,?V6
        LCALL     ?Subroutine31 & 0xFFFF
??CrossCallReturnLabel_64:
        POP       A
          CFI CFA_SP SP+0
        MOVX      @DPTR,A
        MOV       A,#0x14
        LCALL     ?XSTACK_DISP0_8
        LCALL     ?Subroutine20 & 0xFFFF
??CrossCallReturnLabel_34:
        LCALL     ?XSTACK_DISP0_8
        LCALL     ?Subroutine9 & 0xFFFF
??CrossCallReturnLabel_7:
        INC       ?V6
//  984       len--;
        MOV       A,R6
        ADD       A,#-0x1
        DEC       R6
        MOV       A,R7
        ADDC      A,#-0x1
        MOV       R7,A
//  985     }
        MOV       A,?V6
        CLR       C
        SUBB      A,#0x4
        JC        ??writeBuf_0
//  986 
//  987     writeWord( dstPg, dstOff, tmp );
??writeBuf_1:
        ; Setup parameters for call to function writeWord
        MOV       R4,?XSP + 0
        MOV       R5,?XSP + 1
        MOV       R2,?V0
        MOV       R3,?V1
        MOV       R1,?V7
        LCALL     ??Subroutine56_0 & 0xFFFF
//  988     dstOff += OSAL_NV_WORD_SIZE;
//  989   }
//  990 
//  991   rem = len % OSAL_NV_WORD_SIZE;
??CrossCallReturnLabel_111:
        MOV       A,R6
        ANL       A,#0x3
        MOV       ?V6,A
//  992   len /= OSAL_NV_WORD_SIZE;
        MOV       ?V2,R6
        MOV       ?V3,R7
        MOV       A,#0x2
        MOV       R0,#?V2
        LCALL     ?US_SHR
        MOV       R6,?V2
        MOV       R7,?V3
//  993 
//  994   if ( len )
        MOV       A,R6
        ORL       A,R7
        JZ        ??CrossCallReturnLabel_8
//  995   {
//  996     writeWordM( dstPg, dstOff, buf, len );
        ; Setup parameters for call to function HalFlashWrite
        MOV       R0,#?V2
        LCALL     ?PUSH_XSTACK_I_TWO
          CFI CFA_XSP16 add(XSP16, 22)
        MOV       A,#0x16
        LCALL     ?XSTACK_DISP0_8
        LCALL     ?Subroutine25 & 0xFFFF
??CrossCallReturnLabel_51:
        MOV       ?V2,?V0
        MOV       ?V3,?V1
        MOV       A,#0x2
        MOV       R0,#?V2
        LCALL     ?US_SHR
        MOV       A,?V7
        MOV       ?V4,A
        MOV       ?V5,#0x0
        MOV       A,#0x9
        MOV       R0,#?V4
        LCALL     ?S_SHL
        MOV       A,?V2
        ADD       A,#0x0
        MOV       R2,A
        MOV       A,?V3
        ADDC      A,?V5
        MOV       R3,A
        LCALL     `??HalFlashWrite::?relay`; Banked call to: HalFlashWrite
        MOV       A,#0x2
        LCALL     ?DEALLOC_XSTACK8
          CFI CFA_XSP16 add(XSP16, 20)
//  997     dstOff += OSAL_NV_WORD_SIZE * len;
        MOV       ?V2,R6
        MOV       ?V3,R7
        MOV       A,#0x2
        MOV       R0,#?V2
        LCALL     ?S_SHL
        MOV       R0,?V2
        MOV       R1,?V3
        MOV       A,?V0
        ADD       A,R0
        MOV       ?V0,A
        MOV       A,?V1
        ADDC      A,R1
        MOV       ?V1,A
//  998     buf += OSAL_NV_WORD_SIZE * len;
        MOV       A,#0x14
        LCALL     ?XSTACK_DISP0_8
        MOVX      A,@DPTR
        ADD       A,R0
        MOV       R0,A
        INC       DPTR
        MOVX      A,@DPTR
        ADDC      A,R1
        MOV       R1,A
        MOV       A,#0x14
        LCALL     ?XSTACK_DISP0_8
        LCALL     ?Subroutine9 & 0xFFFF
//  999   }
// 1000 
// 1001   if ( rem )
??CrossCallReturnLabel_8:
        MOV       A,?V6
        JZ        ??writeBuf_2
// 1002   {
// 1003     uint8 idx = 0;
        MOV       R6,#0x0
// 1004     HalFlashRead(dstPg, dstOff, tmp, OSAL_NV_WORD_SIZE);
        ; Setup parameters for call to function HalFlashRead
        MOV       ?V2,#0x4
        MOV       ?V3,R6
        MOV       R0,#?V2
        LCALL     ?PUSH_XSTACK_I_TWO
          CFI CFA_XSP16 add(XSP16, 22)
        MOV       A,#0x2
        LCALL     ?XSTACK_DISP102_8
        MOV       R2,?V0
        MOV       R3,?V1
        MOV       R1,?V7
        LCALL     ??Subroutine58_0 & 0xFFFF
??CrossCallReturnLabel_130:
        LCALL     ?DEALLOC_XSTACK8
          CFI CFA_XSP16 add(XSP16, 20)
        SJMP      ??writeBuf_3
// 1005     while ( rem-- )
// 1006     {
// 1007       tmp[idx++] = *buf++;
??writeBuf_4:
        MOV       A,#0x14
        LCALL     ?XSTACK_DISP0_8
        LCALL     ??Subroutine61_0 & 0xFFFF
// 1008     }
??CrossCallReturnLabel_135:
        PUSH      A
          CFI CFA_SP SP+-1
        MOV       A,R6
        MOV       R0,A
        LCALL     ?Subroutine31 & 0xFFFF
??CrossCallReturnLabel_65:
        POP       A
          CFI CFA_SP SP+0
        MOVX      @DPTR,A
        MOV       A,#0x14
        LCALL     ?XSTACK_DISP0_8
        LCALL     ?Subroutine20 & 0xFFFF
??CrossCallReturnLabel_35:
        LCALL     ?XSTACK_DISP0_8
        LCALL     ?Subroutine9 & 0xFFFF
??CrossCallReturnLabel_9:
        INC       R6
??writeBuf_3:
        MOV       R7,?V6
        MOV       A,#-0x1
        ADD       A,R7
        MOV       ?V6,A
        INC       A
        JNZ       ??writeBuf_4
// 1009     writeWord( dstPg, dstOff, tmp );
        ; Setup parameters for call to function writeWord
        MOV       R4,?XSP + 0
        MOV       R5,?XSP + 1
        MOV       R2,?V0
        MOV       R3,?V1
        MOV       R1,?V7
        LCALL     `??writeWord::?relay`; Banked call to: writeWord
// 1010   }
// 1011 }
??writeBuf_2:
        MOV       A,#0x4
        LJMP      ??Subroutine59_0 & 0xFFFF
          CFI EndBlock cfiBlock91

        RSEG BANKED_CODE:HUGECODE:NOROOT(0)
?Subroutine31:
          CFI Block cfiCond92 Using cfiCommon0
          CFI Function writeBuf
          CFI Conditional ??CrossCallReturnLabel_64
          CFI R6 load(1, XDATA, add(CFA_XSP16, literal(-16)))
          CFI VB load(1, XDATA, add(CFA_XSP16, literal(-15)))
          CFI V0 load(1, XDATA, add(CFA_XSP16, literal(-14)))
          CFI V1 load(1, XDATA, add(CFA_XSP16, literal(-13)))
          CFI V2 load(1, XDATA, add(CFA_XSP16, literal(-12)))
          CFI V3 load(1, XDATA, add(CFA_XSP16, literal(-11)))
          CFI V4 load(1, XDATA, add(CFA_XSP16, literal(-10)))
          CFI V5 load(1, XDATA, add(CFA_XSP16, literal(-9)))
          CFI V6 load(1, XDATA, add(CFA_XSP16, literal(-8)))
          CFI V7 load(1, XDATA, add(CFA_XSP16, literal(-7)))
          CFI R7 load(1, XDATA, add(CFA_XSP16, literal(-6)))
          CFI ?RET_LOW load(1, XDATA, add(CFA_XSP16, literal(-5)))
          CFI ?RET_HIGH load(1, XDATA, add(CFA_XSP16, literal(-4)))
          CFI ?BRET_EXT load(1, XDATA, add(CFA_XSP16, literal(-3)))
          CFI DPL0 load(1, XDATA, add(CFA_XSP16, literal(-2)))
          CFI DPH0 load(1, XDATA, add(CFA_XSP16, literal(-1)))
          CFI CFA_XSP16 add(XSP16, 20)
          CFI Block cfiCond93 Using cfiCommon0
          CFI (cfiCond93) Function writeBuf
          CFI (cfiCond93) Conditional ??CrossCallReturnLabel_65
          CFI (cfiCond93) R6 load(1, XDATA, add(CFA_XSP16, literal(-16)))
          CFI (cfiCond93) VB load(1, XDATA, add(CFA_XSP16, literal(-15)))
          CFI (cfiCond93) V0 load(1, XDATA, add(CFA_XSP16, literal(-14)))
          CFI (cfiCond93) V1 load(1, XDATA, add(CFA_XSP16, literal(-13)))
          CFI (cfiCond93) V2 load(1, XDATA, add(CFA_XSP16, literal(-12)))
          CFI (cfiCond93) V3 load(1, XDATA, add(CFA_XSP16, literal(-11)))
          CFI (cfiCond93) V4 load(1, XDATA, add(CFA_XSP16, literal(-10)))
          CFI (cfiCond93) V5 load(1, XDATA, add(CFA_XSP16, literal(-9)))
          CFI (cfiCond93) V6 load(1, XDATA, add(CFA_XSP16, literal(-8)))
          CFI (cfiCond93) V7 load(1, XDATA, add(CFA_XSP16, literal(-7)))
          CFI (cfiCond93) R7 load(1, XDATA, add(CFA_XSP16, literal(-6)))
          CFI (cfiCond93) ?RET_LOW load(1, XDATA, add(CFA_XSP16, literal(-5)))
          CFI (cfiCond93) ?RET_HIGH load(1, XDATA, add(CFA_XSP16, literal(-4)))
          CFI (cfiCond93) ?BRET_EXT load(1, XDATA, add(CFA_XSP16, literal(-3)))
          CFI (cfiCond93) DPL0 load(1, XDATA, add(CFA_XSP16, literal(-2)))
          CFI (cfiCond93) DPH0 load(1, XDATA, add(CFA_XSP16, literal(-1)))
          CFI (cfiCond93) CFA_XSP16 add(XSP16, 20)
          CFI Block cfiPicker94 Using cfiCommon1
          CFI (cfiPicker94) NoFunction
          CFI (cfiPicker94) Picker
        MOV       DPL,?XSP + 0
        MOV       DPH,?XSP + 1
        MOV       A,DPL
        ADD       A,R0
        MOV       DPL,A
        CLR       A
        ADDC      A,DPH
        MOV       DPH,A
        RET
          CFI EndBlock cfiCond92
          CFI EndBlock cfiCond93
          CFI EndBlock cfiPicker94

        RSEG BANKED_CODE:HUGECODE:NOROOT(0)
?Subroutine20:
          CFI Block cfiCond95 Using cfiCommon0
          CFI Function writeBuf
          CFI Conditional ??CrossCallReturnLabel_34
          CFI R6 load(1, XDATA, add(CFA_XSP16, literal(-16)))
          CFI VB load(1, XDATA, add(CFA_XSP16, literal(-15)))
          CFI V0 load(1, XDATA, add(CFA_XSP16, literal(-14)))
          CFI V1 load(1, XDATA, add(CFA_XSP16, literal(-13)))
          CFI V2 load(1, XDATA, add(CFA_XSP16, literal(-12)))
          CFI V3 load(1, XDATA, add(CFA_XSP16, literal(-11)))
          CFI V4 load(1, XDATA, add(CFA_XSP16, literal(-10)))
          CFI V5 load(1, XDATA, add(CFA_XSP16, literal(-9)))
          CFI V6 load(1, XDATA, add(CFA_XSP16, literal(-8)))
          CFI V7 load(1, XDATA, add(CFA_XSP16, literal(-7)))
          CFI R7 load(1, XDATA, add(CFA_XSP16, literal(-6)))
          CFI ?RET_LOW load(1, XDATA, add(CFA_XSP16, literal(-5)))
          CFI ?RET_HIGH load(1, XDATA, add(CFA_XSP16, literal(-4)))
          CFI ?BRET_EXT load(1, XDATA, add(CFA_XSP16, literal(-3)))
          CFI DPL0 load(1, XDATA, add(CFA_XSP16, literal(-2)))
          CFI DPH0 load(1, XDATA, add(CFA_XSP16, literal(-1)))
          CFI CFA_SP SP+-2
          CFI CFA_XSP16 add(XSP16, 20)
          CFI Block cfiCond96 Using cfiCommon0
          CFI (cfiCond96) Function writeBuf
          CFI (cfiCond96) Conditional ??CrossCallReturnLabel_35
          CFI (cfiCond96) R6 load(1, XDATA, add(CFA_XSP16, literal(-16)))
          CFI (cfiCond96) VB load(1, XDATA, add(CFA_XSP16, literal(-15)))
          CFI (cfiCond96) V0 load(1, XDATA, add(CFA_XSP16, literal(-14)))
          CFI (cfiCond96) V1 load(1, XDATA, add(CFA_XSP16, literal(-13)))
          CFI (cfiCond96) V2 load(1, XDATA, add(CFA_XSP16, literal(-12)))
          CFI (cfiCond96) V3 load(1, XDATA, add(CFA_XSP16, literal(-11)))
          CFI (cfiCond96) V4 load(1, XDATA, add(CFA_XSP16, literal(-10)))
          CFI (cfiCond96) V5 load(1, XDATA, add(CFA_XSP16, literal(-9)))
          CFI (cfiCond96) V6 load(1, XDATA, add(CFA_XSP16, literal(-8)))
          CFI (cfiCond96) V7 load(1, XDATA, add(CFA_XSP16, literal(-7)))
          CFI (cfiCond96) R7 load(1, XDATA, add(CFA_XSP16, literal(-6)))
          CFI (cfiCond96) ?RET_LOW load(1, XDATA, add(CFA_XSP16, literal(-5)))
          CFI (cfiCond96) ?RET_HIGH load(1, XDATA, add(CFA_XSP16, literal(-4)))
          CFI (cfiCond96) ?BRET_EXT load(1, XDATA, add(CFA_XSP16, literal(-3)))
          CFI (cfiCond96) DPL0 load(1, XDATA, add(CFA_XSP16, literal(-2)))
          CFI (cfiCond96) DPH0 load(1, XDATA, add(CFA_XSP16, literal(-1)))
          CFI (cfiCond96) CFA_SP SP+-2
          CFI (cfiCond96) CFA_XSP16 add(XSP16, 20)
          CFI Block cfiPicker97 Using cfiCommon1
          CFI (cfiPicker97) NoFunction
          CFI (cfiPicker97) Picker
        MOVX      A,@DPTR
        ADD       A,#0x1
        MOV       R0,A
        INC       DPTR
        MOVX      A,@DPTR
        ADDC      A,#0x0
        MOV       R1,A
        MOV       A,#0x14
        RET
          CFI EndBlock cfiCond95
          CFI EndBlock cfiCond96
          CFI EndBlock cfiPicker97
// 1012 
// 1013 /*********************************************************************
// 1014  * @fn      xferBuf
// 1015  *
// 1016  * @brief   Xfers an NV buffer from one location to another, enforcing OSAL_NV_WORD_SIZE writes.
// 1017  *
// 1018  * @return  none
// 1019  */

        RSEG BANKED_CODE:HUGECODE:NOROOT(0)
// 1020 static void xferBuf( uint8 srcPg, uint16 srcOff, uint8 dstPg, uint16 dstOff, uint16 len )
xferBuf:
          CFI Block cfiBlock98 Using cfiCommon0
          CFI Function xferBuf
        CODE
// 1021 {
        FUNCALL xferBuf, HalFlashRead
        LOCFRAME ISTACK, 0, STACK
        LOCFRAME PSTACK, 0, STACK
        LOCFRAME XSTACK, 23, STACK
        LOCFRAME IOVERLAY, 0, STATIC
        LOCFRAME DOVERLAY, 0, STATIC
        ARGFRAME ISTACK, 0, STACK
        ARGFRAME PSTACK, 0, STACK
        ARGFRAME XSTACK, 23, STACK
        ARGFRAME IOVERLAY, 0, STATIC
        ARGFRAME DOVERLAY, 0, STATIC
        FUNCALL xferBuf, HalFlashRead
        LOCFRAME ISTACK, 0, STACK
        LOCFRAME PSTACK, 0, STACK
        LOCFRAME XSTACK, 23, STACK
        LOCFRAME IOVERLAY, 0, STATIC
        LOCFRAME DOVERLAY, 0, STATIC
        ARGFRAME ISTACK, 0, STACK
        ARGFRAME PSTACK, 0, STACK
        ARGFRAME XSTACK, 23, STACK
        ARGFRAME IOVERLAY, 0, STATIC
        ARGFRAME DOVERLAY, 0, STATIC
        FUNCALL xferBuf, writeWord
        LOCFRAME ISTACK, 0, STACK
        LOCFRAME PSTACK, 0, STACK
        LOCFRAME XSTACK, 21, STACK
        LOCFRAME IOVERLAY, 0, STATIC
        LOCFRAME DOVERLAY, 0, STATIC
        ARGFRAME ISTACK, 0, STACK
        ARGFRAME PSTACK, 0, STACK
        ARGFRAME XSTACK, 21, STACK
        ARGFRAME IOVERLAY, 0, STATIC
        ARGFRAME DOVERLAY, 0, STATIC
        FUNCALL xferBuf, HalFlashRead
        LOCFRAME ISTACK, 0, STACK
        LOCFRAME PSTACK, 0, STACK
        LOCFRAME XSTACK, 23, STACK
        LOCFRAME IOVERLAY, 0, STATIC
        LOCFRAME DOVERLAY, 0, STATIC
        ARGFRAME ISTACK, 0, STACK
        ARGFRAME PSTACK, 0, STACK
        ARGFRAME XSTACK, 23, STACK
        ARGFRAME IOVERLAY, 0, STATIC
        ARGFRAME DOVERLAY, 0, STATIC
        FUNCALL xferBuf, writeWord
        LOCFRAME ISTACK, 0, STACK
        LOCFRAME PSTACK, 0, STACK
        LOCFRAME XSTACK, 21, STACK
        LOCFRAME IOVERLAY, 0, STATIC
        LOCFRAME DOVERLAY, 0, STATIC
        ARGFRAME ISTACK, 0, STACK
        ARGFRAME PSTACK, 0, STACK
        ARGFRAME XSTACK, 21, STACK
        ARGFRAME IOVERLAY, 0, STATIC
        ARGFRAME DOVERLAY, 0, STATIC
        FUNCALL xferBuf, HalFlashRead
        LOCFRAME ISTACK, 0, STACK
        LOCFRAME PSTACK, 0, STACK
        LOCFRAME XSTACK, 23, STACK
        LOCFRAME IOVERLAY, 0, STATIC
        LOCFRAME DOVERLAY, 0, STATIC
        ARGFRAME ISTACK, 0, STACK
        ARGFRAME PSTACK, 0, STACK
        ARGFRAME XSTACK, 23, STACK
        ARGFRAME IOVERLAY, 0, STATIC
        ARGFRAME DOVERLAY, 0, STATIC
        FUNCALL xferBuf, HalFlashRead
        LOCFRAME ISTACK, 0, STACK
        LOCFRAME PSTACK, 0, STACK
        LOCFRAME XSTACK, 23, STACK
        LOCFRAME IOVERLAY, 0, STATIC
        LOCFRAME DOVERLAY, 0, STATIC
        ARGFRAME ISTACK, 0, STACK
        ARGFRAME PSTACK, 0, STACK
        ARGFRAME XSTACK, 23, STACK
        ARGFRAME IOVERLAY, 0, STATIC
        ARGFRAME DOVERLAY, 0, STATIC
        FUNCALL xferBuf, writeWord
        LOCFRAME ISTACK, 0, STACK
        LOCFRAME PSTACK, 0, STACK
        LOCFRAME XSTACK, 21, STACK
        LOCFRAME IOVERLAY, 0, STATIC
        LOCFRAME DOVERLAY, 0, STATIC
        ARGFRAME ISTACK, 0, STACK
        ARGFRAME PSTACK, 0, STACK
        ARGFRAME XSTACK, 21, STACK
        ARGFRAME IOVERLAY, 0, STATIC
        ARGFRAME DOVERLAY, 0, STATIC
        REQUIRE ?V0
        REQUIRE ?V1
        REQUIRE ?V2
        REQUIRE ?V3
        REQUIRE ?V4
        REQUIRE ?V5
        REQUIRE ?V6
        REQUIRE ?V7
        MOV       A,#-0x10
        LCALL     ?BANKED_ENTER_XDATA
          CFI DPH0 load(1, XDATA, add(CFA_XSP16, literal(-1)))
          CFI DPL0 load(1, XDATA, add(CFA_XSP16, literal(-2)))
          CFI ?BRET_EXT load(1, XDATA, add(CFA_XSP16, literal(-3)))
          CFI ?RET_HIGH load(1, XDATA, add(CFA_XSP16, literal(-4)))
          CFI ?RET_LOW load(1, XDATA, add(CFA_XSP16, literal(-5)))
          CFI R7 load(1, XDATA, add(CFA_XSP16, literal(-6)))
          CFI V7 load(1, XDATA, add(CFA_XSP16, literal(-7)))
          CFI V6 load(1, XDATA, add(CFA_XSP16, literal(-8)))
          CFI V5 load(1, XDATA, add(CFA_XSP16, literal(-9)))
          CFI V4 load(1, XDATA, add(CFA_XSP16, literal(-10)))
          CFI V3 load(1, XDATA, add(CFA_XSP16, literal(-11)))
          CFI V2 load(1, XDATA, add(CFA_XSP16, literal(-12)))
          CFI V1 load(1, XDATA, add(CFA_XSP16, literal(-13)))
          CFI V0 load(1, XDATA, add(CFA_XSP16, literal(-14)))
          CFI VB load(1, XDATA, add(CFA_XSP16, literal(-15)))
          CFI R6 load(1, XDATA, add(CFA_XSP16, literal(-16)))
          CFI CFA_SP SP+0
          CFI CFA_XSP16 add(XSP16, 16)
        ; Saved register size: 16
        ; Auto size: 5
        MOV       A,#-0x5
        LCALL     ?ALLOC_XSTACK8
          CFI CFA_XSP16 add(XSP16, 21)
        MOV       A,R1
        MOV       DPL,?XSP + 0
        MOV       DPH,?XSP + 1
        MOVX      @DPTR,A
        MOV       ?V6,R2
        MOV       ?V7,R3
        MOV       ?V3,R4
        MOV       A,#0x15
        LCALL     ?XSTACK_DISP0_8
        LCALL     ?Subroutine18 & 0xFFFF
// 1022   uint8 rem = dstOff % OSAL_NV_WORD_SIZE;
??CrossCallReturnLabel_29:
        MOV       A,?V0
        ANL       A,#0x3
        MOV       ?V2,A
        MOV       A,#0x17
        LCALL     ?XSTACK_DISP0_8
        MOVX      A,@DPTR
        MOV       R6,A
        INC       DPTR
        MOVX      A,@DPTR
        MOV       R7,A
// 1023   uint8 tmp[OSAL_NV_WORD_SIZE];
// 1024 
// 1025   if ( rem )
        MOV       A,?V2
        JZ        ??CrossCallReturnLabel_109
// 1026   {
// 1027     dstOff -= rem;
        MOV       R0,A
        CLR       C
        MOV       A,?V0
        SUBB      A,R0
        MOV       ?V0,A
        MOV       A,?V1
        SUBB      A,#0x0
        MOV       ?V1,A
// 1028     HalFlashRead(dstPg, dstOff, tmp, OSAL_NV_WORD_SIZE);
        ; Setup parameters for call to function HalFlashRead
        MOV       ?V4,#0x4
        MOV       ?V5,#0x0
        MOV       R0,#?V4
        LCALL     ?PUSH_XSTACK_I_TWO
          CFI CFA_XSP16 add(XSP16, 23)
        MOV       A,#0x3
        LCALL     ?XSTACK_DISP102_8
        MOV       R2,?V0
        MOV       R3,?V1
        MOV       R1,?V3
        LCALL     ??Subroutine58_0 & 0xFFFF
??CrossCallReturnLabel_131:
        LCALL     ?DEALLOC_XSTACK8
          CFI CFA_XSP16 add(XSP16, 21)
??xferBuf_0:
        MOV       A,R6
        ORL       A,R7
        JZ        ??xferBuf_1
// 1029 
// 1030     while ( (rem < OSAL_NV_WORD_SIZE) && len )
// 1031     {
// 1032       HalFlashRead(srcPg, srcOff, tmp+rem, 1);
        ; Setup parameters for call to function HalFlashRead
        MOV       ?V4,#0x1
        MOV       R0,#?V4
        LCALL     ?PUSH_XSTACK_I_TWO
          CFI CFA_XSP16 add(XSP16, 23)
        MOV       R0,?V2
        MOV       A,#0x3
        LCALL     ?XSTACK_DISP0_8
        LCALL     ?Subroutine30 & 0xFFFF
??CrossCallReturnLabel_62:
        LCALL     ?XSTACK_DISP0_8
        LCALL     ?Subroutine10 & 0xFFFF
??CrossCallReturnLabel_115:
        LCALL     ?DEALLOC_XSTACK8
          CFI CFA_XSP16 add(XSP16, 21)
// 1033       srcOff++;
        INC       ?V6
        MOV       A,?V6
        JNZ       ??xferBuf_2
        INC       ?V7
// 1034       rem++;
??xferBuf_2:
        INC       ?V2
// 1035       len--;
        MOV       A,R6
        ADD       A,#-0x1
        DEC       R6
        MOV       A,R7
        ADDC      A,#-0x1
        MOV       R7,A
// 1036     }
        MOV       A,?V2
        CLR       C
        SUBB      A,#0x4
        JC        ??xferBuf_0
// 1037 
// 1038     writeWord( dstPg, dstOff, tmp );
??xferBuf_1:
        ; Setup parameters for call to function writeWord
        MOV       A,#0x1
        LCALL     ?XSTACK_DISP102_8
        LCALL     ?Subroutine32 & 0xFFFF
// 1039     dstOff += OSAL_NV_WORD_SIZE;
// 1040   }
// 1041 
// 1042   rem = len % OSAL_NV_WORD_SIZE;
??CrossCallReturnLabel_109:
        MOV       A,R6
        ANL       A,#0x3
        MOV       ?V2,A
// 1043   len /= OSAL_NV_WORD_SIZE;
        MOV       ?V4,R6
        MOV       ?V5,R7
        MOV       A,#0x2
        MOV       R0,#?V4
        LCALL     ?US_SHR
        MOV       R6,?V4
        MOV       R7,?V5
        SJMP      ??CrossCallReturnLabel_110
// 1044 
// 1045   while ( len-- )
// 1046   {
// 1047     HalFlashRead(srcPg, srcOff, tmp, OSAL_NV_WORD_SIZE);
??xferBuf_3:
        ; Setup parameters for call to function HalFlashRead
        MOV       ?V4,#0x4
        MOV       ?V5,#0x0
        MOV       R0,#?V4
        LCALL     ?PUSH_XSTACK_I_TWO
          CFI CFA_XSP16 add(XSP16, 23)
        MOV       A,#0x3
        LCALL     ?XSTACK_DISP102_8
        MOV       R2,?V6
        MOV       R3,?V7
        MOV       A,#0x2
        LCALL     ?XSTACK_DISP0_8
        LCALL     ?Subroutine10 & 0xFFFF
??CrossCallReturnLabel_116:
        LCALL     ?DEALLOC_XSTACK8
          CFI CFA_XSP16 add(XSP16, 21)
// 1048     srcOff += OSAL_NV_WORD_SIZE;
        MOV       A,?V6
        ADD       A,#0x4
        MOV       ?V6,A
        CLR       A
        ADDC      A,?V7
        MOV       ?V7,A
// 1049     writeWord( dstPg, dstOff, tmp );
        ; Setup parameters for call to function writeWord
        MOV       A,#0x1
        LCALL     ?XSTACK_DISP102_8
        LCALL     ?Subroutine32 & 0xFFFF
// 1050     dstOff += OSAL_NV_WORD_SIZE;
// 1051   }
??CrossCallReturnLabel_110:
        LCALL     ?Subroutine41 & 0xFFFF
??CrossCallReturnLabel_82:
        JNZ       ??xferBuf_3
// 1052 
// 1053   if ( rem )
        MOV       A,?V2
        JZ        ??xferBuf_4
// 1054   {
// 1055     uint8 idx = 0;
        MOV       R6,#0x0
// 1056     HalFlashRead(dstPg, dstOff, tmp, OSAL_NV_WORD_SIZE);
        ; Setup parameters for call to function HalFlashRead
        MOV       ?V4,#0x4
        MOV       ?V5,R6
        MOV       R0,#?V4
        LCALL     ?PUSH_XSTACK_I_TWO
          CFI CFA_XSP16 add(XSP16, 23)
        MOV       A,#0x3
        LCALL     ?XSTACK_DISP102_8
        MOV       R2,?V0
        MOV       R3,?V1
        MOV       R1,?V3
        LCALL     ??Subroutine58_0 & 0xFFFF
??CrossCallReturnLabel_132:
        LCALL     ?DEALLOC_XSTACK8
          CFI CFA_XSP16 add(XSP16, 21)
        SJMP      ??xferBuf_5
// 1057     while ( rem-- )
// 1058     {
// 1059       HalFlashRead(srcPg, srcOff, tmp+idx, 1);
??xferBuf_6:
        ; Setup parameters for call to function HalFlashRead
        MOV       ?V4,#0x1
        MOV       R0,#?V4
        LCALL     ?PUSH_XSTACK_I_TWO
          CFI CFA_XSP16 add(XSP16, 23)
        MOV       A,R6
        MOV       R0,A
        MOV       A,#0x3
        LCALL     ?XSTACK_DISP0_8
        LCALL     ?Subroutine30 & 0xFFFF
??CrossCallReturnLabel_63:
        LCALL     ?XSTACK_DISP0_8
        LCALL     ?Subroutine10 & 0xFFFF
??CrossCallReturnLabel_117:
        LCALL     ?DEALLOC_XSTACK8
          CFI CFA_XSP16 add(XSP16, 21)
// 1060       srcOff++;
        INC       ?V6
        MOV       A,?V6
        JNZ       ??xferBuf_7
        INC       ?V7
// 1061       idx++;
??xferBuf_7:
        INC       R6
// 1062     }
??xferBuf_5:
        MOV       R7,?V2
        MOV       A,#-0x1
        ADD       A,R7
        MOV       ?V2,A
        INC       A
        JNZ       ??xferBuf_6
// 1063     writeWord( dstPg, dstOff, tmp );
        ; Setup parameters for call to function writeWord
        MOV       A,#0x1
        LCALL     ?XSTACK_DISP102_8
        MOV       R2,?V0
        MOV       R3,?V1
        MOV       R1,?V3
        LCALL     `??writeWord::?relay`; Banked call to: writeWord
// 1064   }
// 1065 }
??xferBuf_4:
        MOV       A,#0x5
        SJMP      ??Subroutine59_0
          CFI EndBlock cfiBlock98

        RSEG BANKED_CODE:HUGECODE:NOROOT(0)
?Subroutine41:
          CFI Block cfiCond99 Using cfiCommon0
          CFI Function calcChkF
          CFI Conditional ??CrossCallReturnLabel_81
          CFI R6 load(1, XDATA, add(CFA_XSP16, literal(-15)))
          CFI VB load(1, XDATA, add(CFA_XSP16, literal(-14)))
          CFI V0 load(1, XDATA, add(CFA_XSP16, literal(-13)))
          CFI V1 load(1, XDATA, add(CFA_XSP16, literal(-12)))
          CFI V2 load(1, XDATA, add(CFA_XSP16, literal(-11)))
          CFI V3 load(1, XDATA, add(CFA_XSP16, literal(-10)))
          CFI V4 load(1, XDATA, add(CFA_XSP16, literal(-9)))
          CFI V5 load(1, XDATA, add(CFA_XSP16, literal(-8)))
          CFI V6 load(1, XDATA, add(CFA_XSP16, literal(-7)))
          CFI R7 load(1, XDATA, add(CFA_XSP16, literal(-6)))
          CFI ?RET_LOW load(1, XDATA, add(CFA_XSP16, literal(-5)))
          CFI ?RET_HIGH load(1, XDATA, add(CFA_XSP16, literal(-4)))
          CFI ?BRET_EXT load(1, XDATA, add(CFA_XSP16, literal(-3)))
          CFI DPL0 load(1, XDATA, add(CFA_XSP16, literal(-2)))
          CFI DPH0 load(1, XDATA, add(CFA_XSP16, literal(-1)))
          CFI CFA_SP SP+-2
          CFI CFA_XSP16 add(XSP16, 19)
          CFI Block cfiCond100 Using cfiCommon0
          CFI (cfiCond100) Function xferBuf
          CFI (cfiCond100) Conditional ??CrossCallReturnLabel_82
          CFI (cfiCond100) R6 load(1, XDATA, add(CFA_XSP16, literal(-16)))
          CFI (cfiCond100) VB load(1, XDATA, add(CFA_XSP16, literal(-15)))
          CFI (cfiCond100) V0 load(1, XDATA, add(CFA_XSP16, literal(-14)))
          CFI (cfiCond100) V1 load(1, XDATA, add(CFA_XSP16, literal(-13)))
          CFI (cfiCond100) V2 load(1, XDATA, add(CFA_XSP16, literal(-12)))
          CFI (cfiCond100) V3 load(1, XDATA, add(CFA_XSP16, literal(-11)))
          CFI (cfiCond100) V4 load(1, XDATA, add(CFA_XSP16, literal(-10)))
          CFI (cfiCond100) V5 load(1, XDATA, add(CFA_XSP16, literal(-9)))
          CFI (cfiCond100) V6 load(1, XDATA, add(CFA_XSP16, literal(-8)))
          CFI (cfiCond100) V7 load(1, XDATA, add(CFA_XSP16, literal(-7)))
          CFI (cfiCond100) R7 load(1, XDATA, add(CFA_XSP16, literal(-6)))
          CFI (cfiCond100) ?RET_LOW load(1, XDATA, add(CFA_XSP16, literal(-5)))
          CFI (cfiCond100) ?RET_HIGH load(1, XDATA, add(CFA_XSP16, literal(-4)))
          CFI (cfiCond100) ?BRET_EXT load(1, XDATA, add(CFA_XSP16, literal(-3)))
          CFI (cfiCond100) DPL0 load(1, XDATA, add(CFA_XSP16, literal(-2)))
          CFI (cfiCond100) DPH0 load(1, XDATA, add(CFA_XSP16, literal(-1)))
          CFI (cfiCond100) CFA_SP SP+-2
          CFI (cfiCond100) CFA_XSP16 add(XSP16, 21)
          CFI Block cfiCond101 Using cfiCommon0
          CFI (cfiCond101) Function osal_nv_write
          CFI (cfiCond101) Conditional ??CrossCallReturnLabel_83
          CFI (cfiCond101) R6 load(1, XDATA, add(CFA_XSP16, literal(-16)))
          CFI (cfiCond101) VB load(1, XDATA, add(CFA_XSP16, literal(-15)))
          CFI (cfiCond101) V0 load(1, XDATA, add(CFA_XSP16, literal(-14)))
          CFI (cfiCond101) V1 load(1, XDATA, add(CFA_XSP16, literal(-13)))
          CFI (cfiCond101) V2 load(1, XDATA, add(CFA_XSP16, literal(-12)))
          CFI (cfiCond101) V3 load(1, XDATA, add(CFA_XSP16, literal(-11)))
          CFI (cfiCond101) V4 load(1, XDATA, add(CFA_XSP16, literal(-10)))
          CFI (cfiCond101) V5 load(1, XDATA, add(CFA_XSP16, literal(-9)))
          CFI (cfiCond101) V6 load(1, XDATA, add(CFA_XSP16, literal(-8)))
          CFI (cfiCond101) V7 load(1, XDATA, add(CFA_XSP16, literal(-7)))
          CFI (cfiCond101) R7 load(1, XDATA, add(CFA_XSP16, literal(-6)))
          CFI (cfiCond101) ?RET_LOW load(1, XDATA, add(CFA_XSP16, literal(-5)))
          CFI (cfiCond101) ?RET_HIGH load(1, XDATA, add(CFA_XSP16, literal(-4)))
          CFI (cfiCond101) ?BRET_EXT load(1, XDATA, add(CFA_XSP16, literal(-3)))
          CFI (cfiCond101) DPL0 load(1, XDATA, add(CFA_XSP16, literal(-2)))
          CFI (cfiCond101) DPH0 load(1, XDATA, add(CFA_XSP16, literal(-1)))
          CFI (cfiCond101) CFA_SP SP+-2
          CFI (cfiCond101) CFA_XSP16 add(XSP16, 35)
          CFI Block cfiPicker102 Using cfiCommon1
          CFI (cfiPicker102) NoFunction
          CFI (cfiPicker102) Picker
        MOV       A,R6
        MOV       R0,A
        MOV       A,R7
        MOV       R1,A
        MOV       A,R0
        ADD       A,#-0x1
        DEC       R6
        MOV       A,R1
        ADDC      A,#-0x1
        MOV       R7,A
        MOV       A,R0
        ORL       A,R1
        RET
          CFI EndBlock cfiCond99
          CFI EndBlock cfiCond100
          CFI EndBlock cfiCond101
          CFI EndBlock cfiPicker102

        RSEG BANKED_CODE:HUGECODE:NOROOT(0)
?Subroutine32:
          CFI Block cfiCond103 Using cfiCommon0
          CFI Function xferBuf
          CFI Conditional ??CrossCallReturnLabel_109
          CFI R6 load(1, XDATA, add(CFA_XSP16, literal(-16)))
          CFI VB load(1, XDATA, add(CFA_XSP16, literal(-15)))
          CFI V0 load(1, XDATA, add(CFA_XSP16, literal(-14)))
          CFI V1 load(1, XDATA, add(CFA_XSP16, literal(-13)))
          CFI V2 load(1, XDATA, add(CFA_XSP16, literal(-12)))
          CFI V3 load(1, XDATA, add(CFA_XSP16, literal(-11)))
          CFI V4 load(1, XDATA, add(CFA_XSP16, literal(-10)))
          CFI V5 load(1, XDATA, add(CFA_XSP16, literal(-9)))
          CFI V6 load(1, XDATA, add(CFA_XSP16, literal(-8)))
          CFI V7 load(1, XDATA, add(CFA_XSP16, literal(-7)))
          CFI R7 load(1, XDATA, add(CFA_XSP16, literal(-6)))
          CFI ?RET_LOW load(1, XDATA, add(CFA_XSP16, literal(-5)))
          CFI ?RET_HIGH load(1, XDATA, add(CFA_XSP16, literal(-4)))
          CFI ?BRET_EXT load(1, XDATA, add(CFA_XSP16, literal(-3)))
          CFI DPL0 load(1, XDATA, add(CFA_XSP16, literal(-2)))
          CFI DPH0 load(1, XDATA, add(CFA_XSP16, literal(-1)))
          CFI CFA_SP SP+-2
          CFI CFA_XSP16 add(XSP16, 21)
          CFI Block cfiCond104 Using cfiCommon0
          CFI (cfiCond104) Function xferBuf
          CFI (cfiCond104) Conditional ??CrossCallReturnLabel_110
          CFI (cfiCond104) R6 load(1, XDATA, add(CFA_XSP16, literal(-16)))
          CFI (cfiCond104) VB load(1, XDATA, add(CFA_XSP16, literal(-15)))
          CFI (cfiCond104) V0 load(1, XDATA, add(CFA_XSP16, literal(-14)))
          CFI (cfiCond104) V1 load(1, XDATA, add(CFA_XSP16, literal(-13)))
          CFI (cfiCond104) V2 load(1, XDATA, add(CFA_XSP16, literal(-12)))
          CFI (cfiCond104) V3 load(1, XDATA, add(CFA_XSP16, literal(-11)))
          CFI (cfiCond104) V4 load(1, XDATA, add(CFA_XSP16, literal(-10)))
          CFI (cfiCond104) V5 load(1, XDATA, add(CFA_XSP16, literal(-9)))
          CFI (cfiCond104) V6 load(1, XDATA, add(CFA_XSP16, literal(-8)))
          CFI (cfiCond104) V7 load(1, XDATA, add(CFA_XSP16, literal(-7)))
          CFI (cfiCond104) R7 load(1, XDATA, add(CFA_XSP16, literal(-6)))
          CFI (cfiCond104) ?RET_LOW load(1, XDATA, add(CFA_XSP16, literal(-5)))
          CFI (cfiCond104) ?RET_HIGH load(1, XDATA, add(CFA_XSP16, literal(-4)))
          CFI (cfiCond104) ?BRET_EXT load(1, XDATA, add(CFA_XSP16, literal(-3)))
          CFI (cfiCond104) DPL0 load(1, XDATA, add(CFA_XSP16, literal(-2)))
          CFI (cfiCond104) DPH0 load(1, XDATA, add(CFA_XSP16, literal(-1)))
          CFI (cfiCond104) CFA_SP SP+-2
          CFI (cfiCond104) CFA_XSP16 add(XSP16, 21)
          CFI Block cfiPicker105 Using cfiCommon1
          CFI (cfiPicker105) NoFunction
          CFI (cfiPicker105) Picker
        MOV       R2,?V0
        MOV       R3,?V1
        MOV       R1,?V3
          CFI EndBlock cfiCond103
          CFI EndBlock cfiCond104
          CFI EndBlock cfiPicker105
        REQUIRE ??Subroutine56_0
        ; // Fall through to label ??Subroutine56_0

        RSEG BANKED_CODE:HUGECODE:NOROOT(0)
??Subroutine56_0:
          CFI Block cfiCond106 Using cfiCommon0
          CFI Function writeBuf
          CFI Conditional ??CrossCallReturnLabel_111
          CFI R6 load(1, XDATA, add(CFA_XSP16, literal(-16)))
          CFI VB load(1, XDATA, add(CFA_XSP16, literal(-15)))
          CFI V0 load(1, XDATA, add(CFA_XSP16, literal(-14)))
          CFI V1 load(1, XDATA, add(CFA_XSP16, literal(-13)))
          CFI V2 load(1, XDATA, add(CFA_XSP16, literal(-12)))
          CFI V3 load(1, XDATA, add(CFA_XSP16, literal(-11)))
          CFI V4 load(1, XDATA, add(CFA_XSP16, literal(-10)))
          CFI V5 load(1, XDATA, add(CFA_XSP16, literal(-9)))
          CFI V6 load(1, XDATA, add(CFA_XSP16, literal(-8)))
          CFI V7 load(1, XDATA, add(CFA_XSP16, literal(-7)))
          CFI R7 load(1, XDATA, add(CFA_XSP16, literal(-6)))
          CFI ?RET_LOW load(1, XDATA, add(CFA_XSP16, literal(-5)))
          CFI ?RET_HIGH load(1, XDATA, add(CFA_XSP16, literal(-4)))
          CFI ?BRET_EXT load(1, XDATA, add(CFA_XSP16, literal(-3)))
          CFI DPL0 load(1, XDATA, add(CFA_XSP16, literal(-2)))
          CFI DPH0 load(1, XDATA, add(CFA_XSP16, literal(-1)))
          CFI CFA_SP SP+-2
          CFI CFA_XSP16 add(XSP16, 20)
          CFI Block cfiCond107 Using cfiCommon0
          CFI (cfiCond107) Function xferBuf
          CFI (cfiCond107) Conditional ??CrossCallReturnLabel_109
          CFI (cfiCond107) R6 load(1, XDATA, add(CFA_XSP16, literal(-16)))
          CFI (cfiCond107) VB load(1, XDATA, add(CFA_XSP16, literal(-15)))
          CFI (cfiCond107) V0 load(1, XDATA, add(CFA_XSP16, literal(-14)))
          CFI (cfiCond107) V1 load(1, XDATA, add(CFA_XSP16, literal(-13)))
          CFI (cfiCond107) V2 load(1, XDATA, add(CFA_XSP16, literal(-12)))
          CFI (cfiCond107) V3 load(1, XDATA, add(CFA_XSP16, literal(-11)))
          CFI (cfiCond107) V4 load(1, XDATA, add(CFA_XSP16, literal(-10)))
          CFI (cfiCond107) V5 load(1, XDATA, add(CFA_XSP16, literal(-9)))
          CFI (cfiCond107) V6 load(1, XDATA, add(CFA_XSP16, literal(-8)))
          CFI (cfiCond107) V7 load(1, XDATA, add(CFA_XSP16, literal(-7)))
          CFI (cfiCond107) R7 load(1, XDATA, add(CFA_XSP16, literal(-6)))
          CFI (cfiCond107) ?RET_LOW load(1, XDATA, add(CFA_XSP16, literal(-5)))
          CFI (cfiCond107) ?RET_HIGH load(1, XDATA, add(CFA_XSP16, literal(-4)))
          CFI (cfiCond107) ?BRET_EXT load(1, XDATA, add(CFA_XSP16, literal(-3)))
          CFI (cfiCond107) DPL0 load(1, XDATA, add(CFA_XSP16, literal(-2)))
          CFI (cfiCond107) DPH0 load(1, XDATA, add(CFA_XSP16, literal(-1)))
          CFI (cfiCond107) CFA_SP SP+-2
          CFI (cfiCond107) CFA_XSP16 add(XSP16, 21)
          CFI Block cfiCond108 Using cfiCommon0
          CFI (cfiCond108) Function xferBuf
          CFI (cfiCond108) Conditional ??CrossCallReturnLabel_110
          CFI (cfiCond108) R6 load(1, XDATA, add(CFA_XSP16, literal(-16)))
          CFI (cfiCond108) VB load(1, XDATA, add(CFA_XSP16, literal(-15)))
          CFI (cfiCond108) V0 load(1, XDATA, add(CFA_XSP16, literal(-14)))
          CFI (cfiCond108) V1 load(1, XDATA, add(CFA_XSP16, literal(-13)))
          CFI (cfiCond108) V2 load(1, XDATA, add(CFA_XSP16, literal(-12)))
          CFI (cfiCond108) V3 load(1, XDATA, add(CFA_XSP16, literal(-11)))
          CFI (cfiCond108) V4 load(1, XDATA, add(CFA_XSP16, literal(-10)))
          CFI (cfiCond108) V5 load(1, XDATA, add(CFA_XSP16, literal(-9)))
          CFI (cfiCond108) V6 load(1, XDATA, add(CFA_XSP16, literal(-8)))
          CFI (cfiCond108) V7 load(1, XDATA, add(CFA_XSP16, literal(-7)))
          CFI (cfiCond108) R7 load(1, XDATA, add(CFA_XSP16, literal(-6)))
          CFI (cfiCond108) ?RET_LOW load(1, XDATA, add(CFA_XSP16, literal(-5)))
          CFI (cfiCond108) ?RET_HIGH load(1, XDATA, add(CFA_XSP16, literal(-4)))
          CFI (cfiCond108) ?BRET_EXT load(1, XDATA, add(CFA_XSP16, literal(-3)))
          CFI (cfiCond108) DPL0 load(1, XDATA, add(CFA_XSP16, literal(-2)))
          CFI (cfiCond108) DPH0 load(1, XDATA, add(CFA_XSP16, literal(-1)))
          CFI (cfiCond108) CFA_SP SP+-2
          CFI (cfiCond108) CFA_XSP16 add(XSP16, 21)
          CFI Block cfiPicker109 Using cfiCommon1
          CFI (cfiPicker109) NoFunction
          CFI (cfiPicker109) Picker
        LCALL     `??writeWord::?relay`; Banked call to: writeWord
        LCALL     ?Subroutine47 & 0xFFFF
??CrossCallReturnLabel_113:
        RET
          CFI EndBlock cfiCond106
          CFI EndBlock cfiCond107
          CFI EndBlock cfiCond108
          CFI EndBlock cfiPicker109

        RSEG BANKED_CODE:HUGECODE:NOROOT(0)
?Subroutine47:
          CFI Block cfiCond110 Using cfiCommon0
          CFI Function calcChkF
          CFI Conditional ??CrossCallReturnLabel_112
          CFI R6 load(1, XDATA, add(CFA_XSP16, literal(-15)))
          CFI VB load(1, XDATA, add(CFA_XSP16, literal(-14)))
          CFI V0 load(1, XDATA, add(CFA_XSP16, literal(-13)))
          CFI V1 load(1, XDATA, add(CFA_XSP16, literal(-12)))
          CFI V2 load(1, XDATA, add(CFA_XSP16, literal(-11)))
          CFI V3 load(1, XDATA, add(CFA_XSP16, literal(-10)))
          CFI V4 load(1, XDATA, add(CFA_XSP16, literal(-9)))
          CFI V5 load(1, XDATA, add(CFA_XSP16, literal(-8)))
          CFI V6 load(1, XDATA, add(CFA_XSP16, literal(-7)))
          CFI R7 load(1, XDATA, add(CFA_XSP16, literal(-6)))
          CFI ?RET_LOW load(1, XDATA, add(CFA_XSP16, literal(-5)))
          CFI ?RET_HIGH load(1, XDATA, add(CFA_XSP16, literal(-4)))
          CFI ?BRET_EXT load(1, XDATA, add(CFA_XSP16, literal(-3)))
          CFI DPL0 load(1, XDATA, add(CFA_XSP16, literal(-2)))
          CFI DPH0 load(1, XDATA, add(CFA_XSP16, literal(-1)))
          CFI CFA_SP SP+-2
          CFI CFA_XSP16 add(XSP16, 19)
          CFI Block cfiCond111 Using cfiCommon0
          CFI (cfiCond111) Function xferBuf
          CFI (cfiCond111) Conditional ??CrossCallReturnLabel_113, ??CrossCallReturnLabel_109
          CFI (cfiCond111) R6 load(1, XDATA, add(CFA_XSP16, literal(-16)))
          CFI (cfiCond111) VB load(1, XDATA, add(CFA_XSP16, literal(-15)))
          CFI (cfiCond111) V0 load(1, XDATA, add(CFA_XSP16, literal(-14)))
          CFI (cfiCond111) V1 load(1, XDATA, add(CFA_XSP16, literal(-13)))
          CFI (cfiCond111) V2 load(1, XDATA, add(CFA_XSP16, literal(-12)))
          CFI (cfiCond111) V3 load(1, XDATA, add(CFA_XSP16, literal(-11)))
          CFI (cfiCond111) V4 load(1, XDATA, add(CFA_XSP16, literal(-10)))
          CFI (cfiCond111) V5 load(1, XDATA, add(CFA_XSP16, literal(-9)))
          CFI (cfiCond111) V6 load(1, XDATA, add(CFA_XSP16, literal(-8)))
          CFI (cfiCond111) V7 load(1, XDATA, add(CFA_XSP16, literal(-7)))
          CFI (cfiCond111) R7 load(1, XDATA, add(CFA_XSP16, literal(-6)))
          CFI (cfiCond111) ?RET_LOW load(1, XDATA, add(CFA_XSP16, literal(-5)))
          CFI (cfiCond111) ?RET_HIGH load(1, XDATA, add(CFA_XSP16, literal(-4)))
          CFI (cfiCond111) ?BRET_EXT load(1, XDATA, add(CFA_XSP16, literal(-3)))
          CFI (cfiCond111) DPL0 load(1, XDATA, add(CFA_XSP16, literal(-2)))
          CFI (cfiCond111) DPH0 load(1, XDATA, add(CFA_XSP16, literal(-1)))
          CFI (cfiCond111) CFA_SP SP+-4
          CFI (cfiCond111) CFA_XSP16 add(XSP16, 21)
          CFI Block cfiCond112 Using cfiCommon0
          CFI (cfiCond112) Function xferBuf
          CFI (cfiCond112) Conditional ??CrossCallReturnLabel_113, ??CrossCallReturnLabel_110
          CFI (cfiCond112) R6 load(1, XDATA, add(CFA_XSP16, literal(-16)))
          CFI (cfiCond112) VB load(1, XDATA, add(CFA_XSP16, literal(-15)))
          CFI (cfiCond112) V0 load(1, XDATA, add(CFA_XSP16, literal(-14)))
          CFI (cfiCond112) V1 load(1, XDATA, add(CFA_XSP16, literal(-13)))
          CFI (cfiCond112) V2 load(1, XDATA, add(CFA_XSP16, literal(-12)))
          CFI (cfiCond112) V3 load(1, XDATA, add(CFA_XSP16, literal(-11)))
          CFI (cfiCond112) V4 load(1, XDATA, add(CFA_XSP16, literal(-10)))
          CFI (cfiCond112) V5 load(1, XDATA, add(CFA_XSP16, literal(-9)))
          CFI (cfiCond112) V6 load(1, XDATA, add(CFA_XSP16, literal(-8)))
          CFI (cfiCond112) V7 load(1, XDATA, add(CFA_XSP16, literal(-7)))
          CFI (cfiCond112) R7 load(1, XDATA, add(CFA_XSP16, literal(-6)))
          CFI (cfiCond112) ?RET_LOW load(1, XDATA, add(CFA_XSP16, literal(-5)))
          CFI (cfiCond112) ?RET_HIGH load(1, XDATA, add(CFA_XSP16, literal(-4)))
          CFI (cfiCond112) ?BRET_EXT load(1, XDATA, add(CFA_XSP16, literal(-3)))
          CFI (cfiCond112) DPL0 load(1, XDATA, add(CFA_XSP16, literal(-2)))
          CFI (cfiCond112) DPH0 load(1, XDATA, add(CFA_XSP16, literal(-1)))
          CFI (cfiCond112) CFA_SP SP+-4
          CFI (cfiCond112) CFA_XSP16 add(XSP16, 21)
          CFI Block cfiCond113 Using cfiCommon0
          CFI (cfiCond113) Function writeBuf
          CFI (cfiCond113) Conditional ??CrossCallReturnLabel_113, ??CrossCallReturnLabel_111
          CFI (cfiCond113) R6 load(1, XDATA, add(CFA_XSP16, literal(-16)))
          CFI (cfiCond113) VB load(1, XDATA, add(CFA_XSP16, literal(-15)))
          CFI (cfiCond113) V0 load(1, XDATA, add(CFA_XSP16, literal(-14)))
          CFI (cfiCond113) V1 load(1, XDATA, add(CFA_XSP16, literal(-13)))
          CFI (cfiCond113) V2 load(1, XDATA, add(CFA_XSP16, literal(-12)))
          CFI (cfiCond113) V3 load(1, XDATA, add(CFA_XSP16, literal(-11)))
          CFI (cfiCond113) V4 load(1, XDATA, add(CFA_XSP16, literal(-10)))
          CFI (cfiCond113) V5 load(1, XDATA, add(CFA_XSP16, literal(-9)))
          CFI (cfiCond113) V6 load(1, XDATA, add(CFA_XSP16, literal(-8)))
          CFI (cfiCond113) V7 load(1, XDATA, add(CFA_XSP16, literal(-7)))
          CFI (cfiCond113) R7 load(1, XDATA, add(CFA_XSP16, literal(-6)))
          CFI (cfiCond113) ?RET_LOW load(1, XDATA, add(CFA_XSP16, literal(-5)))
          CFI (cfiCond113) ?RET_HIGH load(1, XDATA, add(CFA_XSP16, literal(-4)))
          CFI (cfiCond113) ?BRET_EXT load(1, XDATA, add(CFA_XSP16, literal(-3)))
          CFI (cfiCond113) DPL0 load(1, XDATA, add(CFA_XSP16, literal(-2)))
          CFI (cfiCond113) DPH0 load(1, XDATA, add(CFA_XSP16, literal(-1)))
          CFI (cfiCond113) CFA_SP SP+-4
          CFI (cfiCond113) CFA_XSP16 add(XSP16, 20)
          CFI Block cfiPicker114 Using cfiCommon1
          CFI (cfiPicker114) NoFunction
          CFI (cfiPicker114) Picker
        MOV       A,?V0
        ADD       A,#0x4
        MOV       ?V0,A
        CLR       A
        ADDC      A,?V1
        MOV       ?V1,A
        RET
          CFI EndBlock cfiCond110
          CFI EndBlock cfiCond111
          CFI EndBlock cfiCond112
          CFI EndBlock cfiCond113
          CFI EndBlock cfiPicker114

        RSEG BANKED_CODE:HUGECODE:NOROOT(0)
?Subroutine30:
          CFI Block cfiCond115 Using cfiCommon0
          CFI Function xferBuf
          CFI Conditional ??CrossCallReturnLabel_62
          CFI R6 load(1, XDATA, add(CFA_XSP16, literal(-16)))
          CFI VB load(1, XDATA, add(CFA_XSP16, literal(-15)))
          CFI V0 load(1, XDATA, add(CFA_XSP16, literal(-14)))
          CFI V1 load(1, XDATA, add(CFA_XSP16, literal(-13)))
          CFI V2 load(1, XDATA, add(CFA_XSP16, literal(-12)))
          CFI V3 load(1, XDATA, add(CFA_XSP16, literal(-11)))
          CFI V4 load(1, XDATA, add(CFA_XSP16, literal(-10)))
          CFI V5 load(1, XDATA, add(CFA_XSP16, literal(-9)))
          CFI V6 load(1, XDATA, add(CFA_XSP16, literal(-8)))
          CFI V7 load(1, XDATA, add(CFA_XSP16, literal(-7)))
          CFI R7 load(1, XDATA, add(CFA_XSP16, literal(-6)))
          CFI ?RET_LOW load(1, XDATA, add(CFA_XSP16, literal(-5)))
          CFI ?RET_HIGH load(1, XDATA, add(CFA_XSP16, literal(-4)))
          CFI ?BRET_EXT load(1, XDATA, add(CFA_XSP16, literal(-3)))
          CFI DPL0 load(1, XDATA, add(CFA_XSP16, literal(-2)))
          CFI DPH0 load(1, XDATA, add(CFA_XSP16, literal(-1)))
          CFI CFA_SP SP+-2
          CFI CFA_XSP16 add(XSP16, 23)
          CFI Block cfiCond116 Using cfiCommon0
          CFI (cfiCond116) Function xferBuf
          CFI (cfiCond116) Conditional ??CrossCallReturnLabel_63
          CFI (cfiCond116) R6 load(1, XDATA, add(CFA_XSP16, literal(-16)))
          CFI (cfiCond116) VB load(1, XDATA, add(CFA_XSP16, literal(-15)))
          CFI (cfiCond116) V0 load(1, XDATA, add(CFA_XSP16, literal(-14)))
          CFI (cfiCond116) V1 load(1, XDATA, add(CFA_XSP16, literal(-13)))
          CFI (cfiCond116) V2 load(1, XDATA, add(CFA_XSP16, literal(-12)))
          CFI (cfiCond116) V3 load(1, XDATA, add(CFA_XSP16, literal(-11)))
          CFI (cfiCond116) V4 load(1, XDATA, add(CFA_XSP16, literal(-10)))
          CFI (cfiCond116) V5 load(1, XDATA, add(CFA_XSP16, literal(-9)))
          CFI (cfiCond116) V6 load(1, XDATA, add(CFA_XSP16, literal(-8)))
          CFI (cfiCond116) V7 load(1, XDATA, add(CFA_XSP16, literal(-7)))
          CFI (cfiCond116) R7 load(1, XDATA, add(CFA_XSP16, literal(-6)))
          CFI (cfiCond116) ?RET_LOW load(1, XDATA, add(CFA_XSP16, literal(-5)))
          CFI (cfiCond116) ?RET_HIGH load(1, XDATA, add(CFA_XSP16, literal(-4)))
          CFI (cfiCond116) ?BRET_EXT load(1, XDATA, add(CFA_XSP16, literal(-3)))
          CFI (cfiCond116) DPL0 load(1, XDATA, add(CFA_XSP16, literal(-2)))
          CFI (cfiCond116) DPH0 load(1, XDATA, add(CFA_XSP16, literal(-1)))
          CFI (cfiCond116) CFA_SP SP+-2
          CFI (cfiCond116) CFA_XSP16 add(XSP16, 23)
          CFI Block cfiPicker117 Using cfiCommon1
          CFI (cfiPicker117) NoFunction
          CFI (cfiPicker117) Picker
        MOV       A,DPL
        ADD       A,R0
        MOV       R4,A
        CLR       A
        ADDC      A,DPH
        MOV       R5,A
        MOV       R2,?V6
        MOV       R3,?V7
        MOV       A,#0x2
        RET
          CFI EndBlock cfiCond115
          CFI EndBlock cfiCond116
          CFI EndBlock cfiPicker117

        RSEG BANKED_CODE:HUGECODE:NOROOT(0)
?Subroutine18:
          CFI Block cfiCond118 Using cfiCommon0
          CFI Function compactPage
          CFI Conditional ??CrossCallReturnLabel_28
          CFI R6 load(1, XDATA, add(CFA_XSP16, literal(-15)))
          CFI VB load(1, XDATA, add(CFA_XSP16, literal(-14)))
          CFI V0 load(1, XDATA, add(CFA_XSP16, literal(-13)))
          CFI V1 load(1, XDATA, add(CFA_XSP16, literal(-12)))
          CFI V2 load(1, XDATA, add(CFA_XSP16, literal(-11)))
          CFI V3 load(1, XDATA, add(CFA_XSP16, literal(-10)))
          CFI V4 load(1, XDATA, add(CFA_XSP16, literal(-9)))
          CFI V5 load(1, XDATA, add(CFA_XSP16, literal(-8)))
          CFI V6 load(1, XDATA, add(CFA_XSP16, literal(-7)))
          CFI R7 load(1, XDATA, add(CFA_XSP16, literal(-6)))
          CFI ?RET_LOW load(1, XDATA, add(CFA_XSP16, literal(-5)))
          CFI ?RET_HIGH load(1, XDATA, add(CFA_XSP16, literal(-4)))
          CFI ?BRET_EXT load(1, XDATA, add(CFA_XSP16, literal(-3)))
          CFI DPL0 load(1, XDATA, add(CFA_XSP16, literal(-2)))
          CFI DPH0 load(1, XDATA, add(CFA_XSP16, literal(-1)))
          CFI CFA_SP SP+-2
          CFI CFA_XSP16 add(XSP16, 26)
          CFI Block cfiCond119 Using cfiCommon0
          CFI (cfiCond119) Function xferBuf
          CFI (cfiCond119) Conditional ??CrossCallReturnLabel_29
          CFI (cfiCond119) R6 load(1, XDATA, add(CFA_XSP16, literal(-16)))
          CFI (cfiCond119) VB load(1, XDATA, add(CFA_XSP16, literal(-15)))
          CFI (cfiCond119) V0 load(1, XDATA, add(CFA_XSP16, literal(-14)))
          CFI (cfiCond119) V1 load(1, XDATA, add(CFA_XSP16, literal(-13)))
          CFI (cfiCond119) V2 load(1, XDATA, add(CFA_XSP16, literal(-12)))
          CFI (cfiCond119) V3 load(1, XDATA, add(CFA_XSP16, literal(-11)))
          CFI (cfiCond119) V4 load(1, XDATA, add(CFA_XSP16, literal(-10)))
          CFI (cfiCond119) V5 load(1, XDATA, add(CFA_XSP16, literal(-9)))
          CFI (cfiCond119) V6 load(1, XDATA, add(CFA_XSP16, literal(-8)))
          CFI (cfiCond119) V7 load(1, XDATA, add(CFA_XSP16, literal(-7)))
          CFI (cfiCond119) R7 load(1, XDATA, add(CFA_XSP16, literal(-6)))
          CFI (cfiCond119) ?RET_LOW load(1, XDATA, add(CFA_XSP16, literal(-5)))
          CFI (cfiCond119) ?RET_HIGH load(1, XDATA, add(CFA_XSP16, literal(-4)))
          CFI (cfiCond119) ?BRET_EXT load(1, XDATA, add(CFA_XSP16, literal(-3)))
          CFI (cfiCond119) DPL0 load(1, XDATA, add(CFA_XSP16, literal(-2)))
          CFI (cfiCond119) DPH0 load(1, XDATA, add(CFA_XSP16, literal(-1)))
          CFI (cfiCond119) CFA_SP SP+-2
          CFI (cfiCond119) CFA_XSP16 add(XSP16, 21)
          CFI Block cfiCond120 Using cfiCommon0
          CFI (cfiCond120) Function writeItem
          CFI (cfiCond120) Conditional ??CrossCallReturnLabel_30
          CFI (cfiCond120) R6 load(1, XDATA, add(CFA_XSP16, literal(-16)))
          CFI (cfiCond120) VB load(1, XDATA, add(CFA_XSP16, literal(-15)))
          CFI (cfiCond120) V0 load(1, XDATA, add(CFA_XSP16, literal(-14)))
          CFI (cfiCond120) V1 load(1, XDATA, add(CFA_XSP16, literal(-13)))
          CFI (cfiCond120) V2 load(1, XDATA, add(CFA_XSP16, literal(-12)))
          CFI (cfiCond120) V3 load(1, XDATA, add(CFA_XSP16, literal(-11)))
          CFI (cfiCond120) V4 load(1, XDATA, add(CFA_XSP16, literal(-10)))
          CFI (cfiCond120) V5 load(1, XDATA, add(CFA_XSP16, literal(-9)))
          CFI (cfiCond120) V6 load(1, XDATA, add(CFA_XSP16, literal(-8)))
          CFI (cfiCond120) V7 load(1, XDATA, add(CFA_XSP16, literal(-7)))
          CFI (cfiCond120) R7 load(1, XDATA, add(CFA_XSP16, literal(-6)))
          CFI (cfiCond120) ?RET_LOW load(1, XDATA, add(CFA_XSP16, literal(-5)))
          CFI (cfiCond120) ?RET_HIGH load(1, XDATA, add(CFA_XSP16, literal(-4)))
          CFI (cfiCond120) ?BRET_EXT load(1, XDATA, add(CFA_XSP16, literal(-3)))
          CFI (cfiCond120) DPL0 load(1, XDATA, add(CFA_XSP16, literal(-2)))
          CFI (cfiCond120) DPH0 load(1, XDATA, add(CFA_XSP16, literal(-1)))
          CFI (cfiCond120) CFA_SP SP+-2
          CFI (cfiCond120) CFA_XSP16 add(XSP16, 28)
          CFI Block cfiPicker121 Using cfiCommon1
          CFI (cfiPicker121) NoFunction
          CFI (cfiPicker121) Picker
        MOVX      A,@DPTR
        MOV       ?V0,A
        INC       DPTR
        MOVX      A,@DPTR
        MOV       ?V1,A
        RET
          CFI EndBlock cfiCond118
          CFI EndBlock cfiCond119
          CFI EndBlock cfiCond120
          CFI EndBlock cfiPicker121

        RSEG BANKED_CODE:HUGECODE:NOROOT(0)
?Subroutine10:
          CFI Block cfiCond122 Using cfiCommon0
          CFI Function compactPage
          CFI Conditional ??CrossCallReturnLabel_114
          CFI R6 load(1, XDATA, add(CFA_XSP16, literal(-15)))
          CFI VB load(1, XDATA, add(CFA_XSP16, literal(-14)))
          CFI V0 load(1, XDATA, add(CFA_XSP16, literal(-13)))
          CFI V1 load(1, XDATA, add(CFA_XSP16, literal(-12)))
          CFI V2 load(1, XDATA, add(CFA_XSP16, literal(-11)))
          CFI V3 load(1, XDATA, add(CFA_XSP16, literal(-10)))
          CFI V4 load(1, XDATA, add(CFA_XSP16, literal(-9)))
          CFI V5 load(1, XDATA, add(CFA_XSP16, literal(-8)))
          CFI V6 load(1, XDATA, add(CFA_XSP16, literal(-7)))
          CFI R7 load(1, XDATA, add(CFA_XSP16, literal(-6)))
          CFI ?RET_LOW load(1, XDATA, add(CFA_XSP16, literal(-5)))
          CFI ?RET_HIGH load(1, XDATA, add(CFA_XSP16, literal(-4)))
          CFI ?BRET_EXT load(1, XDATA, add(CFA_XSP16, literal(-3)))
          CFI DPL0 load(1, XDATA, add(CFA_XSP16, literal(-2)))
          CFI DPH0 load(1, XDATA, add(CFA_XSP16, literal(-1)))
          CFI CFA_SP SP+-2
          CFI CFA_XSP16 add(XSP16, 28)
          CFI Block cfiCond123 Using cfiCommon0
          CFI (cfiCond123) Function xferBuf
          CFI (cfiCond123) Conditional ??CrossCallReturnLabel_115
          CFI (cfiCond123) R6 load(1, XDATA, add(CFA_XSP16, literal(-16)))
          CFI (cfiCond123) VB load(1, XDATA, add(CFA_XSP16, literal(-15)))
          CFI (cfiCond123) V0 load(1, XDATA, add(CFA_XSP16, literal(-14)))
          CFI (cfiCond123) V1 load(1, XDATA, add(CFA_XSP16, literal(-13)))
          CFI (cfiCond123) V2 load(1, XDATA, add(CFA_XSP16, literal(-12)))
          CFI (cfiCond123) V3 load(1, XDATA, add(CFA_XSP16, literal(-11)))
          CFI (cfiCond123) V4 load(1, XDATA, add(CFA_XSP16, literal(-10)))
          CFI (cfiCond123) V5 load(1, XDATA, add(CFA_XSP16, literal(-9)))
          CFI (cfiCond123) V6 load(1, XDATA, add(CFA_XSP16, literal(-8)))
          CFI (cfiCond123) V7 load(1, XDATA, add(CFA_XSP16, literal(-7)))
          CFI (cfiCond123) R7 load(1, XDATA, add(CFA_XSP16, literal(-6)))
          CFI (cfiCond123) ?RET_LOW load(1, XDATA, add(CFA_XSP16, literal(-5)))
          CFI (cfiCond123) ?RET_HIGH load(1, XDATA, add(CFA_XSP16, literal(-4)))
          CFI (cfiCond123) ?BRET_EXT load(1, XDATA, add(CFA_XSP16, literal(-3)))
          CFI (cfiCond123) DPL0 load(1, XDATA, add(CFA_XSP16, literal(-2)))
          CFI (cfiCond123) DPH0 load(1, XDATA, add(CFA_XSP16, literal(-1)))
          CFI (cfiCond123) CFA_SP SP+-2
          CFI (cfiCond123) CFA_XSP16 add(XSP16, 23)
          CFI Block cfiCond124 Using cfiCommon0
          CFI (cfiCond124) Function xferBuf
          CFI (cfiCond124) Conditional ??CrossCallReturnLabel_116
          CFI (cfiCond124) R6 load(1, XDATA, add(CFA_XSP16, literal(-16)))
          CFI (cfiCond124) VB load(1, XDATA, add(CFA_XSP16, literal(-15)))
          CFI (cfiCond124) V0 load(1, XDATA, add(CFA_XSP16, literal(-14)))
          CFI (cfiCond124) V1 load(1, XDATA, add(CFA_XSP16, literal(-13)))
          CFI (cfiCond124) V2 load(1, XDATA, add(CFA_XSP16, literal(-12)))
          CFI (cfiCond124) V3 load(1, XDATA, add(CFA_XSP16, literal(-11)))
          CFI (cfiCond124) V4 load(1, XDATA, add(CFA_XSP16, literal(-10)))
          CFI (cfiCond124) V5 load(1, XDATA, add(CFA_XSP16, literal(-9)))
          CFI (cfiCond124) V6 load(1, XDATA, add(CFA_XSP16, literal(-8)))
          CFI (cfiCond124) V7 load(1, XDATA, add(CFA_XSP16, literal(-7)))
          CFI (cfiCond124) R7 load(1, XDATA, add(CFA_XSP16, literal(-6)))
          CFI (cfiCond124) ?RET_LOW load(1, XDATA, add(CFA_XSP16, literal(-5)))
          CFI (cfiCond124) ?RET_HIGH load(1, XDATA, add(CFA_XSP16, literal(-4)))
          CFI (cfiCond124) ?BRET_EXT load(1, XDATA, add(CFA_XSP16, literal(-3)))
          CFI (cfiCond124) DPL0 load(1, XDATA, add(CFA_XSP16, literal(-2)))
          CFI (cfiCond124) DPH0 load(1, XDATA, add(CFA_XSP16, literal(-1)))
          CFI (cfiCond124) CFA_SP SP+-2
          CFI (cfiCond124) CFA_XSP16 add(XSP16, 23)
          CFI Block cfiCond125 Using cfiCommon0
          CFI (cfiCond125) Function xferBuf
          CFI (cfiCond125) Conditional ??CrossCallReturnLabel_117
          CFI (cfiCond125) R6 load(1, XDATA, add(CFA_XSP16, literal(-16)))
          CFI (cfiCond125) VB load(1, XDATA, add(CFA_XSP16, literal(-15)))
          CFI (cfiCond125) V0 load(1, XDATA, add(CFA_XSP16, literal(-14)))
          CFI (cfiCond125) V1 load(1, XDATA, add(CFA_XSP16, literal(-13)))
          CFI (cfiCond125) V2 load(1, XDATA, add(CFA_XSP16, literal(-12)))
          CFI (cfiCond125) V3 load(1, XDATA, add(CFA_XSP16, literal(-11)))
          CFI (cfiCond125) V4 load(1, XDATA, add(CFA_XSP16, literal(-10)))
          CFI (cfiCond125) V5 load(1, XDATA, add(CFA_XSP16, literal(-9)))
          CFI (cfiCond125) V6 load(1, XDATA, add(CFA_XSP16, literal(-8)))
          CFI (cfiCond125) V7 load(1, XDATA, add(CFA_XSP16, literal(-7)))
          CFI (cfiCond125) R7 load(1, XDATA, add(CFA_XSP16, literal(-6)))
          CFI (cfiCond125) ?RET_LOW load(1, XDATA, add(CFA_XSP16, literal(-5)))
          CFI (cfiCond125) ?RET_HIGH load(1, XDATA, add(CFA_XSP16, literal(-4)))
          CFI (cfiCond125) ?BRET_EXT load(1, XDATA, add(CFA_XSP16, literal(-3)))
          CFI (cfiCond125) DPL0 load(1, XDATA, add(CFA_XSP16, literal(-2)))
          CFI (cfiCond125) DPH0 load(1, XDATA, add(CFA_XSP16, literal(-1)))
          CFI (cfiCond125) CFA_SP SP+-2
          CFI (cfiCond125) CFA_XSP16 add(XSP16, 23)
          CFI Block cfiCond126 Using cfiCommon0
          CFI (cfiCond126) Function osal_nv_item_len
          CFI (cfiCond126) Conditional ??CrossCallReturnLabel_118
          CFI (cfiCond126) R6 load(1, XDATA, add(CFA_XSP16, literal(-10)))
          CFI (cfiCond126) VB load(1, XDATA, add(CFA_XSP16, literal(-9)))
          CFI (cfiCond126) V0 load(1, XDATA, add(CFA_XSP16, literal(-8)))
          CFI (cfiCond126) V1 load(1, XDATA, add(CFA_XSP16, literal(-7)))
          CFI (cfiCond126) R7 load(1, XDATA, add(CFA_XSP16, literal(-6)))
          CFI (cfiCond126) ?RET_LOW load(1, XDATA, add(CFA_XSP16, literal(-5)))
          CFI (cfiCond126) ?RET_HIGH load(1, XDATA, add(CFA_XSP16, literal(-4)))
          CFI (cfiCond126) ?BRET_EXT load(1, XDATA, add(CFA_XSP16, literal(-3)))
          CFI (cfiCond126) DPL0 load(1, XDATA, add(CFA_XSP16, literal(-2)))
          CFI (cfiCond126) DPH0 load(1, XDATA, add(CFA_XSP16, literal(-1)))
          CFI (cfiCond126) CFA_SP SP+-2
          CFI (cfiCond126) CFA_XSP16 add(XSP16, 20)
          CFI Block cfiCond127 Using cfiCommon0
          CFI (cfiCond127) Function osal_nv_write
          CFI (cfiCond127) Conditional ??CrossCallReturnLabel_119
          CFI (cfiCond127) R6 load(1, XDATA, add(CFA_XSP16, literal(-16)))
          CFI (cfiCond127) VB load(1, XDATA, add(CFA_XSP16, literal(-15)))
          CFI (cfiCond127) V0 load(1, XDATA, add(CFA_XSP16, literal(-14)))
          CFI (cfiCond127) V1 load(1, XDATA, add(CFA_XSP16, literal(-13)))
          CFI (cfiCond127) V2 load(1, XDATA, add(CFA_XSP16, literal(-12)))
          CFI (cfiCond127) V3 load(1, XDATA, add(CFA_XSP16, literal(-11)))
          CFI (cfiCond127) V4 load(1, XDATA, add(CFA_XSP16, literal(-10)))
          CFI (cfiCond127) V5 load(1, XDATA, add(CFA_XSP16, literal(-9)))
          CFI (cfiCond127) V6 load(1, XDATA, add(CFA_XSP16, literal(-8)))
          CFI (cfiCond127) V7 load(1, XDATA, add(CFA_XSP16, literal(-7)))
          CFI (cfiCond127) R7 load(1, XDATA, add(CFA_XSP16, literal(-6)))
          CFI (cfiCond127) ?RET_LOW load(1, XDATA, add(CFA_XSP16, literal(-5)))
          CFI (cfiCond127) ?RET_HIGH load(1, XDATA, add(CFA_XSP16, literal(-4)))
          CFI (cfiCond127) ?BRET_EXT load(1, XDATA, add(CFA_XSP16, literal(-3)))
          CFI (cfiCond127) DPL0 load(1, XDATA, add(CFA_XSP16, literal(-2)))
          CFI (cfiCond127) DPH0 load(1, XDATA, add(CFA_XSP16, literal(-1)))
          CFI (cfiCond127) CFA_SP SP+-2
          CFI (cfiCond127) CFA_XSP16 add(XSP16, 37)
          CFI Block cfiCond128 Using cfiCommon0
          CFI (cfiCond128) Function osal_nv_write
          CFI (cfiCond128) Conditional ??CrossCallReturnLabel_120
          CFI (cfiCond128) R6 load(1, XDATA, add(CFA_XSP16, literal(-16)))
          CFI (cfiCond128) VB load(1, XDATA, add(CFA_XSP16, literal(-15)))
          CFI (cfiCond128) V0 load(1, XDATA, add(CFA_XSP16, literal(-14)))
          CFI (cfiCond128) V1 load(1, XDATA, add(CFA_XSP16, literal(-13)))
          CFI (cfiCond128) V2 load(1, XDATA, add(CFA_XSP16, literal(-12)))
          CFI (cfiCond128) V3 load(1, XDATA, add(CFA_XSP16, literal(-11)))
          CFI (cfiCond128) V4 load(1, XDATA, add(CFA_XSP16, literal(-10)))
          CFI (cfiCond128) V5 load(1, XDATA, add(CFA_XSP16, literal(-9)))
          CFI (cfiCond128) V6 load(1, XDATA, add(CFA_XSP16, literal(-8)))
          CFI (cfiCond128) V7 load(1, XDATA, add(CFA_XSP16, literal(-7)))
          CFI (cfiCond128) R7 load(1, XDATA, add(CFA_XSP16, literal(-6)))
          CFI (cfiCond128) ?RET_LOW load(1, XDATA, add(CFA_XSP16, literal(-5)))
          CFI (cfiCond128) ?RET_HIGH load(1, XDATA, add(CFA_XSP16, literal(-4)))
          CFI (cfiCond128) ?BRET_EXT load(1, XDATA, add(CFA_XSP16, literal(-3)))
          CFI (cfiCond128) DPL0 load(1, XDATA, add(CFA_XSP16, literal(-2)))
          CFI (cfiCond128) DPH0 load(1, XDATA, add(CFA_XSP16, literal(-1)))
          CFI (cfiCond128) CFA_SP SP+-2
          CFI (cfiCond128) CFA_XSP16 add(XSP16, 37)
          CFI Block cfiCond129 Using cfiCommon0
          CFI (cfiCond129) Function osal_nv_read
          CFI (cfiCond129) Conditional ??CrossCallReturnLabel_121
          CFI (cfiCond129) R6 load(1, XDATA, add(CFA_XSP16, literal(-16)))
          CFI (cfiCond129) VB load(1, XDATA, add(CFA_XSP16, literal(-15)))
          CFI (cfiCond129) V0 load(1, XDATA, add(CFA_XSP16, literal(-14)))
          CFI (cfiCond129) V1 load(1, XDATA, add(CFA_XSP16, literal(-13)))
          CFI (cfiCond129) V2 load(1, XDATA, add(CFA_XSP16, literal(-12)))
          CFI (cfiCond129) V3 load(1, XDATA, add(CFA_XSP16, literal(-11)))
          CFI (cfiCond129) V4 load(1, XDATA, add(CFA_XSP16, literal(-10)))
          CFI (cfiCond129) V5 load(1, XDATA, add(CFA_XSP16, literal(-9)))
          CFI (cfiCond129) V6 load(1, XDATA, add(CFA_XSP16, literal(-8)))
          CFI (cfiCond129) V7 load(1, XDATA, add(CFA_XSP16, literal(-7)))
          CFI (cfiCond129) R7 load(1, XDATA, add(CFA_XSP16, literal(-6)))
          CFI (cfiCond129) ?RET_LOW load(1, XDATA, add(CFA_XSP16, literal(-5)))
          CFI (cfiCond129) ?RET_HIGH load(1, XDATA, add(CFA_XSP16, literal(-4)))
          CFI (cfiCond129) ?BRET_EXT load(1, XDATA, add(CFA_XSP16, literal(-3)))
          CFI (cfiCond129) DPL0 load(1, XDATA, add(CFA_XSP16, literal(-2)))
          CFI (cfiCond129) DPH0 load(1, XDATA, add(CFA_XSP16, literal(-1)))
          CFI (cfiCond129) CFA_SP SP+-2
          CFI (cfiCond129) CFA_XSP16 add(XSP16, 18)
          CFI Block cfiPicker130 Using cfiCommon1
          CFI (cfiPicker130) NoFunction
          CFI (cfiPicker130) Picker
        MOVX      A,@DPTR
          CFI EndBlock cfiCond122
          CFI EndBlock cfiCond123
          CFI EndBlock cfiCond124
          CFI EndBlock cfiCond125
          CFI EndBlock cfiCond126
          CFI EndBlock cfiCond127
          CFI EndBlock cfiCond128
          CFI EndBlock cfiCond129
          CFI EndBlock cfiPicker130
        REQUIRE ??Subroutine57_0
        ; // Fall through to label ??Subroutine57_0

        RSEG BANKED_CODE:HUGECODE:NOROOT(0)
??Subroutine57_0:
          CFI Block cfiCond131 Using cfiCommon0
          CFI Function initNV
          CFI Conditional ??CrossCallReturnLabel_122
          CFI R6 load(1, XDATA, add(CFA_XSP16, literal(-12)))
          CFI VB load(1, XDATA, add(CFA_XSP16, literal(-11)))
          CFI V0 load(1, XDATA, add(CFA_XSP16, literal(-10)))
          CFI V1 load(1, XDATA, add(CFA_XSP16, literal(-9)))
          CFI V2 load(1, XDATA, add(CFA_XSP16, literal(-8)))
          CFI V3 load(1, XDATA, add(CFA_XSP16, literal(-7)))
          CFI R7 load(1, XDATA, add(CFA_XSP16, literal(-6)))
          CFI ?RET_LOW load(1, XDATA, add(CFA_XSP16, literal(-5)))
          CFI ?RET_HIGH load(1, XDATA, add(CFA_XSP16, literal(-4)))
          CFI ?BRET_EXT load(1, XDATA, add(CFA_XSP16, literal(-3)))
          CFI DPL0 load(1, XDATA, add(CFA_XSP16, literal(-2)))
          CFI DPH0 load(1, XDATA, add(CFA_XSP16, literal(-1)))
          CFI CFA_SP SP+-2
          CFI CFA_XSP16 add(XSP16, 22)
          CFI Block cfiCond132 Using cfiCommon0
          CFI (cfiCond132) Function initItem
          CFI (cfiCond132) Conditional ??CrossCallReturnLabel_123
          CFI (cfiCond132) R6 load(1, XDATA, add(CFA_XSP16, literal(-16)))
          CFI (cfiCond132) VB load(1, XDATA, add(CFA_XSP16, literal(-15)))
          CFI (cfiCond132) V0 load(1, XDATA, add(CFA_XSP16, literal(-14)))
          CFI (cfiCond132) V1 load(1, XDATA, add(CFA_XSP16, literal(-13)))
          CFI (cfiCond132) V2 load(1, XDATA, add(CFA_XSP16, literal(-12)))
          CFI (cfiCond132) V3 load(1, XDATA, add(CFA_XSP16, literal(-11)))
          CFI (cfiCond132) V4 load(1, XDATA, add(CFA_XSP16, literal(-10)))
          CFI (cfiCond132) V5 load(1, XDATA, add(CFA_XSP16, literal(-9)))
          CFI (cfiCond132) V6 load(1, XDATA, add(CFA_XSP16, literal(-8)))
          CFI (cfiCond132) V7 load(1, XDATA, add(CFA_XSP16, literal(-7)))
          CFI (cfiCond132) R7 load(1, XDATA, add(CFA_XSP16, literal(-6)))
          CFI (cfiCond132) ?RET_LOW load(1, XDATA, add(CFA_XSP16, literal(-5)))
          CFI (cfiCond132) ?RET_HIGH load(1, XDATA, add(CFA_XSP16, literal(-4)))
          CFI (cfiCond132) ?BRET_EXT load(1, XDATA, add(CFA_XSP16, literal(-3)))
          CFI (cfiCond132) DPL0 load(1, XDATA, add(CFA_XSP16, literal(-2)))
          CFI (cfiCond132) DPH0 load(1, XDATA, add(CFA_XSP16, literal(-1)))
          CFI (cfiCond132) CFA_SP SP+-2
          CFI (cfiCond132) CFA_XSP16 add(XSP16, 28)
          CFI Block cfiCond133 Using cfiCommon0
          CFI (cfiCond133) Function compactPage
          CFI (cfiCond133) Conditional ??CrossCallReturnLabel_114
          CFI (cfiCond133) R6 load(1, XDATA, add(CFA_XSP16, literal(-15)))
          CFI (cfiCond133) VB load(1, XDATA, add(CFA_XSP16, literal(-14)))
          CFI (cfiCond133) V0 load(1, XDATA, add(CFA_XSP16, literal(-13)))
          CFI (cfiCond133) V1 load(1, XDATA, add(CFA_XSP16, literal(-12)))
          CFI (cfiCond133) V2 load(1, XDATA, add(CFA_XSP16, literal(-11)))
          CFI (cfiCond133) V3 load(1, XDATA, add(CFA_XSP16, literal(-10)))
          CFI (cfiCond133) V4 load(1, XDATA, add(CFA_XSP16, literal(-9)))
          CFI (cfiCond133) V5 load(1, XDATA, add(CFA_XSP16, literal(-8)))
          CFI (cfiCond133) V6 load(1, XDATA, add(CFA_XSP16, literal(-7)))
          CFI (cfiCond133) R7 load(1, XDATA, add(CFA_XSP16, literal(-6)))
          CFI (cfiCond133) ?RET_LOW load(1, XDATA, add(CFA_XSP16, literal(-5)))
          CFI (cfiCond133) ?RET_HIGH load(1, XDATA, add(CFA_XSP16, literal(-4)))
          CFI (cfiCond133) ?BRET_EXT load(1, XDATA, add(CFA_XSP16, literal(-3)))
          CFI (cfiCond133) DPL0 load(1, XDATA, add(CFA_XSP16, literal(-2)))
          CFI (cfiCond133) DPH0 load(1, XDATA, add(CFA_XSP16, literal(-1)))
          CFI (cfiCond133) CFA_SP SP+-2
          CFI (cfiCond133) CFA_XSP16 add(XSP16, 28)
          CFI Block cfiCond134 Using cfiCommon0
          CFI (cfiCond134) Function xferBuf
          CFI (cfiCond134) Conditional ??CrossCallReturnLabel_115
          CFI (cfiCond134) R6 load(1, XDATA, add(CFA_XSP16, literal(-16)))
          CFI (cfiCond134) VB load(1, XDATA, add(CFA_XSP16, literal(-15)))
          CFI (cfiCond134) V0 load(1, XDATA, add(CFA_XSP16, literal(-14)))
          CFI (cfiCond134) V1 load(1, XDATA, add(CFA_XSP16, literal(-13)))
          CFI (cfiCond134) V2 load(1, XDATA, add(CFA_XSP16, literal(-12)))
          CFI (cfiCond134) V3 load(1, XDATA, add(CFA_XSP16, literal(-11)))
          CFI (cfiCond134) V4 load(1, XDATA, add(CFA_XSP16, literal(-10)))
          CFI (cfiCond134) V5 load(1, XDATA, add(CFA_XSP16, literal(-9)))
          CFI (cfiCond134) V6 load(1, XDATA, add(CFA_XSP16, literal(-8)))
          CFI (cfiCond134) V7 load(1, XDATA, add(CFA_XSP16, literal(-7)))
          CFI (cfiCond134) R7 load(1, XDATA, add(CFA_XSP16, literal(-6)))
          CFI (cfiCond134) ?RET_LOW load(1, XDATA, add(CFA_XSP16, literal(-5)))
          CFI (cfiCond134) ?RET_HIGH load(1, XDATA, add(CFA_XSP16, literal(-4)))
          CFI (cfiCond134) ?BRET_EXT load(1, XDATA, add(CFA_XSP16, literal(-3)))
          CFI (cfiCond134) DPL0 load(1, XDATA, add(CFA_XSP16, literal(-2)))
          CFI (cfiCond134) DPH0 load(1, XDATA, add(CFA_XSP16, literal(-1)))
          CFI (cfiCond134) CFA_SP SP+-2
          CFI (cfiCond134) CFA_XSP16 add(XSP16, 23)
          CFI Block cfiCond135 Using cfiCommon0
          CFI (cfiCond135) Function xferBuf
          CFI (cfiCond135) Conditional ??CrossCallReturnLabel_116
          CFI (cfiCond135) R6 load(1, XDATA, add(CFA_XSP16, literal(-16)))
          CFI (cfiCond135) VB load(1, XDATA, add(CFA_XSP16, literal(-15)))
          CFI (cfiCond135) V0 load(1, XDATA, add(CFA_XSP16, literal(-14)))
          CFI (cfiCond135) V1 load(1, XDATA, add(CFA_XSP16, literal(-13)))
          CFI (cfiCond135) V2 load(1, XDATA, add(CFA_XSP16, literal(-12)))
          CFI (cfiCond135) V3 load(1, XDATA, add(CFA_XSP16, literal(-11)))
          CFI (cfiCond135) V4 load(1, XDATA, add(CFA_XSP16, literal(-10)))
          CFI (cfiCond135) V5 load(1, XDATA, add(CFA_XSP16, literal(-9)))
          CFI (cfiCond135) V6 load(1, XDATA, add(CFA_XSP16, literal(-8)))
          CFI (cfiCond135) V7 load(1, XDATA, add(CFA_XSP16, literal(-7)))
          CFI (cfiCond135) R7 load(1, XDATA, add(CFA_XSP16, literal(-6)))
          CFI (cfiCond135) ?RET_LOW load(1, XDATA, add(CFA_XSP16, literal(-5)))
          CFI (cfiCond135) ?RET_HIGH load(1, XDATA, add(CFA_XSP16, literal(-4)))
          CFI (cfiCond135) ?BRET_EXT load(1, XDATA, add(CFA_XSP16, literal(-3)))
          CFI (cfiCond135) DPL0 load(1, XDATA, add(CFA_XSP16, literal(-2)))
          CFI (cfiCond135) DPH0 load(1, XDATA, add(CFA_XSP16, literal(-1)))
          CFI (cfiCond135) CFA_SP SP+-2
          CFI (cfiCond135) CFA_XSP16 add(XSP16, 23)
          CFI Block cfiCond136 Using cfiCommon0
          CFI (cfiCond136) Function xferBuf
          CFI (cfiCond136) Conditional ??CrossCallReturnLabel_117
          CFI (cfiCond136) R6 load(1, XDATA, add(CFA_XSP16, literal(-16)))
          CFI (cfiCond136) VB load(1, XDATA, add(CFA_XSP16, literal(-15)))
          CFI (cfiCond136) V0 load(1, XDATA, add(CFA_XSP16, literal(-14)))
          CFI (cfiCond136) V1 load(1, XDATA, add(CFA_XSP16, literal(-13)))
          CFI (cfiCond136) V2 load(1, XDATA, add(CFA_XSP16, literal(-12)))
          CFI (cfiCond136) V3 load(1, XDATA, add(CFA_XSP16, literal(-11)))
          CFI (cfiCond136) V4 load(1, XDATA, add(CFA_XSP16, literal(-10)))
          CFI (cfiCond136) V5 load(1, XDATA, add(CFA_XSP16, literal(-9)))
          CFI (cfiCond136) V6 load(1, XDATA, add(CFA_XSP16, literal(-8)))
          CFI (cfiCond136) V7 load(1, XDATA, add(CFA_XSP16, literal(-7)))
          CFI (cfiCond136) R7 load(1, XDATA, add(CFA_XSP16, literal(-6)))
          CFI (cfiCond136) ?RET_LOW load(1, XDATA, add(CFA_XSP16, literal(-5)))
          CFI (cfiCond136) ?RET_HIGH load(1, XDATA, add(CFA_XSP16, literal(-4)))
          CFI (cfiCond136) ?BRET_EXT load(1, XDATA, add(CFA_XSP16, literal(-3)))
          CFI (cfiCond136) DPL0 load(1, XDATA, add(CFA_XSP16, literal(-2)))
          CFI (cfiCond136) DPH0 load(1, XDATA, add(CFA_XSP16, literal(-1)))
          CFI (cfiCond136) CFA_SP SP+-2
          CFI (cfiCond136) CFA_XSP16 add(XSP16, 23)
          CFI Block cfiCond137 Using cfiCommon0
          CFI (cfiCond137) Function osal_nv_item_len
          CFI (cfiCond137) Conditional ??CrossCallReturnLabel_118
          CFI (cfiCond137) R6 load(1, XDATA, add(CFA_XSP16, literal(-10)))
          CFI (cfiCond137) VB load(1, XDATA, add(CFA_XSP16, literal(-9)))
          CFI (cfiCond137) V0 load(1, XDATA, add(CFA_XSP16, literal(-8)))
          CFI (cfiCond137) V1 load(1, XDATA, add(CFA_XSP16, literal(-7)))
          CFI (cfiCond137) R7 load(1, XDATA, add(CFA_XSP16, literal(-6)))
          CFI (cfiCond137) ?RET_LOW load(1, XDATA, add(CFA_XSP16, literal(-5)))
          CFI (cfiCond137) ?RET_HIGH load(1, XDATA, add(CFA_XSP16, literal(-4)))
          CFI (cfiCond137) ?BRET_EXT load(1, XDATA, add(CFA_XSP16, literal(-3)))
          CFI (cfiCond137) DPL0 load(1, XDATA, add(CFA_XSP16, literal(-2)))
          CFI (cfiCond137) DPH0 load(1, XDATA, add(CFA_XSP16, literal(-1)))
          CFI (cfiCond137) CFA_SP SP+-2
          CFI (cfiCond137) CFA_XSP16 add(XSP16, 20)
          CFI Block cfiCond138 Using cfiCommon0
          CFI (cfiCond138) Function osal_nv_write
          CFI (cfiCond138) Conditional ??CrossCallReturnLabel_119
          CFI (cfiCond138) R6 load(1, XDATA, add(CFA_XSP16, literal(-16)))
          CFI (cfiCond138) VB load(1, XDATA, add(CFA_XSP16, literal(-15)))
          CFI (cfiCond138) V0 load(1, XDATA, add(CFA_XSP16, literal(-14)))
          CFI (cfiCond138) V1 load(1, XDATA, add(CFA_XSP16, literal(-13)))
          CFI (cfiCond138) V2 load(1, XDATA, add(CFA_XSP16, literal(-12)))
          CFI (cfiCond138) V3 load(1, XDATA, add(CFA_XSP16, literal(-11)))
          CFI (cfiCond138) V4 load(1, XDATA, add(CFA_XSP16, literal(-10)))
          CFI (cfiCond138) V5 load(1, XDATA, add(CFA_XSP16, literal(-9)))
          CFI (cfiCond138) V6 load(1, XDATA, add(CFA_XSP16, literal(-8)))
          CFI (cfiCond138) V7 load(1, XDATA, add(CFA_XSP16, literal(-7)))
          CFI (cfiCond138) R7 load(1, XDATA, add(CFA_XSP16, literal(-6)))
          CFI (cfiCond138) ?RET_LOW load(1, XDATA, add(CFA_XSP16, literal(-5)))
          CFI (cfiCond138) ?RET_HIGH load(1, XDATA, add(CFA_XSP16, literal(-4)))
          CFI (cfiCond138) ?BRET_EXT load(1, XDATA, add(CFA_XSP16, literal(-3)))
          CFI (cfiCond138) DPL0 load(1, XDATA, add(CFA_XSP16, literal(-2)))
          CFI (cfiCond138) DPH0 load(1, XDATA, add(CFA_XSP16, literal(-1)))
          CFI (cfiCond138) CFA_SP SP+-2
          CFI (cfiCond138) CFA_XSP16 add(XSP16, 37)
          CFI Block cfiCond139 Using cfiCommon0
          CFI (cfiCond139) Function osal_nv_write
          CFI (cfiCond139) Conditional ??CrossCallReturnLabel_120
          CFI (cfiCond139) R6 load(1, XDATA, add(CFA_XSP16, literal(-16)))
          CFI (cfiCond139) VB load(1, XDATA, add(CFA_XSP16, literal(-15)))
          CFI (cfiCond139) V0 load(1, XDATA, add(CFA_XSP16, literal(-14)))
          CFI (cfiCond139) V1 load(1, XDATA, add(CFA_XSP16, literal(-13)))
          CFI (cfiCond139) V2 load(1, XDATA, add(CFA_XSP16, literal(-12)))
          CFI (cfiCond139) V3 load(1, XDATA, add(CFA_XSP16, literal(-11)))
          CFI (cfiCond139) V4 load(1, XDATA, add(CFA_XSP16, literal(-10)))
          CFI (cfiCond139) V5 load(1, XDATA, add(CFA_XSP16, literal(-9)))
          CFI (cfiCond139) V6 load(1, XDATA, add(CFA_XSP16, literal(-8)))
          CFI (cfiCond139) V7 load(1, XDATA, add(CFA_XSP16, literal(-7)))
          CFI (cfiCond139) R7 load(1, XDATA, add(CFA_XSP16, literal(-6)))
          CFI (cfiCond139) ?RET_LOW load(1, XDATA, add(CFA_XSP16, literal(-5)))
          CFI (cfiCond139) ?RET_HIGH load(1, XDATA, add(CFA_XSP16, literal(-4)))
          CFI (cfiCond139) ?BRET_EXT load(1, XDATA, add(CFA_XSP16, literal(-3)))
          CFI (cfiCond139) DPL0 load(1, XDATA, add(CFA_XSP16, literal(-2)))
          CFI (cfiCond139) DPH0 load(1, XDATA, add(CFA_XSP16, literal(-1)))
          CFI (cfiCond139) CFA_SP SP+-2
          CFI (cfiCond139) CFA_XSP16 add(XSP16, 37)
          CFI Block cfiCond140 Using cfiCommon0
          CFI (cfiCond140) Function osal_nv_read
          CFI (cfiCond140) Conditional ??CrossCallReturnLabel_121
          CFI (cfiCond140) R6 load(1, XDATA, add(CFA_XSP16, literal(-16)))
          CFI (cfiCond140) VB load(1, XDATA, add(CFA_XSP16, literal(-15)))
          CFI (cfiCond140) V0 load(1, XDATA, add(CFA_XSP16, literal(-14)))
          CFI (cfiCond140) V1 load(1, XDATA, add(CFA_XSP16, literal(-13)))
          CFI (cfiCond140) V2 load(1, XDATA, add(CFA_XSP16, literal(-12)))
          CFI (cfiCond140) V3 load(1, XDATA, add(CFA_XSP16, literal(-11)))
          CFI (cfiCond140) V4 load(1, XDATA, add(CFA_XSP16, literal(-10)))
          CFI (cfiCond140) V5 load(1, XDATA, add(CFA_XSP16, literal(-9)))
          CFI (cfiCond140) V6 load(1, XDATA, add(CFA_XSP16, literal(-8)))
          CFI (cfiCond140) V7 load(1, XDATA, add(CFA_XSP16, literal(-7)))
          CFI (cfiCond140) R7 load(1, XDATA, add(CFA_XSP16, literal(-6)))
          CFI (cfiCond140) ?RET_LOW load(1, XDATA, add(CFA_XSP16, literal(-5)))
          CFI (cfiCond140) ?RET_HIGH load(1, XDATA, add(CFA_XSP16, literal(-4)))
          CFI (cfiCond140) ?BRET_EXT load(1, XDATA, add(CFA_XSP16, literal(-3)))
          CFI (cfiCond140) DPL0 load(1, XDATA, add(CFA_XSP16, literal(-2)))
          CFI (cfiCond140) DPH0 load(1, XDATA, add(CFA_XSP16, literal(-1)))
          CFI (cfiCond140) CFA_SP SP+-2
          CFI (cfiCond140) CFA_XSP16 add(XSP16, 18)
          CFI Block cfiPicker141 Using cfiCommon1
          CFI (cfiPicker141) NoFunction
          CFI (cfiPicker141) Picker
        MOV       R1,A
          CFI EndBlock cfiCond131
          CFI EndBlock cfiCond132
          CFI EndBlock cfiCond133
          CFI EndBlock cfiCond134
          CFI EndBlock cfiCond135
          CFI EndBlock cfiCond136
          CFI EndBlock cfiCond137
          CFI EndBlock cfiCond138
          CFI EndBlock cfiCond139
          CFI EndBlock cfiCond140
          CFI EndBlock cfiPicker141
        REQUIRE ??Subroutine58_0
        ; // Fall through to label ??Subroutine58_0

        RSEG BANKED_CODE:HUGECODE:NOROOT(0)
??Subroutine58_0:
          CFI Block cfiCond142 Using cfiCommon0
          CFI Function initPage
          CFI Conditional ??CrossCallReturnLabel_124
          CFI R6 load(1, XDATA, add(CFA_XSP16, literal(-16)))
          CFI VB load(1, XDATA, add(CFA_XSP16, literal(-15)))
          CFI V0 load(1, XDATA, add(CFA_XSP16, literal(-14)))
          CFI V1 load(1, XDATA, add(CFA_XSP16, literal(-13)))
          CFI V2 load(1, XDATA, add(CFA_XSP16, literal(-12)))
          CFI V3 load(1, XDATA, add(CFA_XSP16, literal(-11)))
          CFI V4 load(1, XDATA, add(CFA_XSP16, literal(-10)))
          CFI V5 load(1, XDATA, add(CFA_XSP16, literal(-9)))
          CFI V6 load(1, XDATA, add(CFA_XSP16, literal(-8)))
          CFI V7 load(1, XDATA, add(CFA_XSP16, literal(-7)))
          CFI R7 load(1, XDATA, add(CFA_XSP16, literal(-6)))
          CFI ?RET_LOW load(1, XDATA, add(CFA_XSP16, literal(-5)))
          CFI ?RET_HIGH load(1, XDATA, add(CFA_XSP16, literal(-4)))
          CFI ?BRET_EXT load(1, XDATA, add(CFA_XSP16, literal(-3)))
          CFI DPL0 load(1, XDATA, add(CFA_XSP16, literal(-2)))
          CFI DPH0 load(1, XDATA, add(CFA_XSP16, literal(-1)))
          CFI CFA_SP SP+-2
          CFI CFA_XSP16 add(XSP16, 28)
          CFI Block cfiCond143 Using cfiCommon0
          CFI (cfiCond143) Function compactPage
          CFI (cfiCond143) Conditional ??CrossCallReturnLabel_125
          CFI (cfiCond143) R6 load(1, XDATA, add(CFA_XSP16, literal(-15)))
          CFI (cfiCond143) VB load(1, XDATA, add(CFA_XSP16, literal(-14)))
          CFI (cfiCond143) V0 load(1, XDATA, add(CFA_XSP16, literal(-13)))
          CFI (cfiCond143) V1 load(1, XDATA, add(CFA_XSP16, literal(-12)))
          CFI (cfiCond143) V2 load(1, XDATA, add(CFA_XSP16, literal(-11)))
          CFI (cfiCond143) V3 load(1, XDATA, add(CFA_XSP16, literal(-10)))
          CFI (cfiCond143) V4 load(1, XDATA, add(CFA_XSP16, literal(-9)))
          CFI (cfiCond143) V5 load(1, XDATA, add(CFA_XSP16, literal(-8)))
          CFI (cfiCond143) V6 load(1, XDATA, add(CFA_XSP16, literal(-7)))
          CFI (cfiCond143) R7 load(1, XDATA, add(CFA_XSP16, literal(-6)))
          CFI (cfiCond143) ?RET_LOW load(1, XDATA, add(CFA_XSP16, literal(-5)))
          CFI (cfiCond143) ?RET_HIGH load(1, XDATA, add(CFA_XSP16, literal(-4)))
          CFI (cfiCond143) ?BRET_EXT load(1, XDATA, add(CFA_XSP16, literal(-3)))
          CFI (cfiCond143) DPL0 load(1, XDATA, add(CFA_XSP16, literal(-2)))
          CFI (cfiCond143) DPH0 load(1, XDATA, add(CFA_XSP16, literal(-1)))
          CFI (cfiCond143) CFA_SP SP+-2
          CFI (cfiCond143) CFA_XSP16 add(XSP16, 28)
          CFI Block cfiCond144 Using cfiCommon0
          CFI (cfiCond144) Function setItem
          CFI (cfiCond144) Conditional ??CrossCallReturnLabel_126
          CFI (cfiCond144) R6 load(1, XDATA, add(CFA_XSP16, literal(-14)))
          CFI (cfiCond144) VB load(1, XDATA, add(CFA_XSP16, literal(-13)))
          CFI (cfiCond144) V0 load(1, XDATA, add(CFA_XSP16, literal(-12)))
          CFI (cfiCond144) V1 load(1, XDATA, add(CFA_XSP16, literal(-11)))
          CFI (cfiCond144) V2 load(1, XDATA, add(CFA_XSP16, literal(-10)))
          CFI (cfiCond144) V3 load(1, XDATA, add(CFA_XSP16, literal(-9)))
          CFI (cfiCond144) V4 load(1, XDATA, add(CFA_XSP16, literal(-8)))
          CFI (cfiCond144) V5 load(1, XDATA, add(CFA_XSP16, literal(-7)))
          CFI (cfiCond144) R7 load(1, XDATA, add(CFA_XSP16, literal(-6)))
          CFI (cfiCond144) ?RET_LOW load(1, XDATA, add(CFA_XSP16, literal(-5)))
          CFI (cfiCond144) ?RET_HIGH load(1, XDATA, add(CFA_XSP16, literal(-4)))
          CFI (cfiCond144) ?BRET_EXT load(1, XDATA, add(CFA_XSP16, literal(-3)))
          CFI (cfiCond144) DPL0 load(1, XDATA, add(CFA_XSP16, literal(-2)))
          CFI (cfiCond144) DPH0 load(1, XDATA, add(CFA_XSP16, literal(-1)))
          CFI (cfiCond144) CFA_SP SP+-2
          CFI (cfiCond144) CFA_XSP16 add(XSP16, 24)
          CFI Block cfiCond145 Using cfiCommon0
          CFI (cfiCond145) Function setChk
          CFI (cfiCond145) Conditional ??CrossCallReturnLabel_127
          CFI (cfiCond145) R6 load(1, XDATA, add(CFA_XSP16, literal(-12)))
          CFI (cfiCond145) VB load(1, XDATA, add(CFA_XSP16, literal(-11)))
          CFI (cfiCond145) V0 load(1, XDATA, add(CFA_XSP16, literal(-10)))
          CFI (cfiCond145) V1 load(1, XDATA, add(CFA_XSP16, literal(-9)))
          CFI (cfiCond145) V2 load(1, XDATA, add(CFA_XSP16, literal(-8)))
          CFI (cfiCond145) V3 load(1, XDATA, add(CFA_XSP16, literal(-7)))
          CFI (cfiCond145) R7 load(1, XDATA, add(CFA_XSP16, literal(-6)))
          CFI (cfiCond145) ?RET_LOW load(1, XDATA, add(CFA_XSP16, literal(-5)))
          CFI (cfiCond145) ?RET_HIGH load(1, XDATA, add(CFA_XSP16, literal(-4)))
          CFI (cfiCond145) ?BRET_EXT load(1, XDATA, add(CFA_XSP16, literal(-3)))
          CFI (cfiCond145) DPL0 load(1, XDATA, add(CFA_XSP16, literal(-2)))
          CFI (cfiCond145) DPH0 load(1, XDATA, add(CFA_XSP16, literal(-1)))
          CFI (cfiCond145) CFA_SP SP+-2
          CFI (cfiCond145) CFA_XSP16 add(XSP16, 16)
          CFI Block cfiCond146 Using cfiCommon0
          CFI (cfiCond146) Function calcChkF
          CFI (cfiCond146) Conditional ??CrossCallReturnLabel_128
          CFI (cfiCond146) R6 load(1, XDATA, add(CFA_XSP16, literal(-15)))
          CFI (cfiCond146) VB load(1, XDATA, add(CFA_XSP16, literal(-14)))
          CFI (cfiCond146) V0 load(1, XDATA, add(CFA_XSP16, literal(-13)))
          CFI (cfiCond146) V1 load(1, XDATA, add(CFA_XSP16, literal(-12)))
          CFI (cfiCond146) V2 load(1, XDATA, add(CFA_XSP16, literal(-11)))
          CFI (cfiCond146) V3 load(1, XDATA, add(CFA_XSP16, literal(-10)))
          CFI (cfiCond146) V4 load(1, XDATA, add(CFA_XSP16, literal(-9)))
          CFI (cfiCond146) V5 load(1, XDATA, add(CFA_XSP16, literal(-8)))
          CFI (cfiCond146) V6 load(1, XDATA, add(CFA_XSP16, literal(-7)))
          CFI (cfiCond146) R7 load(1, XDATA, add(CFA_XSP16, literal(-6)))
          CFI (cfiCond146) ?RET_LOW load(1, XDATA, add(CFA_XSP16, literal(-5)))
          CFI (cfiCond146) ?RET_HIGH load(1, XDATA, add(CFA_XSP16, literal(-4)))
          CFI (cfiCond146) ?BRET_EXT load(1, XDATA, add(CFA_XSP16, literal(-3)))
          CFI (cfiCond146) DPL0 load(1, XDATA, add(CFA_XSP16, literal(-2)))
          CFI (cfiCond146) DPH0 load(1, XDATA, add(CFA_XSP16, literal(-1)))
          CFI (cfiCond146) CFA_SP SP+-2
          CFI (cfiCond146) CFA_XSP16 add(XSP16, 21)
          CFI Block cfiCond147 Using cfiCommon0
          CFI (cfiCond147) Function writeBuf
          CFI (cfiCond147) Conditional ??CrossCallReturnLabel_129
          CFI (cfiCond147) R6 load(1, XDATA, add(CFA_XSP16, literal(-16)))
          CFI (cfiCond147) VB load(1, XDATA, add(CFA_XSP16, literal(-15)))
          CFI (cfiCond147) V0 load(1, XDATA, add(CFA_XSP16, literal(-14)))
          CFI (cfiCond147) V1 load(1, XDATA, add(CFA_XSP16, literal(-13)))
          CFI (cfiCond147) V2 load(1, XDATA, add(CFA_XSP16, literal(-12)))
          CFI (cfiCond147) V3 load(1, XDATA, add(CFA_XSP16, literal(-11)))
          CFI (cfiCond147) V4 load(1, XDATA, add(CFA_XSP16, literal(-10)))
          CFI (cfiCond147) V5 load(1, XDATA, add(CFA_XSP16, literal(-9)))
          CFI (cfiCond147) V6 load(1, XDATA, add(CFA_XSP16, literal(-8)))
          CFI (cfiCond147) V7 load(1, XDATA, add(CFA_XSP16, literal(-7)))
          CFI (cfiCond147) R7 load(1, XDATA, add(CFA_XSP16, literal(-6)))
          CFI (cfiCond147) ?RET_LOW load(1, XDATA, add(CFA_XSP16, literal(-5)))
          CFI (cfiCond147) ?RET_HIGH load(1, XDATA, add(CFA_XSP16, literal(-4)))
          CFI (cfiCond147) ?BRET_EXT load(1, XDATA, add(CFA_XSP16, literal(-3)))
          CFI (cfiCond147) DPL0 load(1, XDATA, add(CFA_XSP16, literal(-2)))
          CFI (cfiCond147) DPH0 load(1, XDATA, add(CFA_XSP16, literal(-1)))
          CFI (cfiCond147) CFA_SP SP+-2
          CFI (cfiCond147) CFA_XSP16 add(XSP16, 22)
          CFI Block cfiCond148 Using cfiCommon0
          CFI (cfiCond148) Function writeBuf
          CFI (cfiCond148) Conditional ??CrossCallReturnLabel_130
          CFI (cfiCond148) R6 load(1, XDATA, add(CFA_XSP16, literal(-16)))
          CFI (cfiCond148) VB load(1, XDATA, add(CFA_XSP16, literal(-15)))
          CFI (cfiCond148) V0 load(1, XDATA, add(CFA_XSP16, literal(-14)))
          CFI (cfiCond148) V1 load(1, XDATA, add(CFA_XSP16, literal(-13)))
          CFI (cfiCond148) V2 load(1, XDATA, add(CFA_XSP16, literal(-12)))
          CFI (cfiCond148) V3 load(1, XDATA, add(CFA_XSP16, literal(-11)))
          CFI (cfiCond148) V4 load(1, XDATA, add(CFA_XSP16, literal(-10)))
          CFI (cfiCond148) V5 load(1, XDATA, add(CFA_XSP16, literal(-9)))
          CFI (cfiCond148) V6 load(1, XDATA, add(CFA_XSP16, literal(-8)))
          CFI (cfiCond148) V7 load(1, XDATA, add(CFA_XSP16, literal(-7)))
          CFI (cfiCond148) R7 load(1, XDATA, add(CFA_XSP16, literal(-6)))
          CFI (cfiCond148) ?RET_LOW load(1, XDATA, add(CFA_XSP16, literal(-5)))
          CFI (cfiCond148) ?RET_HIGH load(1, XDATA, add(CFA_XSP16, literal(-4)))
          CFI (cfiCond148) ?BRET_EXT load(1, XDATA, add(CFA_XSP16, literal(-3)))
          CFI (cfiCond148) DPL0 load(1, XDATA, add(CFA_XSP16, literal(-2)))
          CFI (cfiCond148) DPH0 load(1, XDATA, add(CFA_XSP16, literal(-1)))
          CFI (cfiCond148) CFA_SP SP+-2
          CFI (cfiCond148) CFA_XSP16 add(XSP16, 22)
          CFI Block cfiCond149 Using cfiCommon0
          CFI (cfiCond149) Function xferBuf
          CFI (cfiCond149) Conditional ??CrossCallReturnLabel_131
          CFI (cfiCond149) R6 load(1, XDATA, add(CFA_XSP16, literal(-16)))
          CFI (cfiCond149) VB load(1, XDATA, add(CFA_XSP16, literal(-15)))
          CFI (cfiCond149) V0 load(1, XDATA, add(CFA_XSP16, literal(-14)))
          CFI (cfiCond149) V1 load(1, XDATA, add(CFA_XSP16, literal(-13)))
          CFI (cfiCond149) V2 load(1, XDATA, add(CFA_XSP16, literal(-12)))
          CFI (cfiCond149) V3 load(1, XDATA, add(CFA_XSP16, literal(-11)))
          CFI (cfiCond149) V4 load(1, XDATA, add(CFA_XSP16, literal(-10)))
          CFI (cfiCond149) V5 load(1, XDATA, add(CFA_XSP16, literal(-9)))
          CFI (cfiCond149) V6 load(1, XDATA, add(CFA_XSP16, literal(-8)))
          CFI (cfiCond149) V7 load(1, XDATA, add(CFA_XSP16, literal(-7)))
          CFI (cfiCond149) R7 load(1, XDATA, add(CFA_XSP16, literal(-6)))
          CFI (cfiCond149) ?RET_LOW load(1, XDATA, add(CFA_XSP16, literal(-5)))
          CFI (cfiCond149) ?RET_HIGH load(1, XDATA, add(CFA_XSP16, literal(-4)))
          CFI (cfiCond149) ?BRET_EXT load(1, XDATA, add(CFA_XSP16, literal(-3)))
          CFI (cfiCond149) DPL0 load(1, XDATA, add(CFA_XSP16, literal(-2)))
          CFI (cfiCond149) DPH0 load(1, XDATA, add(CFA_XSP16, literal(-1)))
          CFI (cfiCond149) CFA_SP SP+-2
          CFI (cfiCond149) CFA_XSP16 add(XSP16, 23)
          CFI Block cfiCond150 Using cfiCommon0
          CFI (cfiCond150) Function xferBuf
          CFI (cfiCond150) Conditional ??CrossCallReturnLabel_132
          CFI (cfiCond150) R6 load(1, XDATA, add(CFA_XSP16, literal(-16)))
          CFI (cfiCond150) VB load(1, XDATA, add(CFA_XSP16, literal(-15)))
          CFI (cfiCond150) V0 load(1, XDATA, add(CFA_XSP16, literal(-14)))
          CFI (cfiCond150) V1 load(1, XDATA, add(CFA_XSP16, literal(-13)))
          CFI (cfiCond150) V2 load(1, XDATA, add(CFA_XSP16, literal(-12)))
          CFI (cfiCond150) V3 load(1, XDATA, add(CFA_XSP16, literal(-11)))
          CFI (cfiCond150) V4 load(1, XDATA, add(CFA_XSP16, literal(-10)))
          CFI (cfiCond150) V5 load(1, XDATA, add(CFA_XSP16, literal(-9)))
          CFI (cfiCond150) V6 load(1, XDATA, add(CFA_XSP16, literal(-8)))
          CFI (cfiCond150) V7 load(1, XDATA, add(CFA_XSP16, literal(-7)))
          CFI (cfiCond150) R7 load(1, XDATA, add(CFA_XSP16, literal(-6)))
          CFI (cfiCond150) ?RET_LOW load(1, XDATA, add(CFA_XSP16, literal(-5)))
          CFI (cfiCond150) ?RET_HIGH load(1, XDATA, add(CFA_XSP16, literal(-4)))
          CFI (cfiCond150) ?BRET_EXT load(1, XDATA, add(CFA_XSP16, literal(-3)))
          CFI (cfiCond150) DPL0 load(1, XDATA, add(CFA_XSP16, literal(-2)))
          CFI (cfiCond150) DPH0 load(1, XDATA, add(CFA_XSP16, literal(-1)))
          CFI (cfiCond150) CFA_SP SP+-2
          CFI (cfiCond150) CFA_XSP16 add(XSP16, 23)
          CFI Block cfiCond151 Using cfiCommon0
          CFI (cfiCond151) Function writeItem
          CFI (cfiCond151) Conditional ??CrossCallReturnLabel_133
          CFI (cfiCond151) R6 load(1, XDATA, add(CFA_XSP16, literal(-16)))
          CFI (cfiCond151) VB load(1, XDATA, add(CFA_XSP16, literal(-15)))
          CFI (cfiCond151) V0 load(1, XDATA, add(CFA_XSP16, literal(-14)))
          CFI (cfiCond151) V1 load(1, XDATA, add(CFA_XSP16, literal(-13)))
          CFI (cfiCond151) V2 load(1, XDATA, add(CFA_XSP16, literal(-12)))
          CFI (cfiCond151) V3 load(1, XDATA, add(CFA_XSP16, literal(-11)))
          CFI (cfiCond151) V4 load(1, XDATA, add(CFA_XSP16, literal(-10)))
          CFI (cfiCond151) V5 load(1, XDATA, add(CFA_XSP16, literal(-9)))
          CFI (cfiCond151) V6 load(1, XDATA, add(CFA_XSP16, literal(-8)))
          CFI (cfiCond151) V7 load(1, XDATA, add(CFA_XSP16, literal(-7)))
          CFI (cfiCond151) R7 load(1, XDATA, add(CFA_XSP16, literal(-6)))
          CFI (cfiCond151) ?RET_LOW load(1, XDATA, add(CFA_XSP16, literal(-5)))
          CFI (cfiCond151) ?RET_HIGH load(1, XDATA, add(CFA_XSP16, literal(-4)))
          CFI (cfiCond151) ?BRET_EXT load(1, XDATA, add(CFA_XSP16, literal(-3)))
          CFI (cfiCond151) DPL0 load(1, XDATA, add(CFA_XSP16, literal(-2)))
          CFI (cfiCond151) DPH0 load(1, XDATA, add(CFA_XSP16, literal(-1)))
          CFI (cfiCond151) CFA_SP SP+-2
          CFI (cfiCond151) CFA_XSP16 add(XSP16, 30)
          CFI Block cfiCond152 Using cfiCommon0
          CFI (cfiCond152) Function initNV
          CFI (cfiCond152) Conditional ??CrossCallReturnLabel_122
          CFI (cfiCond152) R6 load(1, XDATA, add(CFA_XSP16, literal(-12)))
          CFI (cfiCond152) VB load(1, XDATA, add(CFA_XSP16, literal(-11)))
          CFI (cfiCond152) V0 load(1, XDATA, add(CFA_XSP16, literal(-10)))
          CFI (cfiCond152) V1 load(1, XDATA, add(CFA_XSP16, literal(-9)))
          CFI (cfiCond152) V2 load(1, XDATA, add(CFA_XSP16, literal(-8)))
          CFI (cfiCond152) V3 load(1, XDATA, add(CFA_XSP16, literal(-7)))
          CFI (cfiCond152) R7 load(1, XDATA, add(CFA_XSP16, literal(-6)))
          CFI (cfiCond152) ?RET_LOW load(1, XDATA, add(CFA_XSP16, literal(-5)))
          CFI (cfiCond152) ?RET_HIGH load(1, XDATA, add(CFA_XSP16, literal(-4)))
          CFI (cfiCond152) ?BRET_EXT load(1, XDATA, add(CFA_XSP16, literal(-3)))
          CFI (cfiCond152) DPL0 load(1, XDATA, add(CFA_XSP16, literal(-2)))
          CFI (cfiCond152) DPH0 load(1, XDATA, add(CFA_XSP16, literal(-1)))
          CFI (cfiCond152) CFA_SP SP+-2
          CFI (cfiCond152) CFA_XSP16 add(XSP16, 22)
          CFI Block cfiCond153 Using cfiCommon0
          CFI (cfiCond153) Function initItem
          CFI (cfiCond153) Conditional ??CrossCallReturnLabel_123
          CFI (cfiCond153) R6 load(1, XDATA, add(CFA_XSP16, literal(-16)))
          CFI (cfiCond153) VB load(1, XDATA, add(CFA_XSP16, literal(-15)))
          CFI (cfiCond153) V0 load(1, XDATA, add(CFA_XSP16, literal(-14)))
          CFI (cfiCond153) V1 load(1, XDATA, add(CFA_XSP16, literal(-13)))
          CFI (cfiCond153) V2 load(1, XDATA, add(CFA_XSP16, literal(-12)))
          CFI (cfiCond153) V3 load(1, XDATA, add(CFA_XSP16, literal(-11)))
          CFI (cfiCond153) V4 load(1, XDATA, add(CFA_XSP16, literal(-10)))
          CFI (cfiCond153) V5 load(1, XDATA, add(CFA_XSP16, literal(-9)))
          CFI (cfiCond153) V6 load(1, XDATA, add(CFA_XSP16, literal(-8)))
          CFI (cfiCond153) V7 load(1, XDATA, add(CFA_XSP16, literal(-7)))
          CFI (cfiCond153) R7 load(1, XDATA, add(CFA_XSP16, literal(-6)))
          CFI (cfiCond153) ?RET_LOW load(1, XDATA, add(CFA_XSP16, literal(-5)))
          CFI (cfiCond153) ?RET_HIGH load(1, XDATA, add(CFA_XSP16, literal(-4)))
          CFI (cfiCond153) ?BRET_EXT load(1, XDATA, add(CFA_XSP16, literal(-3)))
          CFI (cfiCond153) DPL0 load(1, XDATA, add(CFA_XSP16, literal(-2)))
          CFI (cfiCond153) DPH0 load(1, XDATA, add(CFA_XSP16, literal(-1)))
          CFI (cfiCond153) CFA_SP SP+-2
          CFI (cfiCond153) CFA_XSP16 add(XSP16, 28)
          CFI Block cfiCond154 Using cfiCommon0
          CFI (cfiCond154) Function compactPage
          CFI (cfiCond154) Conditional ??CrossCallReturnLabel_114
          CFI (cfiCond154) R6 load(1, XDATA, add(CFA_XSP16, literal(-15)))
          CFI (cfiCond154) VB load(1, XDATA, add(CFA_XSP16, literal(-14)))
          CFI (cfiCond154) V0 load(1, XDATA, add(CFA_XSP16, literal(-13)))
          CFI (cfiCond154) V1 load(1, XDATA, add(CFA_XSP16, literal(-12)))
          CFI (cfiCond154) V2 load(1, XDATA, add(CFA_XSP16, literal(-11)))
          CFI (cfiCond154) V3 load(1, XDATA, add(CFA_XSP16, literal(-10)))
          CFI (cfiCond154) V4 load(1, XDATA, add(CFA_XSP16, literal(-9)))
          CFI (cfiCond154) V5 load(1, XDATA, add(CFA_XSP16, literal(-8)))
          CFI (cfiCond154) V6 load(1, XDATA, add(CFA_XSP16, literal(-7)))
          CFI (cfiCond154) R7 load(1, XDATA, add(CFA_XSP16, literal(-6)))
          CFI (cfiCond154) ?RET_LOW load(1, XDATA, add(CFA_XSP16, literal(-5)))
          CFI (cfiCond154) ?RET_HIGH load(1, XDATA, add(CFA_XSP16, literal(-4)))
          CFI (cfiCond154) ?BRET_EXT load(1, XDATA, add(CFA_XSP16, literal(-3)))
          CFI (cfiCond154) DPL0 load(1, XDATA, add(CFA_XSP16, literal(-2)))
          CFI (cfiCond154) DPH0 load(1, XDATA, add(CFA_XSP16, literal(-1)))
          CFI (cfiCond154) CFA_SP SP+-2
          CFI (cfiCond154) CFA_XSP16 add(XSP16, 28)
          CFI Block cfiCond155 Using cfiCommon0
          CFI (cfiCond155) Function xferBuf
          CFI (cfiCond155) Conditional ??CrossCallReturnLabel_115
          CFI (cfiCond155) R6 load(1, XDATA, add(CFA_XSP16, literal(-16)))
          CFI (cfiCond155) VB load(1, XDATA, add(CFA_XSP16, literal(-15)))
          CFI (cfiCond155) V0 load(1, XDATA, add(CFA_XSP16, literal(-14)))
          CFI (cfiCond155) V1 load(1, XDATA, add(CFA_XSP16, literal(-13)))
          CFI (cfiCond155) V2 load(1, XDATA, add(CFA_XSP16, literal(-12)))
          CFI (cfiCond155) V3 load(1, XDATA, add(CFA_XSP16, literal(-11)))
          CFI (cfiCond155) V4 load(1, XDATA, add(CFA_XSP16, literal(-10)))
          CFI (cfiCond155) V5 load(1, XDATA, add(CFA_XSP16, literal(-9)))
          CFI (cfiCond155) V6 load(1, XDATA, add(CFA_XSP16, literal(-8)))
          CFI (cfiCond155) V7 load(1, XDATA, add(CFA_XSP16, literal(-7)))
          CFI (cfiCond155) R7 load(1, XDATA, add(CFA_XSP16, literal(-6)))
          CFI (cfiCond155) ?RET_LOW load(1, XDATA, add(CFA_XSP16, literal(-5)))
          CFI (cfiCond155) ?RET_HIGH load(1, XDATA, add(CFA_XSP16, literal(-4)))
          CFI (cfiCond155) ?BRET_EXT load(1, XDATA, add(CFA_XSP16, literal(-3)))
          CFI (cfiCond155) DPL0 load(1, XDATA, add(CFA_XSP16, literal(-2)))
          CFI (cfiCond155) DPH0 load(1, XDATA, add(CFA_XSP16, literal(-1)))
          CFI (cfiCond155) CFA_SP SP+-2
          CFI (cfiCond155) CFA_XSP16 add(XSP16, 23)
          CFI Block cfiCond156 Using cfiCommon0
          CFI (cfiCond156) Function xferBuf
          CFI (cfiCond156) Conditional ??CrossCallReturnLabel_116
          CFI (cfiCond156) R6 load(1, XDATA, add(CFA_XSP16, literal(-16)))
          CFI (cfiCond156) VB load(1, XDATA, add(CFA_XSP16, literal(-15)))
          CFI (cfiCond156) V0 load(1, XDATA, add(CFA_XSP16, literal(-14)))
          CFI (cfiCond156) V1 load(1, XDATA, add(CFA_XSP16, literal(-13)))
          CFI (cfiCond156) V2 load(1, XDATA, add(CFA_XSP16, literal(-12)))
          CFI (cfiCond156) V3 load(1, XDATA, add(CFA_XSP16, literal(-11)))
          CFI (cfiCond156) V4 load(1, XDATA, add(CFA_XSP16, literal(-10)))
          CFI (cfiCond156) V5 load(1, XDATA, add(CFA_XSP16, literal(-9)))
          CFI (cfiCond156) V6 load(1, XDATA, add(CFA_XSP16, literal(-8)))
          CFI (cfiCond156) V7 load(1, XDATA, add(CFA_XSP16, literal(-7)))
          CFI (cfiCond156) R7 load(1, XDATA, add(CFA_XSP16, literal(-6)))
          CFI (cfiCond156) ?RET_LOW load(1, XDATA, add(CFA_XSP16, literal(-5)))
          CFI (cfiCond156) ?RET_HIGH load(1, XDATA, add(CFA_XSP16, literal(-4)))
          CFI (cfiCond156) ?BRET_EXT load(1, XDATA, add(CFA_XSP16, literal(-3)))
          CFI (cfiCond156) DPL0 load(1, XDATA, add(CFA_XSP16, literal(-2)))
          CFI (cfiCond156) DPH0 load(1, XDATA, add(CFA_XSP16, literal(-1)))
          CFI (cfiCond156) CFA_SP SP+-2
          CFI (cfiCond156) CFA_XSP16 add(XSP16, 23)
          CFI Block cfiCond157 Using cfiCommon0
          CFI (cfiCond157) Function xferBuf
          CFI (cfiCond157) Conditional ??CrossCallReturnLabel_117
          CFI (cfiCond157) R6 load(1, XDATA, add(CFA_XSP16, literal(-16)))
          CFI (cfiCond157) VB load(1, XDATA, add(CFA_XSP16, literal(-15)))
          CFI (cfiCond157) V0 load(1, XDATA, add(CFA_XSP16, literal(-14)))
          CFI (cfiCond157) V1 load(1, XDATA, add(CFA_XSP16, literal(-13)))
          CFI (cfiCond157) V2 load(1, XDATA, add(CFA_XSP16, literal(-12)))
          CFI (cfiCond157) V3 load(1, XDATA, add(CFA_XSP16, literal(-11)))
          CFI (cfiCond157) V4 load(1, XDATA, add(CFA_XSP16, literal(-10)))
          CFI (cfiCond157) V5 load(1, XDATA, add(CFA_XSP16, literal(-9)))
          CFI (cfiCond157) V6 load(1, XDATA, add(CFA_XSP16, literal(-8)))
          CFI (cfiCond157) V7 load(1, XDATA, add(CFA_XSP16, literal(-7)))
          CFI (cfiCond157) R7 load(1, XDATA, add(CFA_XSP16, literal(-6)))
          CFI (cfiCond157) ?RET_LOW load(1, XDATA, add(CFA_XSP16, literal(-5)))
          CFI (cfiCond157) ?RET_HIGH load(1, XDATA, add(CFA_XSP16, literal(-4)))
          CFI (cfiCond157) ?BRET_EXT load(1, XDATA, add(CFA_XSP16, literal(-3)))
          CFI (cfiCond157) DPL0 load(1, XDATA, add(CFA_XSP16, literal(-2)))
          CFI (cfiCond157) DPH0 load(1, XDATA, add(CFA_XSP16, literal(-1)))
          CFI (cfiCond157) CFA_SP SP+-2
          CFI (cfiCond157) CFA_XSP16 add(XSP16, 23)
          CFI Block cfiCond158 Using cfiCommon0
          CFI (cfiCond158) Function osal_nv_item_len
          CFI (cfiCond158) Conditional ??CrossCallReturnLabel_118
          CFI (cfiCond158) R6 load(1, XDATA, add(CFA_XSP16, literal(-10)))
          CFI (cfiCond158) VB load(1, XDATA, add(CFA_XSP16, literal(-9)))
          CFI (cfiCond158) V0 load(1, XDATA, add(CFA_XSP16, literal(-8)))
          CFI (cfiCond158) V1 load(1, XDATA, add(CFA_XSP16, literal(-7)))
          CFI (cfiCond158) R7 load(1, XDATA, add(CFA_XSP16, literal(-6)))
          CFI (cfiCond158) ?RET_LOW load(1, XDATA, add(CFA_XSP16, literal(-5)))
          CFI (cfiCond158) ?RET_HIGH load(1, XDATA, add(CFA_XSP16, literal(-4)))
          CFI (cfiCond158) ?BRET_EXT load(1, XDATA, add(CFA_XSP16, literal(-3)))
          CFI (cfiCond158) DPL0 load(1, XDATA, add(CFA_XSP16, literal(-2)))
          CFI (cfiCond158) DPH0 load(1, XDATA, add(CFA_XSP16, literal(-1)))
          CFI (cfiCond158) CFA_SP SP+-2
          CFI (cfiCond158) CFA_XSP16 add(XSP16, 20)
          CFI Block cfiCond159 Using cfiCommon0
          CFI (cfiCond159) Function osal_nv_write
          CFI (cfiCond159) Conditional ??CrossCallReturnLabel_119
          CFI (cfiCond159) R6 load(1, XDATA, add(CFA_XSP16, literal(-16)))
          CFI (cfiCond159) VB load(1, XDATA, add(CFA_XSP16, literal(-15)))
          CFI (cfiCond159) V0 load(1, XDATA, add(CFA_XSP16, literal(-14)))
          CFI (cfiCond159) V1 load(1, XDATA, add(CFA_XSP16, literal(-13)))
          CFI (cfiCond159) V2 load(1, XDATA, add(CFA_XSP16, literal(-12)))
          CFI (cfiCond159) V3 load(1, XDATA, add(CFA_XSP16, literal(-11)))
          CFI (cfiCond159) V4 load(1, XDATA, add(CFA_XSP16, literal(-10)))
          CFI (cfiCond159) V5 load(1, XDATA, add(CFA_XSP16, literal(-9)))
          CFI (cfiCond159) V6 load(1, XDATA, add(CFA_XSP16, literal(-8)))
          CFI (cfiCond159) V7 load(1, XDATA, add(CFA_XSP16, literal(-7)))
          CFI (cfiCond159) R7 load(1, XDATA, add(CFA_XSP16, literal(-6)))
          CFI (cfiCond159) ?RET_LOW load(1, XDATA, add(CFA_XSP16, literal(-5)))
          CFI (cfiCond159) ?RET_HIGH load(1, XDATA, add(CFA_XSP16, literal(-4)))
          CFI (cfiCond159) ?BRET_EXT load(1, XDATA, add(CFA_XSP16, literal(-3)))
          CFI (cfiCond159) DPL0 load(1, XDATA, add(CFA_XSP16, literal(-2)))
          CFI (cfiCond159) DPH0 load(1, XDATA, add(CFA_XSP16, literal(-1)))
          CFI (cfiCond159) CFA_SP SP+-2
          CFI (cfiCond159) CFA_XSP16 add(XSP16, 37)
          CFI Block cfiCond160 Using cfiCommon0
          CFI (cfiCond160) Function osal_nv_write
          CFI (cfiCond160) Conditional ??CrossCallReturnLabel_120
          CFI (cfiCond160) R6 load(1, XDATA, add(CFA_XSP16, literal(-16)))
          CFI (cfiCond160) VB load(1, XDATA, add(CFA_XSP16, literal(-15)))
          CFI (cfiCond160) V0 load(1, XDATA, add(CFA_XSP16, literal(-14)))
          CFI (cfiCond160) V1 load(1, XDATA, add(CFA_XSP16, literal(-13)))
          CFI (cfiCond160) V2 load(1, XDATA, add(CFA_XSP16, literal(-12)))
          CFI (cfiCond160) V3 load(1, XDATA, add(CFA_XSP16, literal(-11)))
          CFI (cfiCond160) V4 load(1, XDATA, add(CFA_XSP16, literal(-10)))
          CFI (cfiCond160) V5 load(1, XDATA, add(CFA_XSP16, literal(-9)))
          CFI (cfiCond160) V6 load(1, XDATA, add(CFA_XSP16, literal(-8)))
          CFI (cfiCond160) V7 load(1, XDATA, add(CFA_XSP16, literal(-7)))
          CFI (cfiCond160) R7 load(1, XDATA, add(CFA_XSP16, literal(-6)))
          CFI (cfiCond160) ?RET_LOW load(1, XDATA, add(CFA_XSP16, literal(-5)))
          CFI (cfiCond160) ?RET_HIGH load(1, XDATA, add(CFA_XSP16, literal(-4)))
          CFI (cfiCond160) ?BRET_EXT load(1, XDATA, add(CFA_XSP16, literal(-3)))
          CFI (cfiCond160) DPL0 load(1, XDATA, add(CFA_XSP16, literal(-2)))
          CFI (cfiCond160) DPH0 load(1, XDATA, add(CFA_XSP16, literal(-1)))
          CFI (cfiCond160) CFA_SP SP+-2
          CFI (cfiCond160) CFA_XSP16 add(XSP16, 37)
          CFI Block cfiCond161 Using cfiCommon0
          CFI (cfiCond161) Function osal_nv_read
          CFI (cfiCond161) Conditional ??CrossCallReturnLabel_121
          CFI (cfiCond161) R6 load(1, XDATA, add(CFA_XSP16, literal(-16)))
          CFI (cfiCond161) VB load(1, XDATA, add(CFA_XSP16, literal(-15)))
          CFI (cfiCond161) V0 load(1, XDATA, add(CFA_XSP16, literal(-14)))
          CFI (cfiCond161) V1 load(1, XDATA, add(CFA_XSP16, literal(-13)))
          CFI (cfiCond161) V2 load(1, XDATA, add(CFA_XSP16, literal(-12)))
          CFI (cfiCond161) V3 load(1, XDATA, add(CFA_XSP16, literal(-11)))
          CFI (cfiCond161) V4 load(1, XDATA, add(CFA_XSP16, literal(-10)))
          CFI (cfiCond161) V5 load(1, XDATA, add(CFA_XSP16, literal(-9)))
          CFI (cfiCond161) V6 load(1, XDATA, add(CFA_XSP16, literal(-8)))
          CFI (cfiCond161) V7 load(1, XDATA, add(CFA_XSP16, literal(-7)))
          CFI (cfiCond161) R7 load(1, XDATA, add(CFA_XSP16, literal(-6)))
          CFI (cfiCond161) ?RET_LOW load(1, XDATA, add(CFA_XSP16, literal(-5)))
          CFI (cfiCond161) ?RET_HIGH load(1, XDATA, add(CFA_XSP16, literal(-4)))
          CFI (cfiCond161) ?BRET_EXT load(1, XDATA, add(CFA_XSP16, literal(-3)))
          CFI (cfiCond161) DPL0 load(1, XDATA, add(CFA_XSP16, literal(-2)))
          CFI (cfiCond161) DPH0 load(1, XDATA, add(CFA_XSP16, literal(-1)))
          CFI (cfiCond161) CFA_SP SP+-2
          CFI (cfiCond161) CFA_XSP16 add(XSP16, 18)
          CFI Block cfiPicker162 Using cfiCommon1
          CFI (cfiPicker162) NoFunction
          CFI (cfiPicker162) Picker
        LCALL     `??HalFlashRead::?relay`; Banked call to: HalFlashRead
        MOV       A,#0x2
        RET
          CFI EndBlock cfiCond142
          CFI EndBlock cfiCond143
          CFI EndBlock cfiCond144
          CFI EndBlock cfiCond145
          CFI EndBlock cfiCond146
          CFI EndBlock cfiCond147
          CFI EndBlock cfiCond148
          CFI EndBlock cfiCond149
          CFI EndBlock cfiCond150
          CFI EndBlock cfiCond151
          CFI EndBlock cfiCond152
          CFI EndBlock cfiCond153
          CFI EndBlock cfiCond154
          CFI EndBlock cfiCond155
          CFI EndBlock cfiCond156
          CFI EndBlock cfiCond157
          CFI EndBlock cfiCond158
          CFI EndBlock cfiCond159
          CFI EndBlock cfiCond160
          CFI EndBlock cfiCond161
          CFI EndBlock cfiPicker162

        RSEG BANKED_CODE:HUGECODE:NOROOT(0)
?Subroutine2:
          CFI Block cfiBlock163 Using cfiCommon0
          CFI NoFunction
          CFI CFA_SP SP+0
          CFI CFA_XSP16 add(XSP16, 26)
          CFI VB load(1, XDATA, add(CFA_XSP16, literal(-15)))
          CFI DPL0 load(1, XDATA, add(CFA_XSP16, literal(-2)))
          CFI DPH0 load(1, XDATA, add(CFA_XSP16, literal(-1)))
          CFI R6 load(1, XDATA, add(CFA_XSP16, literal(-16)))
          CFI R7 load(1, XDATA, add(CFA_XSP16, literal(-6)))
          CFI V0 load(1, XDATA, add(CFA_XSP16, literal(-14)))
          CFI V1 load(1, XDATA, add(CFA_XSP16, literal(-13)))
          CFI V2 load(1, XDATA, add(CFA_XSP16, literal(-12)))
          CFI V3 load(1, XDATA, add(CFA_XSP16, literal(-11)))
          CFI V4 load(1, XDATA, add(CFA_XSP16, literal(-10)))
          CFI V5 load(1, XDATA, add(CFA_XSP16, literal(-9)))
          CFI V6 load(1, XDATA, add(CFA_XSP16, literal(-8)))
          CFI V7 load(1, XDATA, add(CFA_XSP16, literal(-7)))
          CFI ?BRET_EXT load(1, XDATA, add(CFA_XSP16, literal(-3)))
          CFI ?RET_HIGH load(1, XDATA, add(CFA_XSP16, literal(-4)))
          CFI ?RET_LOW load(1, XDATA, add(CFA_XSP16, literal(-5)))
        MOV       A,#0xa
          CFI EndBlock cfiBlock163
        REQUIRE ??Subroutine59_0
        ; // Fall through to label ??Subroutine59_0

        RSEG BANKED_CODE:HUGECODE:NOROOT(0)
??Subroutine59_0:
          CFI Block cfiBlock164 Using cfiCommon0
          CFI NoFunction
          CFI CFA_SP SP+0
          CFI CFA_XSP16 add(XSP16, 20)
          CFI VB load(1, XDATA, add(CFA_XSP16, literal(-15)))
          CFI DPL0 load(1, XDATA, add(CFA_XSP16, literal(-2)))
          CFI DPH0 load(1, XDATA, add(CFA_XSP16, literal(-1)))
          CFI R6 load(1, XDATA, add(CFA_XSP16, literal(-16)))
          CFI R7 load(1, XDATA, add(CFA_XSP16, literal(-6)))
          CFI V0 load(1, XDATA, add(CFA_XSP16, literal(-14)))
          CFI V1 load(1, XDATA, add(CFA_XSP16, literal(-13)))
          CFI V2 load(1, XDATA, add(CFA_XSP16, literal(-12)))
          CFI V3 load(1, XDATA, add(CFA_XSP16, literal(-11)))
          CFI V4 load(1, XDATA, add(CFA_XSP16, literal(-10)))
          CFI V5 load(1, XDATA, add(CFA_XSP16, literal(-9)))
          CFI V6 load(1, XDATA, add(CFA_XSP16, literal(-8)))
          CFI V7 load(1, XDATA, add(CFA_XSP16, literal(-7)))
          CFI ?BRET_EXT load(1, XDATA, add(CFA_XSP16, literal(-3)))
          CFI ?RET_HIGH load(1, XDATA, add(CFA_XSP16, literal(-4)))
          CFI ?RET_LOW load(1, XDATA, add(CFA_XSP16, literal(-5)))
          CFI Invalid
        LCALL     ?DEALLOC_XSTACK8
          CFI EndBlock cfiBlock164
        REQUIRE ??Subroutine60_0
        ; // Fall through to label ??Subroutine60_0

        RSEG BANKED_CODE:HUGECODE:NOROOT(0)
??Subroutine60_0:
          CFI Block cfiBlock165 Using cfiCommon0
          CFI NoFunction
          CFI CFA_SP SP+0
          CFI CFA_XSP16 add(XSP16, 16)
          CFI VB load(1, XDATA, add(CFA_XSP16, literal(-15)))
          CFI DPL0 load(1, XDATA, add(CFA_XSP16, literal(-2)))
          CFI DPH0 load(1, XDATA, add(CFA_XSP16, literal(-1)))
          CFI R6 load(1, XDATA, add(CFA_XSP16, literal(-16)))
          CFI R7 load(1, XDATA, add(CFA_XSP16, literal(-6)))
          CFI V0 load(1, XDATA, add(CFA_XSP16, literal(-14)))
          CFI V1 load(1, XDATA, add(CFA_XSP16, literal(-13)))
          CFI V2 load(1, XDATA, add(CFA_XSP16, literal(-12)))
          CFI V3 load(1, XDATA, add(CFA_XSP16, literal(-11)))
          CFI V4 load(1, XDATA, add(CFA_XSP16, literal(-10)))
          CFI V5 load(1, XDATA, add(CFA_XSP16, literal(-9)))
          CFI V6 load(1, XDATA, add(CFA_XSP16, literal(-8)))
          CFI V7 load(1, XDATA, add(CFA_XSP16, literal(-7)))
          CFI ?BRET_EXT load(1, XDATA, add(CFA_XSP16, literal(-3)))
          CFI ?RET_HIGH load(1, XDATA, add(CFA_XSP16, literal(-4)))
          CFI ?RET_LOW load(1, XDATA, add(CFA_XSP16, literal(-5)))
        MOV       R7,#0x8
        LJMP      ?BANKED_LEAVE_XDATA
          CFI EndBlock cfiBlock165
// 1066 
// 1067 /*********************************************************************
// 1068  * @fn      writeItem
// 1069  *
// 1070  * @brief   Writes an item header/data combo to the specified NV page.
// 1071  *
// 1072  * @param   pg - Valid NV Flash page.
// 1073  * @param   id - Valid NV item Id.
// 1074  * @param   len  - Byte count of the data to write.
// 1075  * @param   buf  - The data to write. If NULL, no data/checksum write.
// 1076  * @param   flag - TRUE if the checksum should be written, FALSE otherwise.
// 1077  *
// 1078  * @return  TRUE if header/data to write matches header/data read back, else FALSE.
// 1079  */

        RSEG BANKED_CODE:HUGECODE:NOROOT(0)
// 1080 static uint8 writeItem( uint8 pg, uint16 id, uint16 len, void *buf, uint8 flag )
writeItem:
          CFI Block cfiBlock166 Using cfiCommon0
          CFI Function writeItem
        CODE
// 1081 {
        FUNCALL writeItem, writeWord
        LOCFRAME ISTACK, 0, STACK
        LOCFRAME PSTACK, 0, STACK
        LOCFRAME XSTACK, 28, STACK
        LOCFRAME IOVERLAY, 0, STATIC
        LOCFRAME DOVERLAY, 0, STATIC
        ARGFRAME ISTACK, 0, STACK
        ARGFRAME PSTACK, 0, STACK
        ARGFRAME XSTACK, 28, STACK
        ARGFRAME IOVERLAY, 0, STATIC
        ARGFRAME DOVERLAY, 0, STATIC
        FUNCALL writeItem, HalFlashRead
        LOCFRAME ISTACK, 0, STACK
        LOCFRAME PSTACK, 0, STACK
        LOCFRAME XSTACK, 30, STACK
        LOCFRAME IOVERLAY, 0, STATIC
        LOCFRAME DOVERLAY, 0, STATIC
        ARGFRAME ISTACK, 0, STACK
        ARGFRAME PSTACK, 0, STACK
        ARGFRAME XSTACK, 30, STACK
        ARGFRAME IOVERLAY, 0, STATIC
        ARGFRAME DOVERLAY, 0, STATIC
        FUNCALL writeItem, writeBuf
        LOCFRAME ISTACK, 0, STACK
        LOCFRAME PSTACK, 0, STACK
        LOCFRAME XSTACK, 30, STACK
        LOCFRAME IOVERLAY, 0, STATIC
        LOCFRAME DOVERLAY, 0, STATIC
        ARGFRAME ISTACK, 0, STACK
        ARGFRAME PSTACK, 0, STACK
        ARGFRAME XSTACK, 30, STACK
        ARGFRAME IOVERLAY, 0, STATIC
        ARGFRAME DOVERLAY, 0, STATIC
        FUNCALL writeItem, calcChkF
        LOCFRAME ISTACK, 0, STACK
        LOCFRAME PSTACK, 0, STACK
        LOCFRAME XSTACK, 28, STACK
        LOCFRAME IOVERLAY, 0, STATIC
        LOCFRAME DOVERLAY, 0, STATIC
        ARGFRAME ISTACK, 0, STACK
        ARGFRAME PSTACK, 0, STACK
        ARGFRAME XSTACK, 28, STACK
        ARGFRAME IOVERLAY, 0, STATIC
        ARGFRAME DOVERLAY, 0, STATIC
        FUNCALL writeItem, setChk
        LOCFRAME ISTACK, 0, STACK
        LOCFRAME PSTACK, 0, STACK
        LOCFRAME XSTACK, 28, STACK
        LOCFRAME IOVERLAY, 0, STATIC
        LOCFRAME DOVERLAY, 0, STATIC
        ARGFRAME ISTACK, 0, STACK
        ARGFRAME PSTACK, 0, STACK
        ARGFRAME XSTACK, 28, STACK
        ARGFRAME IOVERLAY, 0, STATIC
        ARGFRAME DOVERLAY, 0, STATIC
        FUNCALL writeItem, hotItemUpdate
        LOCFRAME ISTACK, 0, STACK
        LOCFRAME PSTACK, 0, STACK
        LOCFRAME XSTACK, 28, STACK
        LOCFRAME IOVERLAY, 0, STATIC
        LOCFRAME DOVERLAY, 0, STATIC
        ARGFRAME ISTACK, 0, STACK
        ARGFRAME PSTACK, 0, STACK
        ARGFRAME XSTACK, 28, STACK
        ARGFRAME IOVERLAY, 0, STATIC
        ARGFRAME DOVERLAY, 0, STATIC
        REQUIRE ?V0
        REQUIRE ?V1
        REQUIRE ?V2
        REQUIRE ?V3
        REQUIRE ?V4
        REQUIRE ?V5
        REQUIRE ?V6
        REQUIRE ?V7
        MOV       A,#-0x10
        LCALL     ?BANKED_ENTER_XDATA
          CFI DPH0 load(1, XDATA, add(CFA_XSP16, literal(-1)))
          CFI DPL0 load(1, XDATA, add(CFA_XSP16, literal(-2)))
          CFI ?BRET_EXT load(1, XDATA, add(CFA_XSP16, literal(-3)))
          CFI ?RET_HIGH load(1, XDATA, add(CFA_XSP16, literal(-4)))
          CFI ?RET_LOW load(1, XDATA, add(CFA_XSP16, literal(-5)))
          CFI R7 load(1, XDATA, add(CFA_XSP16, literal(-6)))
          CFI V7 load(1, XDATA, add(CFA_XSP16, literal(-7)))
          CFI V6 load(1, XDATA, add(CFA_XSP16, literal(-8)))
          CFI V5 load(1, XDATA, add(CFA_XSP16, literal(-9)))
          CFI V4 load(1, XDATA, add(CFA_XSP16, literal(-10)))
          CFI V3 load(1, XDATA, add(CFA_XSP16, literal(-11)))
          CFI V2 load(1, XDATA, add(CFA_XSP16, literal(-12)))
          CFI V1 load(1, XDATA, add(CFA_XSP16, literal(-13)))
          CFI V0 load(1, XDATA, add(CFA_XSP16, literal(-14)))
          CFI VB load(1, XDATA, add(CFA_XSP16, literal(-15)))
          CFI R6 load(1, XDATA, add(CFA_XSP16, literal(-16)))
          CFI CFA_SP SP+0
          CFI CFA_XSP16 add(XSP16, 16)
        ; Saved register size: 16
        ; Auto size: 12
        MOV       A,#-0xc
        LCALL     ?ALLOC_XSTACK8
          CFI CFA_XSP16 add(XSP16, 28)
        MOV       A,#0xa
        LCALL     ?XSTACK_DISP0_8
        LCALL     ?Subroutine8 & 0xFFFF
??CrossCallReturnLabel_6:
        MOV       A,R4
        MOV       R6,A
        MOV       A,R5
        MOV       R7,A
// 1082   uint16 offset = pgOff[pg-OSAL_NV_PAGE_BEG];
        MOV       A,R1
        ADD       A,R1
        MOV       ?V0,A
        CLR       A
        RLC       A
        MOV       ?V1,A
        MOV       A,#(pgOff + 14) & 0xff
        ADD       A,?V0
        MOV       R0,A
        MOV       A,#((pgOff - 242) >> 8) & 0xff
        ADDC      A,?V1
        MOV       R1,A
        MOV       DPL,?XSP + 0
        MOV       DPH,?XSP + 1
        LCALL     ?Subroutine9 & 0xFFFF
??CrossCallReturnLabel_10:
        LCALL     ?Subroutine15 & 0xFFFF
??CrossCallReturnLabel_136:
        MOV       ?V2,A
        INC       DPTR
        MOVX      A,@DPTR
        MOV       ?V3,A
// 1083   uint8 rtrn = FALSE;
        MOV       ?V7,#0x0
// 1084   osalNvHdr_t hdr;
// 1085 
// 1086   hdr.id = id;
        MOV       A,#0xa
        LCALL     ?XSTACK_DISP0_8
        LCALL     ?Subroutine22 & 0xFFFF
??CrossCallReturnLabel_40:
        MOV       A,#0x2
        LCALL     ?XSTACK_DISP0_8
        LCALL     ?Subroutine9 & 0xFFFF
// 1087   hdr.len = len;
??CrossCallReturnLabel_11:
        MOV       A,#0x4
        LCALL     ?XSTACK_DISP0_8
        MOV       A,R4
        MOVX      @DPTR,A
        INC       DPTR
        MOV       A,R5
        MOVX      @DPTR,A
// 1088 
// 1089   writeWord( pg, offset, (uint8 *)&hdr );
        ; Setup parameters for call to function writeWord
        MOV       A,#0x2
        LCALL     ?XSTACK_DISP102_8
        MOV       R2,?V2
        MOV       R3,?V3
        MOV       R1,?V6
        LCALL     `??writeWord::?relay`; Banked call to: writeWord
// 1090   HalFlashRead(pg, offset, (uint8 *)(&hdr), OSAL_NV_HDR_SIZE);
        ; Setup parameters for call to function HalFlashRead
        MOV       ?V4,#0x8
        MOV       ?V5,#0x0
        MOV       R0,#?V4
        LCALL     ?PUSH_XSTACK_I_TWO
          CFI CFA_XSP16 add(XSP16, 30)
        MOV       A,#0x4
        LCALL     ?XSTACK_DISP102_8
        MOV       R2,?V2
        MOV       R3,?V3
        MOV       R1,?V6
        LCALL     ??Subroutine58_0 & 0xFFFF
??CrossCallReturnLabel_133:
        LCALL     ?DEALLOC_XSTACK8
          CFI CFA_XSP16 add(XSP16, 28)
// 1091 
// 1092   if ( (hdr.id == id) && (hdr.len == len) )
        MOV       A,#0x4
        LCALL     ?XSTACK_DISP0_8
        LCALL     ?Subroutine22 & 0xFFFF
??CrossCallReturnLabel_41:
        MOV       A,#0x2
        LCALL     ?XSTACK_DISP0_8
        LCALL     ??Subroutine62_0 & 0xFFFF
??CrossCallReturnLabel_146:
        MOV       A,#0xa
        LCALL     ?XSTACK_DISP0_8
        MOVX      A,@DPTR
        XRL       A,R2
        JNZ       ??writeItem_0
        INC       DPTR
        MOVX      A,@DPTR
        XRL       A,R3
??writeItem_0:
        JZ        $+5
        LJMP      ??writeItem_1 & 0xFFFF
        MOV       A,R6
        XRL       A,R0
        JNZ       ??writeItem_2
        MOV       A,R7
        XRL       A,R1
??writeItem_2:
        JZ        $+5
        LJMP      ??writeItem_1 & 0xFFFF
// 1093   {
// 1094     if ( flag )
        MOV       A,#0x1e
        LCALL     ?XSTACK_DISP0_8
        MOVX      A,@DPTR
        JNZ       $+5
        LJMP      ??writeItem_3 & 0xFFFF
        MOV       A,#0x1c
        LCALL     ?XSTACK_DISP0_8
        LCALL     ?Subroutine18 & 0xFFFF
// 1095     {
// 1096       hdr.chk = calcChkB( len, buf );
??CrossCallReturnLabel_30:
        MOV       DPL,?V0
        MOV       DPH,A
        MOV       A,R6
        MOV       R0,A
        MOV       A,R7
        MOV       R1,A
        MOV       A,R6
        ANL       A,#0x3
        MOV       ?V4,A
        MOV       A,DPL
        ORL       A,DPH
        JNZ       ??writeItem_4
        MOV       A,R6
        MOV       B,#-0x1
        MUL       AB
        MOV       R0,A
        MOV       R2,B
        MOV       B,#-0x1
        MOV       A,R7
        MUL       AB
        ADD       A,R2
        MOV       R1,A
        MOV       A,R0
        MOV       R2,A
        MOV       A,R1
        MOV       R3,A
        SJMP      ??writeItem_5
??writeItem_4:
        MOV       R2,#0x0
        MOV       R3,#0x0
        SJMP      ??writeItem_6
??writeItem_7:
        MOVX      A,@DPTR
        MOV       R4,A
        MOV       A,R2
        ADD       A,R4
        MOV       R2,A
        CLR       A
        ADDC      A,R3
        MOV       R3,A
        INC       DPTR
??writeItem_6:
        MOV       A,R0
        MOV       R4,A
        MOV       A,R1
        MOV       R5,A
        MOV       A,R4
        ADD       A,#-0x1
        DEC       R0
        MOV       A,R5
        ADDC      A,#-0x1
        MOV       R1,A
        MOV       A,R4
        ORL       A,R5
        JNZ       ??writeItem_7
??writeItem_5:
        MOV       A,?V4
        JZ        ??writeItem_8
        MOV       R0,A
        MOV       A,#0x4
        CLR       C
        SUBB      A,R0
        MOV       R0,A
        SUBB      A,0xE0 /* A   */
        MOV       R1,A
        MOV       A,R0
        MOV       B,#-0x1
        MUL       AB
        MOV       R0,A
        MOV       R4,B
        MOV       B,#-0x1
        MOV       A,R1
        MUL       AB
        ADD       A,R4
        MOV       R1,A
        MOV       A,R2
        ADD       A,R0
        MOV       R2,A
        MOV       A,R3
        ADDC      A,R1
        MOV       R3,A
??writeItem_8:
        MOV       A,#0x6
        LCALL     ?XSTACK_DISP0_8
        MOV       A,R2
        MOVX      @DPTR,A
        INC       DPTR
        MOV       A,R3
        MOVX      @DPTR,A
// 1097 
// 1098       offset += OSAL_NV_HDR_SIZE;
        LCALL     ?Subroutine38 & 0xFFFF
// 1099       if ( buf != NULL )
??CrossCallReturnLabel_76:
        MOV       A,?V0
        ORL       A,?V1
        JZ        ??writeItem_9
// 1100       {
// 1101         writeBuf( pg, offset, len, buf );
        ; Setup parameters for call to function writeBuf
        MOV       R0,#?V0
        LCALL     ?PUSH_XSTACK_I_TWO
          CFI CFA_XSP16 add(XSP16, 30)
        MOV       A,R6
        MOV       R4,A
        MOV       A,R7
        MOV       R5,A
        MOV       R2,?V2
        MOV       R3,?V3
        MOV       R1,?V6
        LCALL     `??writeBuf::?relay`; Banked call to: writeBuf
        MOV       A,#0x2
        LCALL     ?DEALLOC_XSTACK8
          CFI CFA_XSP16 add(XSP16, 28)
// 1102       }
// 1103 
// 1104       if ( hdr.chk == calcChkF( pg, offset, len ) )
??writeItem_9:
        ; Setup parameters for call to function calcChkF
        MOV       A,R6
        MOV       R4,A
        MOV       A,R7
        MOV       R5,A
        MOV       R2,?V2
        MOV       R3,?V3
        MOV       R1,?V6
        LCALL     `??calcChkF::?relay`; Banked call to: calcChkF
        MOV       A,#0x6
        LCALL     ?XSTACK_DISP0_8
        LCALL     ?Subroutine19 & 0xFFFF
??CrossCallReturnLabel_32:
        JNZ       ??writeItem_10
        MOV       A,R3
        XRL       A,R5
??writeItem_10:
        JNZ       ??writeItem_11
// 1105       {
// 1106         if ( hdr.chk == setChk( pg, offset, hdr.chk ) )
        ; Setup parameters for call to function setChk
        MOV       R2,?V2
        MOV       R3,?V3
        LCALL     ?Subroutine40 & 0xFFFF
??CrossCallReturnLabel_79:
        MOV       A,#0x6
        LCALL     ?XSTACK_DISP0_8
        MOVX      A,@DPTR
        XRL       A,R0
        JNZ       ??writeItem_12
        INC       DPTR
        MOVX      A,@DPTR
        XRL       A,R1
??writeItem_12:
        JNZ       ??writeItem_11
// 1107         {
// 1108           hotItemUpdate(pg, offset, hdr.id);
        ; Setup parameters for call to function hotItemUpdate
        MOV       A,#0x2
        LCALL     ?XSTACK_DISP0_8
        LCALL     ?Subroutine25 & 0xFFFF
??CrossCallReturnLabel_52:
        MOV       R2,?V2
        MOV       R3,?V3
        MOV       R1,?V6
        LCALL     `??hotItemUpdate::?relay`; Banked call to: hotItemUpdate
// 1109           rtrn = TRUE;
// 1110         }
// 1111       }
// 1112     }
// 1113     else
// 1114     {
// 1115       rtrn = TRUE;
??writeItem_3:
        MOV       ?V7,#0x1
// 1116     }
// 1117 
// 1118     len = OSAL_NV_ITEM_SIZE( hdr.len );
??writeItem_11:
        MOV       A,#0x4
        LCALL     ?XSTACK_DISP0_8
        LCALL     ?Subroutine22 & 0xFFFF
// 1119   }
??CrossCallReturnLabel_42:
        CLR       C
        MOV       A,R0
        SUBB      A,#-0xc
        MOV       A,R1
        SUBB      A,#-0x1
        JC        ??writeItem_13
        MOV       R6,#-0x4
        MOV       R7,#-0x1
        SJMP      ??CrossCallReturnLabel_108
??writeItem_13:
        MOV       A,R0
        ADD       A,#0x3
        JNC       ??writeItem_14
        INC       R1
??writeItem_14:
        LCALL     ?Subroutine33 & 0xFFFF
??CrossCallReturnLabel_67:
        SJMP      ??CrossCallReturnLabel_108
// 1120   else
// 1121   {
// 1122     len = OSAL_NV_ITEM_SIZE( hdr.len );
??writeItem_1:
        CLR       C
        MOV       A,R0
        SUBB      A,#-0xc
        MOV       A,R1
        SUBB      A,#-0x1
        JC        ??writeItem_15
        MOV       R6,#-0x4
        MOV       R7,#-0x1
        SJMP      ??CrossCallReturnLabel_68
??writeItem_15:
        MOV       A,R0
        ADD       A,#0x3
        JNC       ??writeItem_16
        INC       R1
??writeItem_16:
        LCALL     ?Subroutine33 & 0xFFFF
// 1123 
// 1124     if (len > (OSAL_NV_PAGE_SIZE - pgOff[pg - OSAL_NV_PAGE_BEG]))
??CrossCallReturnLabel_68:
        LCALL     ?Subroutine15 & 0xFFFF
??CrossCallReturnLabel_137:
        MOV       R0,A
        INC       DPTR
        MOVX      A,@DPTR
        MOV       R1,A
        CLR       A
        CLR       C
        SUBB      A,R0
        MOV       R0,A
        MOV       A,#0x8
        SUBB      A,R1
        MOV       R1,A
        CLR       C
        MOV       A,R0
        SUBB      A,R6
        MOV       A,R1
        SUBB      A,R7
        JNC       ??writeItem_17
// 1125     {
// 1126       len = (OSAL_NV_PAGE_SIZE - pgOff[pg - OSAL_NV_PAGE_BEG]);
        MOV       A,R0
        MOV       R6,A
        MOV       A,R1
        MOV       R7,A
// 1127     }
// 1128 
// 1129     pgLost[pg - OSAL_NV_PAGE_BEG] += len;
??writeItem_17:
        MOV       A,#(pgLost + 14) & 0xff
        ADD       A,?V0
        MOV       DPL,A
        MOV       A,#((pgLost - 242) >> 8) & 0xff
        ADDC      A,?V1
        LCALL     ?Subroutine36 & 0xFFFF
// 1130   }
// 1131   pgOff[pg - OSAL_NV_PAGE_BEG] += len;
??CrossCallReturnLabel_108:
        LCALL     ?Subroutine15 & 0xFFFF
??CrossCallReturnLabel_138:
        LCALL     ??Subroutine55_0 & 0xFFFF
// 1132 
// 1133   return rtrn;
??CrossCallReturnLabel_106:
        MOV       R1,?V7
        MOV       A,#0xc
        LJMP      ??Subroutine59_0 & 0xFFFF
// 1134 }
          CFI EndBlock cfiBlock166

        RSEG BANKED_CODE:HUGECODE:NOROOT(0)
?Subroutine38:
          CFI Block cfiCond167 Using cfiCommon0
          CFI Function compactPage
          CFI Conditional ??CrossCallReturnLabel_75
          CFI R6 load(1, XDATA, add(CFA_XSP16, literal(-15)))
          CFI VB load(1, XDATA, add(CFA_XSP16, literal(-14)))
          CFI V0 load(1, XDATA, add(CFA_XSP16, literal(-13)))
          CFI V1 load(1, XDATA, add(CFA_XSP16, literal(-12)))
          CFI V2 load(1, XDATA, add(CFA_XSP16, literal(-11)))
          CFI V3 load(1, XDATA, add(CFA_XSP16, literal(-10)))
          CFI V4 load(1, XDATA, add(CFA_XSP16, literal(-9)))
          CFI V5 load(1, XDATA, add(CFA_XSP16, literal(-8)))
          CFI V6 load(1, XDATA, add(CFA_XSP16, literal(-7)))
          CFI R7 load(1, XDATA, add(CFA_XSP16, literal(-6)))
          CFI ?RET_LOW load(1, XDATA, add(CFA_XSP16, literal(-5)))
          CFI ?RET_HIGH load(1, XDATA, add(CFA_XSP16, literal(-4)))
          CFI ?BRET_EXT load(1, XDATA, add(CFA_XSP16, literal(-3)))
          CFI DPL0 load(1, XDATA, add(CFA_XSP16, literal(-2)))
          CFI DPH0 load(1, XDATA, add(CFA_XSP16, literal(-1)))
          CFI CFA_SP SP+-2
          CFI CFA_XSP16 add(XSP16, 26)
          CFI Block cfiCond168 Using cfiCommon0
          CFI (cfiCond168) Function writeItem
          CFI (cfiCond168) Conditional ??CrossCallReturnLabel_76
          CFI (cfiCond168) R6 load(1, XDATA, add(CFA_XSP16, literal(-16)))
          CFI (cfiCond168) VB load(1, XDATA, add(CFA_XSP16, literal(-15)))
          CFI (cfiCond168) V0 load(1, XDATA, add(CFA_XSP16, literal(-14)))
          CFI (cfiCond168) V1 load(1, XDATA, add(CFA_XSP16, literal(-13)))
          CFI (cfiCond168) V2 load(1, XDATA, add(CFA_XSP16, literal(-12)))
          CFI (cfiCond168) V3 load(1, XDATA, add(CFA_XSP16, literal(-11)))
          CFI (cfiCond168) V4 load(1, XDATA, add(CFA_XSP16, literal(-10)))
          CFI (cfiCond168) V5 load(1, XDATA, add(CFA_XSP16, literal(-9)))
          CFI (cfiCond168) V6 load(1, XDATA, add(CFA_XSP16, literal(-8)))
          CFI (cfiCond168) V7 load(1, XDATA, add(CFA_XSP16, literal(-7)))
          CFI (cfiCond168) R7 load(1, XDATA, add(CFA_XSP16, literal(-6)))
          CFI (cfiCond168) ?RET_LOW load(1, XDATA, add(CFA_XSP16, literal(-5)))
          CFI (cfiCond168) ?RET_HIGH load(1, XDATA, add(CFA_XSP16, literal(-4)))
          CFI (cfiCond168) ?BRET_EXT load(1, XDATA, add(CFA_XSP16, literal(-3)))
          CFI (cfiCond168) DPL0 load(1, XDATA, add(CFA_XSP16, literal(-2)))
          CFI (cfiCond168) DPH0 load(1, XDATA, add(CFA_XSP16, literal(-1)))
          CFI (cfiCond168) CFA_SP SP+-2
          CFI (cfiCond168) CFA_XSP16 add(XSP16, 28)
          CFI Block cfiPicker169 Using cfiCommon1
          CFI (cfiPicker169) NoFunction
          CFI (cfiPicker169) Picker
        MOV       A,?V2
        ADD       A,#0x8
        MOV       ?V2,A
        CLR       A
        ADDC      A,?V3
        MOV       ?V3,A
        RET
          CFI EndBlock cfiCond167
          CFI EndBlock cfiCond168
          CFI EndBlock cfiPicker169

        RSEG BANKED_CODE:HUGECODE:NOROOT(0)
?Subroutine33:
          CFI Block cfiCond170 Using cfiCommon0
          CFI Function setItem
          CFI Conditional ??CrossCallReturnLabel_66
          CFI R6 load(1, XDATA, add(CFA_XSP16, literal(-14)))
          CFI VB load(1, XDATA, add(CFA_XSP16, literal(-13)))
          CFI V0 load(1, XDATA, add(CFA_XSP16, literal(-12)))
          CFI V1 load(1, XDATA, add(CFA_XSP16, literal(-11)))
          CFI V2 load(1, XDATA, add(CFA_XSP16, literal(-10)))
          CFI V3 load(1, XDATA, add(CFA_XSP16, literal(-9)))
          CFI V4 load(1, XDATA, add(CFA_XSP16, literal(-8)))
          CFI V5 load(1, XDATA, add(CFA_XSP16, literal(-7)))
          CFI R7 load(1, XDATA, add(CFA_XSP16, literal(-6)))
          CFI ?RET_LOW load(1, XDATA, add(CFA_XSP16, literal(-5)))
          CFI ?RET_HIGH load(1, XDATA, add(CFA_XSP16, literal(-4)))
          CFI ?BRET_EXT load(1, XDATA, add(CFA_XSP16, literal(-3)))
          CFI DPL0 load(1, XDATA, add(CFA_XSP16, literal(-2)))
          CFI DPH0 load(1, XDATA, add(CFA_XSP16, literal(-1)))
          CFI CFA_SP SP+-2
          CFI CFA_XSP16 add(XSP16, 22)
          CFI Block cfiCond171 Using cfiCommon0
          CFI (cfiCond171) Function writeItem
          CFI (cfiCond171) Conditional ??CrossCallReturnLabel_67
          CFI (cfiCond171) R6 load(1, XDATA, add(CFA_XSP16, literal(-16)))
          CFI (cfiCond171) VB load(1, XDATA, add(CFA_XSP16, literal(-15)))
          CFI (cfiCond171) V0 load(1, XDATA, add(CFA_XSP16, literal(-14)))
          CFI (cfiCond171) V1 load(1, XDATA, add(CFA_XSP16, literal(-13)))
          CFI (cfiCond171) V2 load(1, XDATA, add(CFA_XSP16, literal(-12)))
          CFI (cfiCond171) V3 load(1, XDATA, add(CFA_XSP16, literal(-11)))
          CFI (cfiCond171) V4 load(1, XDATA, add(CFA_XSP16, literal(-10)))
          CFI (cfiCond171) V5 load(1, XDATA, add(CFA_XSP16, literal(-9)))
          CFI (cfiCond171) V6 load(1, XDATA, add(CFA_XSP16, literal(-8)))
          CFI (cfiCond171) V7 load(1, XDATA, add(CFA_XSP16, literal(-7)))
          CFI (cfiCond171) R7 load(1, XDATA, add(CFA_XSP16, literal(-6)))
          CFI (cfiCond171) ?RET_LOW load(1, XDATA, add(CFA_XSP16, literal(-5)))
          CFI (cfiCond171) ?RET_HIGH load(1, XDATA, add(CFA_XSP16, literal(-4)))
          CFI (cfiCond171) ?BRET_EXT load(1, XDATA, add(CFA_XSP16, literal(-3)))
          CFI (cfiCond171) DPL0 load(1, XDATA, add(CFA_XSP16, literal(-2)))
          CFI (cfiCond171) DPH0 load(1, XDATA, add(CFA_XSP16, literal(-1)))
          CFI (cfiCond171) CFA_SP SP+-2
          CFI (cfiCond171) CFA_XSP16 add(XSP16, 28)
          CFI Block cfiCond172 Using cfiCommon0
          CFI (cfiCond172) Function writeItem
          CFI (cfiCond172) Conditional ??CrossCallReturnLabel_68
          CFI (cfiCond172) R6 load(1, XDATA, add(CFA_XSP16, literal(-16)))
          CFI (cfiCond172) VB load(1, XDATA, add(CFA_XSP16, literal(-15)))
          CFI (cfiCond172) V0 load(1, XDATA, add(CFA_XSP16, literal(-14)))
          CFI (cfiCond172) V1 load(1, XDATA, add(CFA_XSP16, literal(-13)))
          CFI (cfiCond172) V2 load(1, XDATA, add(CFA_XSP16, literal(-12)))
          CFI (cfiCond172) V3 load(1, XDATA, add(CFA_XSP16, literal(-11)))
          CFI (cfiCond172) V4 load(1, XDATA, add(CFA_XSP16, literal(-10)))
          CFI (cfiCond172) V5 load(1, XDATA, add(CFA_XSP16, literal(-9)))
          CFI (cfiCond172) V6 load(1, XDATA, add(CFA_XSP16, literal(-8)))
          CFI (cfiCond172) V7 load(1, XDATA, add(CFA_XSP16, literal(-7)))
          CFI (cfiCond172) R7 load(1, XDATA, add(CFA_XSP16, literal(-6)))
          CFI (cfiCond172) ?RET_LOW load(1, XDATA, add(CFA_XSP16, literal(-5)))
          CFI (cfiCond172) ?RET_HIGH load(1, XDATA, add(CFA_XSP16, literal(-4)))
          CFI (cfiCond172) ?BRET_EXT load(1, XDATA, add(CFA_XSP16, literal(-3)))
          CFI (cfiCond172) DPL0 load(1, XDATA, add(CFA_XSP16, literal(-2)))
          CFI (cfiCond172) DPH0 load(1, XDATA, add(CFA_XSP16, literal(-1)))
          CFI (cfiCond172) CFA_SP SP+-2
          CFI (cfiCond172) CFA_XSP16 add(XSP16, 28)
          CFI Block cfiPicker173 Using cfiCommon1
          CFI (cfiPicker173) NoFunction
          CFI (cfiPicker173) Picker
        ANL       A,#0xfc
        ADD       A,#0x8
        MOV       R6,A
        CLR       A
        ADDC      A,R1
        MOV       R7,A
        RET
          CFI EndBlock cfiCond170
          CFI EndBlock cfiCond171
          CFI EndBlock cfiCond172
          CFI EndBlock cfiPicker173

        RSEG BANKED_CODE:HUGECODE:NOROOT(0)
?Subroutine25:
          CFI Block cfiCond174 Using cfiCommon0
          CFI Function compactPage
          CFI Conditional ??CrossCallReturnLabel_50
          CFI R6 load(1, XDATA, add(CFA_XSP16, literal(-15)))
          CFI VB load(1, XDATA, add(CFA_XSP16, literal(-14)))
          CFI V0 load(1, XDATA, add(CFA_XSP16, literal(-13)))
          CFI V1 load(1, XDATA, add(CFA_XSP16, literal(-12)))
          CFI V2 load(1, XDATA, add(CFA_XSP16, literal(-11)))
          CFI V3 load(1, XDATA, add(CFA_XSP16, literal(-10)))
          CFI V4 load(1, XDATA, add(CFA_XSP16, literal(-9)))
          CFI V5 load(1, XDATA, add(CFA_XSP16, literal(-8)))
          CFI V6 load(1, XDATA, add(CFA_XSP16, literal(-7)))
          CFI R7 load(1, XDATA, add(CFA_XSP16, literal(-6)))
          CFI ?RET_LOW load(1, XDATA, add(CFA_XSP16, literal(-5)))
          CFI ?RET_HIGH load(1, XDATA, add(CFA_XSP16, literal(-4)))
          CFI ?BRET_EXT load(1, XDATA, add(CFA_XSP16, literal(-3)))
          CFI DPL0 load(1, XDATA, add(CFA_XSP16, literal(-2)))
          CFI DPH0 load(1, XDATA, add(CFA_XSP16, literal(-1)))
          CFI CFA_SP SP+-2
          CFI CFA_XSP16 add(XSP16, 29)
          CFI Block cfiCond175 Using cfiCommon0
          CFI (cfiCond175) Function writeBuf
          CFI (cfiCond175) Conditional ??CrossCallReturnLabel_51
          CFI (cfiCond175) R6 load(1, XDATA, add(CFA_XSP16, literal(-16)))
          CFI (cfiCond175) VB load(1, XDATA, add(CFA_XSP16, literal(-15)))
          CFI (cfiCond175) V0 load(1, XDATA, add(CFA_XSP16, literal(-14)))
          CFI (cfiCond175) V1 load(1, XDATA, add(CFA_XSP16, literal(-13)))
          CFI (cfiCond175) V2 load(1, XDATA, add(CFA_XSP16, literal(-12)))
          CFI (cfiCond175) V3 load(1, XDATA, add(CFA_XSP16, literal(-11)))
          CFI (cfiCond175) V4 load(1, XDATA, add(CFA_XSP16, literal(-10)))
          CFI (cfiCond175) V5 load(1, XDATA, add(CFA_XSP16, literal(-9)))
          CFI (cfiCond175) V6 load(1, XDATA, add(CFA_XSP16, literal(-8)))
          CFI (cfiCond175) V7 load(1, XDATA, add(CFA_XSP16, literal(-7)))
          CFI (cfiCond175) R7 load(1, XDATA, add(CFA_XSP16, literal(-6)))
          CFI (cfiCond175) ?RET_LOW load(1, XDATA, add(CFA_XSP16, literal(-5)))
          CFI (cfiCond175) ?RET_HIGH load(1, XDATA, add(CFA_XSP16, literal(-4)))
          CFI (cfiCond175) ?BRET_EXT load(1, XDATA, add(CFA_XSP16, literal(-3)))
          CFI (cfiCond175) DPL0 load(1, XDATA, add(CFA_XSP16, literal(-2)))
          CFI (cfiCond175) DPH0 load(1, XDATA, add(CFA_XSP16, literal(-1)))
          CFI (cfiCond175) CFA_SP SP+-2
          CFI (cfiCond175) CFA_XSP16 add(XSP16, 22)
          CFI Block cfiCond176 Using cfiCommon0
          CFI (cfiCond176) Function writeItem
          CFI (cfiCond176) Conditional ??CrossCallReturnLabel_52
          CFI (cfiCond176) R6 load(1, XDATA, add(CFA_XSP16, literal(-16)))
          CFI (cfiCond176) VB load(1, XDATA, add(CFA_XSP16, literal(-15)))
          CFI (cfiCond176) V0 load(1, XDATA, add(CFA_XSP16, literal(-14)))
          CFI (cfiCond176) V1 load(1, XDATA, add(CFA_XSP16, literal(-13)))
          CFI (cfiCond176) V2 load(1, XDATA, add(CFA_XSP16, literal(-12)))
          CFI (cfiCond176) V3 load(1, XDATA, add(CFA_XSP16, literal(-11)))
          CFI (cfiCond176) V4 load(1, XDATA, add(CFA_XSP16, literal(-10)))
          CFI (cfiCond176) V5 load(1, XDATA, add(CFA_XSP16, literal(-9)))
          CFI (cfiCond176) V6 load(1, XDATA, add(CFA_XSP16, literal(-8)))
          CFI (cfiCond176) V7 load(1, XDATA, add(CFA_XSP16, literal(-7)))
          CFI (cfiCond176) R7 load(1, XDATA, add(CFA_XSP16, literal(-6)))
          CFI (cfiCond176) ?RET_LOW load(1, XDATA, add(CFA_XSP16, literal(-5)))
          CFI (cfiCond176) ?RET_HIGH load(1, XDATA, add(CFA_XSP16, literal(-4)))
          CFI (cfiCond176) ?BRET_EXT load(1, XDATA, add(CFA_XSP16, literal(-3)))
          CFI (cfiCond176) DPL0 load(1, XDATA, add(CFA_XSP16, literal(-2)))
          CFI (cfiCond176) DPH0 load(1, XDATA, add(CFA_XSP16, literal(-1)))
          CFI (cfiCond176) CFA_SP SP+-2
          CFI (cfiCond176) CFA_XSP16 add(XSP16, 28)
          CFI Block cfiCond177 Using cfiCommon0
          CFI (cfiCond177) Function osal_nv_write
          CFI (cfiCond177) Conditional ??CrossCallReturnLabel_53
          CFI (cfiCond177) R6 load(1, XDATA, add(CFA_XSP16, literal(-16)))
          CFI (cfiCond177) VB load(1, XDATA, add(CFA_XSP16, literal(-15)))
          CFI (cfiCond177) V0 load(1, XDATA, add(CFA_XSP16, literal(-14)))
          CFI (cfiCond177) V1 load(1, XDATA, add(CFA_XSP16, literal(-13)))
          CFI (cfiCond177) V2 load(1, XDATA, add(CFA_XSP16, literal(-12)))
          CFI (cfiCond177) V3 load(1, XDATA, add(CFA_XSP16, literal(-11)))
          CFI (cfiCond177) V4 load(1, XDATA, add(CFA_XSP16, literal(-10)))
          CFI (cfiCond177) V5 load(1, XDATA, add(CFA_XSP16, literal(-9)))
          CFI (cfiCond177) V6 load(1, XDATA, add(CFA_XSP16, literal(-8)))
          CFI (cfiCond177) V7 load(1, XDATA, add(CFA_XSP16, literal(-7)))
          CFI (cfiCond177) R7 load(1, XDATA, add(CFA_XSP16, literal(-6)))
          CFI (cfiCond177) ?RET_LOW load(1, XDATA, add(CFA_XSP16, literal(-5)))
          CFI (cfiCond177) ?RET_HIGH load(1, XDATA, add(CFA_XSP16, literal(-4)))
          CFI (cfiCond177) ?BRET_EXT load(1, XDATA, add(CFA_XSP16, literal(-3)))
          CFI (cfiCond177) DPL0 load(1, XDATA, add(CFA_XSP16, literal(-2)))
          CFI (cfiCond177) DPH0 load(1, XDATA, add(CFA_XSP16, literal(-1)))
          CFI (cfiCond177) CFA_SP SP+-2
          CFI (cfiCond177) CFA_XSP16 add(XSP16, 37)
          CFI Block cfiPicker178 Using cfiCommon1
          CFI (cfiPicker178) NoFunction
          CFI (cfiPicker178) Picker
        LCALL     ?Subroutine44 & 0xFFFF
??CrossCallReturnLabel_92:
        RET
          CFI EndBlock cfiCond174
          CFI EndBlock cfiCond175
          CFI EndBlock cfiCond176
          CFI EndBlock cfiCond177
          CFI EndBlock cfiPicker178

        RSEG BANKED_CODE:HUGECODE:NOROOT(0)
?Subroutine44:
          CFI Block cfiCond179 Using cfiCommon0
          CFI Function initPage
          CFI Conditional ??CrossCallReturnLabel_90, ??CrossCallReturnLabel_26
          CFI R6 load(1, XDATA, add(CFA_XSP16, literal(-16)))
          CFI VB load(1, XDATA, add(CFA_XSP16, literal(-15)))
          CFI V0 load(1, XDATA, add(CFA_XSP16, literal(-14)))
          CFI V1 load(1, XDATA, add(CFA_XSP16, literal(-13)))
          CFI V2 load(1, XDATA, add(CFA_XSP16, literal(-12)))
          CFI V3 load(1, XDATA, add(CFA_XSP16, literal(-11)))
          CFI V4 load(1, XDATA, add(CFA_XSP16, literal(-10)))
          CFI V5 load(1, XDATA, add(CFA_XSP16, literal(-9)))
          CFI V6 load(1, XDATA, add(CFA_XSP16, literal(-8)))
          CFI V7 load(1, XDATA, add(CFA_XSP16, literal(-7)))
          CFI R7 load(1, XDATA, add(CFA_XSP16, literal(-6)))
          CFI ?RET_LOW load(1, XDATA, add(CFA_XSP16, literal(-5)))
          CFI ?RET_HIGH load(1, XDATA, add(CFA_XSP16, literal(-4)))
          CFI ?BRET_EXT load(1, XDATA, add(CFA_XSP16, literal(-3)))
          CFI DPL0 load(1, XDATA, add(CFA_XSP16, literal(-2)))
          CFI DPH0 load(1, XDATA, add(CFA_XSP16, literal(-1)))
          CFI CFA_SP SP+-4
          CFI CFA_XSP16 add(XSP16, 26)
          CFI Block cfiCond180 Using cfiCommon0
          CFI (cfiCond180) Function compactPage
          CFI (cfiCond180) Conditional ??CrossCallReturnLabel_90, ??CrossCallReturnLabel_27
          CFI (cfiCond180) R6 load(1, XDATA, add(CFA_XSP16, literal(-15)))
          CFI (cfiCond180) VB load(1, XDATA, add(CFA_XSP16, literal(-14)))
          CFI (cfiCond180) V0 load(1, XDATA, add(CFA_XSP16, literal(-13)))
          CFI (cfiCond180) V1 load(1, XDATA, add(CFA_XSP16, literal(-12)))
          CFI (cfiCond180) V2 load(1, XDATA, add(CFA_XSP16, literal(-11)))
          CFI (cfiCond180) V3 load(1, XDATA, add(CFA_XSP16, literal(-10)))
          CFI (cfiCond180) V4 load(1, XDATA, add(CFA_XSP16, literal(-9)))
          CFI (cfiCond180) V5 load(1, XDATA, add(CFA_XSP16, literal(-8)))
          CFI (cfiCond180) V6 load(1, XDATA, add(CFA_XSP16, literal(-7)))
          CFI (cfiCond180) R7 load(1, XDATA, add(CFA_XSP16, literal(-6)))
          CFI (cfiCond180) ?RET_LOW load(1, XDATA, add(CFA_XSP16, literal(-5)))
          CFI (cfiCond180) ?RET_HIGH load(1, XDATA, add(CFA_XSP16, literal(-4)))
          CFI (cfiCond180) ?BRET_EXT load(1, XDATA, add(CFA_XSP16, literal(-3)))
          CFI (cfiCond180) DPL0 load(1, XDATA, add(CFA_XSP16, literal(-2)))
          CFI (cfiCond180) DPH0 load(1, XDATA, add(CFA_XSP16, literal(-1)))
          CFI (cfiCond180) CFA_SP SP+-4
          CFI (cfiCond180) CFA_XSP16 add(XSP16, 26)
          CFI Block cfiCond181 Using cfiCommon0
          CFI (cfiCond181) Function compactPage
          CFI (cfiCond181) Conditional ??CrossCallReturnLabel_89, ??CrossCallReturnLabel_24
          CFI (cfiCond181) R6 load(1, XDATA, add(CFA_XSP16, literal(-15)))
          CFI (cfiCond181) VB load(1, XDATA, add(CFA_XSP16, literal(-14)))
          CFI (cfiCond181) V0 load(1, XDATA, add(CFA_XSP16, literal(-13)))
          CFI (cfiCond181) V1 load(1, XDATA, add(CFA_XSP16, literal(-12)))
          CFI (cfiCond181) V2 load(1, XDATA, add(CFA_XSP16, literal(-11)))
          CFI (cfiCond181) V3 load(1, XDATA, add(CFA_XSP16, literal(-10)))
          CFI (cfiCond181) V4 load(1, XDATA, add(CFA_XSP16, literal(-9)))
          CFI (cfiCond181) V5 load(1, XDATA, add(CFA_XSP16, literal(-8)))
          CFI (cfiCond181) V6 load(1, XDATA, add(CFA_XSP16, literal(-7)))
          CFI (cfiCond181) R7 load(1, XDATA, add(CFA_XSP16, literal(-6)))
          CFI (cfiCond181) ?RET_LOW load(1, XDATA, add(CFA_XSP16, literal(-5)))
          CFI (cfiCond181) ?RET_HIGH load(1, XDATA, add(CFA_XSP16, literal(-4)))
          CFI (cfiCond181) ?BRET_EXT load(1, XDATA, add(CFA_XSP16, literal(-3)))
          CFI (cfiCond181) DPL0 load(1, XDATA, add(CFA_XSP16, literal(-2)))
          CFI (cfiCond181) DPH0 load(1, XDATA, add(CFA_XSP16, literal(-1)))
          CFI (cfiCond181) CFA_SP SP+-4
          CFI (cfiCond181) CFA_XSP16 add(XSP16, 26)
          CFI Block cfiCond182 Using cfiCommon0
          CFI (cfiCond182) Function compactPage
          CFI (cfiCond182) Conditional ??CrossCallReturnLabel_89, ??CrossCallReturnLabel_25
          CFI (cfiCond182) R6 load(1, XDATA, add(CFA_XSP16, literal(-15)))
          CFI (cfiCond182) VB load(1, XDATA, add(CFA_XSP16, literal(-14)))
          CFI (cfiCond182) V0 load(1, XDATA, add(CFA_XSP16, literal(-13)))
          CFI (cfiCond182) V1 load(1, XDATA, add(CFA_XSP16, literal(-12)))
          CFI (cfiCond182) V2 load(1, XDATA, add(CFA_XSP16, literal(-11)))
          CFI (cfiCond182) V3 load(1, XDATA, add(CFA_XSP16, literal(-10)))
          CFI (cfiCond182) V4 load(1, XDATA, add(CFA_XSP16, literal(-9)))
          CFI (cfiCond182) V5 load(1, XDATA, add(CFA_XSP16, literal(-8)))
          CFI (cfiCond182) V6 load(1, XDATA, add(CFA_XSP16, literal(-7)))
          CFI (cfiCond182) R7 load(1, XDATA, add(CFA_XSP16, literal(-6)))
          CFI (cfiCond182) ?RET_LOW load(1, XDATA, add(CFA_XSP16, literal(-5)))
          CFI (cfiCond182) ?RET_HIGH load(1, XDATA, add(CFA_XSP16, literal(-4)))
          CFI (cfiCond182) ?BRET_EXT load(1, XDATA, add(CFA_XSP16, literal(-3)))
          CFI (cfiCond182) DPL0 load(1, XDATA, add(CFA_XSP16, literal(-2)))
          CFI (cfiCond182) DPH0 load(1, XDATA, add(CFA_XSP16, literal(-1)))
          CFI (cfiCond182) CFA_SP SP+-4
          CFI (cfiCond182) CFA_XSP16 add(XSP16, 26)
          CFI Block cfiCond183 Using cfiCommon0
          CFI (cfiCond183) Function compactPage
          CFI (cfiCond183) Conditional ??CrossCallReturnLabel_92, ??CrossCallReturnLabel_50
          CFI (cfiCond183) R6 load(1, XDATA, add(CFA_XSP16, literal(-15)))
          CFI (cfiCond183) VB load(1, XDATA, add(CFA_XSP16, literal(-14)))
          CFI (cfiCond183) V0 load(1, XDATA, add(CFA_XSP16, literal(-13)))
          CFI (cfiCond183) V1 load(1, XDATA, add(CFA_XSP16, literal(-12)))
          CFI (cfiCond183) V2 load(1, XDATA, add(CFA_XSP16, literal(-11)))
          CFI (cfiCond183) V3 load(1, XDATA, add(CFA_XSP16, literal(-10)))
          CFI (cfiCond183) V4 load(1, XDATA, add(CFA_XSP16, literal(-9)))
          CFI (cfiCond183) V5 load(1, XDATA, add(CFA_XSP16, literal(-8)))
          CFI (cfiCond183) V6 load(1, XDATA, add(CFA_XSP16, literal(-7)))
          CFI (cfiCond183) R7 load(1, XDATA, add(CFA_XSP16, literal(-6)))
          CFI (cfiCond183) ?RET_LOW load(1, XDATA, add(CFA_XSP16, literal(-5)))
          CFI (cfiCond183) ?RET_HIGH load(1, XDATA, add(CFA_XSP16, literal(-4)))
          CFI (cfiCond183) ?BRET_EXT load(1, XDATA, add(CFA_XSP16, literal(-3)))
          CFI (cfiCond183) DPL0 load(1, XDATA, add(CFA_XSP16, literal(-2)))
          CFI (cfiCond183) DPH0 load(1, XDATA, add(CFA_XSP16, literal(-1)))
          CFI (cfiCond183) CFA_SP SP+-4
          CFI (cfiCond183) CFA_XSP16 add(XSP16, 29)
          CFI Block cfiCond184 Using cfiCommon0
          CFI (cfiCond184) Function writeBuf
          CFI (cfiCond184) Conditional ??CrossCallReturnLabel_92, ??CrossCallReturnLabel_51
          CFI (cfiCond184) R6 load(1, XDATA, add(CFA_XSP16, literal(-16)))
          CFI (cfiCond184) VB load(1, XDATA, add(CFA_XSP16, literal(-15)))
          CFI (cfiCond184) V0 load(1, XDATA, add(CFA_XSP16, literal(-14)))
          CFI (cfiCond184) V1 load(1, XDATA, add(CFA_XSP16, literal(-13)))
          CFI (cfiCond184) V2 load(1, XDATA, add(CFA_XSP16, literal(-12)))
          CFI (cfiCond184) V3 load(1, XDATA, add(CFA_XSP16, literal(-11)))
          CFI (cfiCond184) V4 load(1, XDATA, add(CFA_XSP16, literal(-10)))
          CFI (cfiCond184) V5 load(1, XDATA, add(CFA_XSP16, literal(-9)))
          CFI (cfiCond184) V6 load(1, XDATA, add(CFA_XSP16, literal(-8)))
          CFI (cfiCond184) V7 load(1, XDATA, add(CFA_XSP16, literal(-7)))
          CFI (cfiCond184) R7 load(1, XDATA, add(CFA_XSP16, literal(-6)))
          CFI (cfiCond184) ?RET_LOW load(1, XDATA, add(CFA_XSP16, literal(-5)))
          CFI (cfiCond184) ?RET_HIGH load(1, XDATA, add(CFA_XSP16, literal(-4)))
          CFI (cfiCond184) ?BRET_EXT load(1, XDATA, add(CFA_XSP16, literal(-3)))
          CFI (cfiCond184) DPL0 load(1, XDATA, add(CFA_XSP16, literal(-2)))
          CFI (cfiCond184) DPH0 load(1, XDATA, add(CFA_XSP16, literal(-1)))
          CFI (cfiCond184) CFA_SP SP+-4
          CFI (cfiCond184) CFA_XSP16 add(XSP16, 22)
          CFI Block cfiCond185 Using cfiCommon0
          CFI (cfiCond185) Function writeItem
          CFI (cfiCond185) Conditional ??CrossCallReturnLabel_92, ??CrossCallReturnLabel_52
          CFI (cfiCond185) R6 load(1, XDATA, add(CFA_XSP16, literal(-16)))
          CFI (cfiCond185) VB load(1, XDATA, add(CFA_XSP16, literal(-15)))
          CFI (cfiCond185) V0 load(1, XDATA, add(CFA_XSP16, literal(-14)))
          CFI (cfiCond185) V1 load(1, XDATA, add(CFA_XSP16, literal(-13)))
          CFI (cfiCond185) V2 load(1, XDATA, add(CFA_XSP16, literal(-12)))
          CFI (cfiCond185) V3 load(1, XDATA, add(CFA_XSP16, literal(-11)))
          CFI (cfiCond185) V4 load(1, XDATA, add(CFA_XSP16, literal(-10)))
          CFI (cfiCond185) V5 load(1, XDATA, add(CFA_XSP16, literal(-9)))
          CFI (cfiCond185) V6 load(1, XDATA, add(CFA_XSP16, literal(-8)))
          CFI (cfiCond185) V7 load(1, XDATA, add(CFA_XSP16, literal(-7)))
          CFI (cfiCond185) R7 load(1, XDATA, add(CFA_XSP16, literal(-6)))
          CFI (cfiCond185) ?RET_LOW load(1, XDATA, add(CFA_XSP16, literal(-5)))
          CFI (cfiCond185) ?RET_HIGH load(1, XDATA, add(CFA_XSP16, literal(-4)))
          CFI (cfiCond185) ?BRET_EXT load(1, XDATA, add(CFA_XSP16, literal(-3)))
          CFI (cfiCond185) DPL0 load(1, XDATA, add(CFA_XSP16, literal(-2)))
          CFI (cfiCond185) DPH0 load(1, XDATA, add(CFA_XSP16, literal(-1)))
          CFI (cfiCond185) CFA_SP SP+-4
          CFI (cfiCond185) CFA_XSP16 add(XSP16, 28)
          CFI Block cfiCond186 Using cfiCommon0
          CFI (cfiCond186) Function osal_nv_write
          CFI (cfiCond186) Conditional ??CrossCallReturnLabel_92, ??CrossCallReturnLabel_53
          CFI (cfiCond186) R6 load(1, XDATA, add(CFA_XSP16, literal(-16)))
          CFI (cfiCond186) VB load(1, XDATA, add(CFA_XSP16, literal(-15)))
          CFI (cfiCond186) V0 load(1, XDATA, add(CFA_XSP16, literal(-14)))
          CFI (cfiCond186) V1 load(1, XDATA, add(CFA_XSP16, literal(-13)))
          CFI (cfiCond186) V2 load(1, XDATA, add(CFA_XSP16, literal(-12)))
          CFI (cfiCond186) V3 load(1, XDATA, add(CFA_XSP16, literal(-11)))
          CFI (cfiCond186) V4 load(1, XDATA, add(CFA_XSP16, literal(-10)))
          CFI (cfiCond186) V5 load(1, XDATA, add(CFA_XSP16, literal(-9)))
          CFI (cfiCond186) V6 load(1, XDATA, add(CFA_XSP16, literal(-8)))
          CFI (cfiCond186) V7 load(1, XDATA, add(CFA_XSP16, literal(-7)))
          CFI (cfiCond186) R7 load(1, XDATA, add(CFA_XSP16, literal(-6)))
          CFI (cfiCond186) ?RET_LOW load(1, XDATA, add(CFA_XSP16, literal(-5)))
          CFI (cfiCond186) ?RET_HIGH load(1, XDATA, add(CFA_XSP16, literal(-4)))
          CFI (cfiCond186) ?BRET_EXT load(1, XDATA, add(CFA_XSP16, literal(-3)))
          CFI (cfiCond186) DPL0 load(1, XDATA, add(CFA_XSP16, literal(-2)))
          CFI (cfiCond186) DPH0 load(1, XDATA, add(CFA_XSP16, literal(-1)))
          CFI (cfiCond186) CFA_SP SP+-4
          CFI (cfiCond186) CFA_XSP16 add(XSP16, 37)
          CFI Block cfiCond187 Using cfiCommon0
          CFI (cfiCond187) Function compactPage
          CFI (cfiCond187) Conditional ??CrossCallReturnLabel_91, ??CrossCallReturnLabel_31
          CFI (cfiCond187) R6 load(1, XDATA, add(CFA_XSP16, literal(-15)))
          CFI (cfiCond187) VB load(1, XDATA, add(CFA_XSP16, literal(-14)))
          CFI (cfiCond187) V0 load(1, XDATA, add(CFA_XSP16, literal(-13)))
          CFI (cfiCond187) V1 load(1, XDATA, add(CFA_XSP16, literal(-12)))
          CFI (cfiCond187) V2 load(1, XDATA, add(CFA_XSP16, literal(-11)))
          CFI (cfiCond187) V3 load(1, XDATA, add(CFA_XSP16, literal(-10)))
          CFI (cfiCond187) V4 load(1, XDATA, add(CFA_XSP16, literal(-9)))
          CFI (cfiCond187) V5 load(1, XDATA, add(CFA_XSP16, literal(-8)))
          CFI (cfiCond187) V6 load(1, XDATA, add(CFA_XSP16, literal(-7)))
          CFI (cfiCond187) R7 load(1, XDATA, add(CFA_XSP16, literal(-6)))
          CFI (cfiCond187) ?RET_LOW load(1, XDATA, add(CFA_XSP16, literal(-5)))
          CFI (cfiCond187) ?RET_HIGH load(1, XDATA, add(CFA_XSP16, literal(-4)))
          CFI (cfiCond187) ?BRET_EXT load(1, XDATA, add(CFA_XSP16, literal(-3)))
          CFI (cfiCond187) DPL0 load(1, XDATA, add(CFA_XSP16, literal(-2)))
          CFI (cfiCond187) DPH0 load(1, XDATA, add(CFA_XSP16, literal(-1)))
          CFI (cfiCond187) CFA_SP SP+-4
          CFI (cfiCond187) CFA_XSP16 add(XSP16, 26)
          CFI Block cfiCond188 Using cfiCommon0
          CFI (cfiCond188) Function writeItem
          CFI (cfiCond188) Conditional ??CrossCallReturnLabel_91, ??CrossCallReturnLabel_32
          CFI (cfiCond188) R6 load(1, XDATA, add(CFA_XSP16, literal(-16)))
          CFI (cfiCond188) VB load(1, XDATA, add(CFA_XSP16, literal(-15)))
          CFI (cfiCond188) V0 load(1, XDATA, add(CFA_XSP16, literal(-14)))
          CFI (cfiCond188) V1 load(1, XDATA, add(CFA_XSP16, literal(-13)))
          CFI (cfiCond188) V2 load(1, XDATA, add(CFA_XSP16, literal(-12)))
          CFI (cfiCond188) V3 load(1, XDATA, add(CFA_XSP16, literal(-11)))
          CFI (cfiCond188) V4 load(1, XDATA, add(CFA_XSP16, literal(-10)))
          CFI (cfiCond188) V5 load(1, XDATA, add(CFA_XSP16, literal(-9)))
          CFI (cfiCond188) V6 load(1, XDATA, add(CFA_XSP16, literal(-8)))
          CFI (cfiCond188) V7 load(1, XDATA, add(CFA_XSP16, literal(-7)))
          CFI (cfiCond188) R7 load(1, XDATA, add(CFA_XSP16, literal(-6)))
          CFI (cfiCond188) ?RET_LOW load(1, XDATA, add(CFA_XSP16, literal(-5)))
          CFI (cfiCond188) ?RET_HIGH load(1, XDATA, add(CFA_XSP16, literal(-4)))
          CFI (cfiCond188) ?BRET_EXT load(1, XDATA, add(CFA_XSP16, literal(-3)))
          CFI (cfiCond188) DPL0 load(1, XDATA, add(CFA_XSP16, literal(-2)))
          CFI (cfiCond188) DPH0 load(1, XDATA, add(CFA_XSP16, literal(-1)))
          CFI (cfiCond188) CFA_SP SP+-4
          CFI (cfiCond188) CFA_XSP16 add(XSP16, 28)
          CFI Block cfiCond189 Using cfiCommon0
          CFI (cfiCond189) Function osal_nv_write
          CFI (cfiCond189) Conditional ??CrossCallReturnLabel_91, ??CrossCallReturnLabel_33
          CFI (cfiCond189) R6 load(1, XDATA, add(CFA_XSP16, literal(-16)))
          CFI (cfiCond189) VB load(1, XDATA, add(CFA_XSP16, literal(-15)))
          CFI (cfiCond189) V0 load(1, XDATA, add(CFA_XSP16, literal(-14)))
          CFI (cfiCond189) V1 load(1, XDATA, add(CFA_XSP16, literal(-13)))
          CFI (cfiCond189) V2 load(1, XDATA, add(CFA_XSP16, literal(-12)))
          CFI (cfiCond189) V3 load(1, XDATA, add(CFA_XSP16, literal(-11)))
          CFI (cfiCond189) V4 load(1, XDATA, add(CFA_XSP16, literal(-10)))
          CFI (cfiCond189) V5 load(1, XDATA, add(CFA_XSP16, literal(-9)))
          CFI (cfiCond189) V6 load(1, XDATA, add(CFA_XSP16, literal(-8)))
          CFI (cfiCond189) V7 load(1, XDATA, add(CFA_XSP16, literal(-7)))
          CFI (cfiCond189) R7 load(1, XDATA, add(CFA_XSP16, literal(-6)))
          CFI (cfiCond189) ?RET_LOW load(1, XDATA, add(CFA_XSP16, literal(-5)))
          CFI (cfiCond189) ?RET_HIGH load(1, XDATA, add(CFA_XSP16, literal(-4)))
          CFI (cfiCond189) ?BRET_EXT load(1, XDATA, add(CFA_XSP16, literal(-3)))
          CFI (cfiCond189) DPL0 load(1, XDATA, add(CFA_XSP16, literal(-2)))
          CFI (cfiCond189) DPH0 load(1, XDATA, add(CFA_XSP16, literal(-1)))
          CFI (cfiCond189) CFA_SP SP+-4
          CFI (cfiCond189) CFA_XSP16 add(XSP16, 35)
          CFI Block cfiCond190 Using cfiCommon0
          CFI (cfiCond190) Function osal_nv_write
          CFI (cfiCond190) Conditional ??CrossCallReturnLabel_88, ??CrossCallReturnLabel_19
          CFI (cfiCond190) R6 load(1, XDATA, add(CFA_XSP16, literal(-16)))
          CFI (cfiCond190) VB load(1, XDATA, add(CFA_XSP16, literal(-15)))
          CFI (cfiCond190) V0 load(1, XDATA, add(CFA_XSP16, literal(-14)))
          CFI (cfiCond190) V1 load(1, XDATA, add(CFA_XSP16, literal(-13)))
          CFI (cfiCond190) V2 load(1, XDATA, add(CFA_XSP16, literal(-12)))
          CFI (cfiCond190) V3 load(1, XDATA, add(CFA_XSP16, literal(-11)))
          CFI (cfiCond190) V4 load(1, XDATA, add(CFA_XSP16, literal(-10)))
          CFI (cfiCond190) V5 load(1, XDATA, add(CFA_XSP16, literal(-9)))
          CFI (cfiCond190) V6 load(1, XDATA, add(CFA_XSP16, literal(-8)))
          CFI (cfiCond190) V7 load(1, XDATA, add(CFA_XSP16, literal(-7)))
          CFI (cfiCond190) R7 load(1, XDATA, add(CFA_XSP16, literal(-6)))
          CFI (cfiCond190) ?RET_LOW load(1, XDATA, add(CFA_XSP16, literal(-5)))
          CFI (cfiCond190) ?RET_HIGH load(1, XDATA, add(CFA_XSP16, literal(-4)))
          CFI (cfiCond190) ?BRET_EXT load(1, XDATA, add(CFA_XSP16, literal(-3)))
          CFI (cfiCond190) DPL0 load(1, XDATA, add(CFA_XSP16, literal(-2)))
          CFI (cfiCond190) DPH0 load(1, XDATA, add(CFA_XSP16, literal(-1)))
          CFI (cfiCond190) CFA_SP SP+-4
          CFI (cfiCond190) CFA_XSP16 add(XSP16, 37)
          CFI Block cfiCond191 Using cfiCommon0
          CFI (cfiCond191) Function osal_nv_write
          CFI (cfiCond191) Conditional ??CrossCallReturnLabel_88, ??CrossCallReturnLabel_20
          CFI (cfiCond191) R6 load(1, XDATA, add(CFA_XSP16, literal(-16)))
          CFI (cfiCond191) VB load(1, XDATA, add(CFA_XSP16, literal(-15)))
          CFI (cfiCond191) V0 load(1, XDATA, add(CFA_XSP16, literal(-14)))
          CFI (cfiCond191) V1 load(1, XDATA, add(CFA_XSP16, literal(-13)))
          CFI (cfiCond191) V2 load(1, XDATA, add(CFA_XSP16, literal(-12)))
          CFI (cfiCond191) V3 load(1, XDATA, add(CFA_XSP16, literal(-11)))
          CFI (cfiCond191) V4 load(1, XDATA, add(CFA_XSP16, literal(-10)))
          CFI (cfiCond191) V5 load(1, XDATA, add(CFA_XSP16, literal(-9)))
          CFI (cfiCond191) V6 load(1, XDATA, add(CFA_XSP16, literal(-8)))
          CFI (cfiCond191) V7 load(1, XDATA, add(CFA_XSP16, literal(-7)))
          CFI (cfiCond191) R7 load(1, XDATA, add(CFA_XSP16, literal(-6)))
          CFI (cfiCond191) ?RET_LOW load(1, XDATA, add(CFA_XSP16, literal(-5)))
          CFI (cfiCond191) ?RET_HIGH load(1, XDATA, add(CFA_XSP16, literal(-4)))
          CFI (cfiCond191) ?BRET_EXT load(1, XDATA, add(CFA_XSP16, literal(-3)))
          CFI (cfiCond191) DPL0 load(1, XDATA, add(CFA_XSP16, literal(-2)))
          CFI (cfiCond191) DPH0 load(1, XDATA, add(CFA_XSP16, literal(-1)))
          CFI (cfiCond191) CFA_SP SP+-4
          CFI (cfiCond191) CFA_XSP16 add(XSP16, 35)
          CFI Block cfiCond192 Using cfiCommon0
          CFI (cfiCond192) Function osal_nv_write
          CFI (cfiCond192) Conditional ??CrossCallReturnLabel_88, ??CrossCallReturnLabel_21
          CFI (cfiCond192) R6 load(1, XDATA, add(CFA_XSP16, literal(-16)))
          CFI (cfiCond192) VB load(1, XDATA, add(CFA_XSP16, literal(-15)))
          CFI (cfiCond192) V0 load(1, XDATA, add(CFA_XSP16, literal(-14)))
          CFI (cfiCond192) V1 load(1, XDATA, add(CFA_XSP16, literal(-13)))
          CFI (cfiCond192) V2 load(1, XDATA, add(CFA_XSP16, literal(-12)))
          CFI (cfiCond192) V3 load(1, XDATA, add(CFA_XSP16, literal(-11)))
          CFI (cfiCond192) V4 load(1, XDATA, add(CFA_XSP16, literal(-10)))
          CFI (cfiCond192) V5 load(1, XDATA, add(CFA_XSP16, literal(-9)))
          CFI (cfiCond192) V6 load(1, XDATA, add(CFA_XSP16, literal(-8)))
          CFI (cfiCond192) V7 load(1, XDATA, add(CFA_XSP16, literal(-7)))
          CFI (cfiCond192) R7 load(1, XDATA, add(CFA_XSP16, literal(-6)))
          CFI (cfiCond192) ?RET_LOW load(1, XDATA, add(CFA_XSP16, literal(-5)))
          CFI (cfiCond192) ?RET_HIGH load(1, XDATA, add(CFA_XSP16, literal(-4)))
          CFI (cfiCond192) ?BRET_EXT load(1, XDATA, add(CFA_XSP16, literal(-3)))
          CFI (cfiCond192) DPL0 load(1, XDATA, add(CFA_XSP16, literal(-2)))
          CFI (cfiCond192) DPH0 load(1, XDATA, add(CFA_XSP16, literal(-1)))
          CFI (cfiCond192) CFA_SP SP+-4
          CFI (cfiCond192) CFA_XSP16 add(XSP16, 35)
          CFI Block cfiPicker193 Using cfiCommon1
          CFI (cfiPicker193) NoFunction
          CFI (cfiPicker193) Picker
        MOVX      A,@DPTR
        MOV       R4,A
        INC       DPTR
        MOVX      A,@DPTR
        MOV       R5,A
        RET
          CFI EndBlock cfiCond179
          CFI EndBlock cfiCond180
          CFI EndBlock cfiCond181
          CFI EndBlock cfiCond182
          CFI EndBlock cfiCond183
          CFI EndBlock cfiCond184
          CFI EndBlock cfiCond185
          CFI EndBlock cfiCond186
          CFI EndBlock cfiCond187
          CFI EndBlock cfiCond188
          CFI EndBlock cfiCond189
          CFI EndBlock cfiCond190
          CFI EndBlock cfiCond191
          CFI EndBlock cfiCond192
          CFI EndBlock cfiPicker193

        RSEG BANKED_CODE:HUGECODE:NOROOT(0)
?Subroutine22:
          CFI Block cfiCond194 Using cfiCommon0
          CFI Function initPage
          CFI Conditional ??CrossCallReturnLabel_38
          CFI R6 load(1, XDATA, add(CFA_XSP16, literal(-16)))
          CFI VB load(1, XDATA, add(CFA_XSP16, literal(-15)))
          CFI V0 load(1, XDATA, add(CFA_XSP16, literal(-14)))
          CFI V1 load(1, XDATA, add(CFA_XSP16, literal(-13)))
          CFI V2 load(1, XDATA, add(CFA_XSP16, literal(-12)))
          CFI V3 load(1, XDATA, add(CFA_XSP16, literal(-11)))
          CFI V4 load(1, XDATA, add(CFA_XSP16, literal(-10)))
          CFI V5 load(1, XDATA, add(CFA_XSP16, literal(-9)))
          CFI V6 load(1, XDATA, add(CFA_XSP16, literal(-8)))
          CFI V7 load(1, XDATA, add(CFA_XSP16, literal(-7)))
          CFI R7 load(1, XDATA, add(CFA_XSP16, literal(-6)))
          CFI ?RET_LOW load(1, XDATA, add(CFA_XSP16, literal(-5)))
          CFI ?RET_HIGH load(1, XDATA, add(CFA_XSP16, literal(-4)))
          CFI ?BRET_EXT load(1, XDATA, add(CFA_XSP16, literal(-3)))
          CFI DPL0 load(1, XDATA, add(CFA_XSP16, literal(-2)))
          CFI DPH0 load(1, XDATA, add(CFA_XSP16, literal(-1)))
          CFI CFA_SP SP+-2
          CFI CFA_XSP16 add(XSP16, 26)
          CFI Block cfiCond195 Using cfiCommon0
          CFI (cfiCond195) Function initItem
          CFI (cfiCond195) Conditional ??CrossCallReturnLabel_39
          CFI (cfiCond195) R6 load(1, XDATA, add(CFA_XSP16, literal(-16)))
          CFI (cfiCond195) VB load(1, XDATA, add(CFA_XSP16, literal(-15)))
          CFI (cfiCond195) V0 load(1, XDATA, add(CFA_XSP16, literal(-14)))
          CFI (cfiCond195) V1 load(1, XDATA, add(CFA_XSP16, literal(-13)))
          CFI (cfiCond195) V2 load(1, XDATA, add(CFA_XSP16, literal(-12)))
          CFI (cfiCond195) V3 load(1, XDATA, add(CFA_XSP16, literal(-11)))
          CFI (cfiCond195) V4 load(1, XDATA, add(CFA_XSP16, literal(-10)))
          CFI (cfiCond195) V5 load(1, XDATA, add(CFA_XSP16, literal(-9)))
          CFI (cfiCond195) V6 load(1, XDATA, add(CFA_XSP16, literal(-8)))
          CFI (cfiCond195) V7 load(1, XDATA, add(CFA_XSP16, literal(-7)))
          CFI (cfiCond195) R7 load(1, XDATA, add(CFA_XSP16, literal(-6)))
          CFI (cfiCond195) ?RET_LOW load(1, XDATA, add(CFA_XSP16, literal(-5)))
          CFI (cfiCond195) ?RET_HIGH load(1, XDATA, add(CFA_XSP16, literal(-4)))
          CFI (cfiCond195) ?BRET_EXT load(1, XDATA, add(CFA_XSP16, literal(-3)))
          CFI (cfiCond195) DPL0 load(1, XDATA, add(CFA_XSP16, literal(-2)))
          CFI (cfiCond195) DPH0 load(1, XDATA, add(CFA_XSP16, literal(-1)))
          CFI (cfiCond195) CFA_SP SP+-2
          CFI (cfiCond195) CFA_XSP16 add(XSP16, 26)
          CFI Block cfiCond196 Using cfiCommon0
          CFI (cfiCond196) Function writeItem
          CFI (cfiCond196) Conditional ??CrossCallReturnLabel_40
          CFI (cfiCond196) R6 load(1, XDATA, add(CFA_XSP16, literal(-16)))
          CFI (cfiCond196) VB load(1, XDATA, add(CFA_XSP16, literal(-15)))
          CFI (cfiCond196) V0 load(1, XDATA, add(CFA_XSP16, literal(-14)))
          CFI (cfiCond196) V1 load(1, XDATA, add(CFA_XSP16, literal(-13)))
          CFI (cfiCond196) V2 load(1, XDATA, add(CFA_XSP16, literal(-12)))
          CFI (cfiCond196) V3 load(1, XDATA, add(CFA_XSP16, literal(-11)))
          CFI (cfiCond196) V4 load(1, XDATA, add(CFA_XSP16, literal(-10)))
          CFI (cfiCond196) V5 load(1, XDATA, add(CFA_XSP16, literal(-9)))
          CFI (cfiCond196) V6 load(1, XDATA, add(CFA_XSP16, literal(-8)))
          CFI (cfiCond196) V7 load(1, XDATA, add(CFA_XSP16, literal(-7)))
          CFI (cfiCond196) R7 load(1, XDATA, add(CFA_XSP16, literal(-6)))
          CFI (cfiCond196) ?RET_LOW load(1, XDATA, add(CFA_XSP16, literal(-5)))
          CFI (cfiCond196) ?RET_HIGH load(1, XDATA, add(CFA_XSP16, literal(-4)))
          CFI (cfiCond196) ?BRET_EXT load(1, XDATA, add(CFA_XSP16, literal(-3)))
          CFI (cfiCond196) DPL0 load(1, XDATA, add(CFA_XSP16, literal(-2)))
          CFI (cfiCond196) DPH0 load(1, XDATA, add(CFA_XSP16, literal(-1)))
          CFI (cfiCond196) CFA_SP SP+-2
          CFI (cfiCond196) CFA_XSP16 add(XSP16, 28)
          CFI Block cfiCond197 Using cfiCommon0
          CFI (cfiCond197) Function writeItem
          CFI (cfiCond197) Conditional ??CrossCallReturnLabel_41
          CFI (cfiCond197) R6 load(1, XDATA, add(CFA_XSP16, literal(-16)))
          CFI (cfiCond197) VB load(1, XDATA, add(CFA_XSP16, literal(-15)))
          CFI (cfiCond197) V0 load(1, XDATA, add(CFA_XSP16, literal(-14)))
          CFI (cfiCond197) V1 load(1, XDATA, add(CFA_XSP16, literal(-13)))
          CFI (cfiCond197) V2 load(1, XDATA, add(CFA_XSP16, literal(-12)))
          CFI (cfiCond197) V3 load(1, XDATA, add(CFA_XSP16, literal(-11)))
          CFI (cfiCond197) V4 load(1, XDATA, add(CFA_XSP16, literal(-10)))
          CFI (cfiCond197) V5 load(1, XDATA, add(CFA_XSP16, literal(-9)))
          CFI (cfiCond197) V6 load(1, XDATA, add(CFA_XSP16, literal(-8)))
          CFI (cfiCond197) V7 load(1, XDATA, add(CFA_XSP16, literal(-7)))
          CFI (cfiCond197) R7 load(1, XDATA, add(CFA_XSP16, literal(-6)))
          CFI (cfiCond197) ?RET_LOW load(1, XDATA, add(CFA_XSP16, literal(-5)))
          CFI (cfiCond197) ?RET_HIGH load(1, XDATA, add(CFA_XSP16, literal(-4)))
          CFI (cfiCond197) ?BRET_EXT load(1, XDATA, add(CFA_XSP16, literal(-3)))
          CFI (cfiCond197) DPL0 load(1, XDATA, add(CFA_XSP16, literal(-2)))
          CFI (cfiCond197) DPH0 load(1, XDATA, add(CFA_XSP16, literal(-1)))
          CFI (cfiCond197) CFA_SP SP+-2
          CFI (cfiCond197) CFA_XSP16 add(XSP16, 28)
          CFI Block cfiCond198 Using cfiCommon0
          CFI (cfiCond198) Function writeItem
          CFI (cfiCond198) Conditional ??CrossCallReturnLabel_42
          CFI (cfiCond198) R6 load(1, XDATA, add(CFA_XSP16, literal(-16)))
          CFI (cfiCond198) VB load(1, XDATA, add(CFA_XSP16, literal(-15)))
          CFI (cfiCond198) V0 load(1, XDATA, add(CFA_XSP16, literal(-14)))
          CFI (cfiCond198) V1 load(1, XDATA, add(CFA_XSP16, literal(-13)))
          CFI (cfiCond198) V2 load(1, XDATA, add(CFA_XSP16, literal(-12)))
          CFI (cfiCond198) V3 load(1, XDATA, add(CFA_XSP16, literal(-11)))
          CFI (cfiCond198) V4 load(1, XDATA, add(CFA_XSP16, literal(-10)))
          CFI (cfiCond198) V5 load(1, XDATA, add(CFA_XSP16, literal(-9)))
          CFI (cfiCond198) V6 load(1, XDATA, add(CFA_XSP16, literal(-8)))
          CFI (cfiCond198) V7 load(1, XDATA, add(CFA_XSP16, literal(-7)))
          CFI (cfiCond198) R7 load(1, XDATA, add(CFA_XSP16, literal(-6)))
          CFI (cfiCond198) ?RET_LOW load(1, XDATA, add(CFA_XSP16, literal(-5)))
          CFI (cfiCond198) ?RET_HIGH load(1, XDATA, add(CFA_XSP16, literal(-4)))
          CFI (cfiCond198) ?BRET_EXT load(1, XDATA, add(CFA_XSP16, literal(-3)))
          CFI (cfiCond198) DPL0 load(1, XDATA, add(CFA_XSP16, literal(-2)))
          CFI (cfiCond198) DPH0 load(1, XDATA, add(CFA_XSP16, literal(-1)))
          CFI (cfiCond198) CFA_SP SP+-2
          CFI (cfiCond198) CFA_XSP16 add(XSP16, 28)
          CFI Block cfiCond199 Using cfiCommon0
          CFI (cfiCond199) Function osal_nv_write
          CFI (cfiCond199) Conditional ??CrossCallReturnLabel_43
          CFI (cfiCond199) R6 load(1, XDATA, add(CFA_XSP16, literal(-16)))
          CFI (cfiCond199) VB load(1, XDATA, add(CFA_XSP16, literal(-15)))
          CFI (cfiCond199) V0 load(1, XDATA, add(CFA_XSP16, literal(-14)))
          CFI (cfiCond199) V1 load(1, XDATA, add(CFA_XSP16, literal(-13)))
          CFI (cfiCond199) V2 load(1, XDATA, add(CFA_XSP16, literal(-12)))
          CFI (cfiCond199) V3 load(1, XDATA, add(CFA_XSP16, literal(-11)))
          CFI (cfiCond199) V4 load(1, XDATA, add(CFA_XSP16, literal(-10)))
          CFI (cfiCond199) V5 load(1, XDATA, add(CFA_XSP16, literal(-9)))
          CFI (cfiCond199) V6 load(1, XDATA, add(CFA_XSP16, literal(-8)))
          CFI (cfiCond199) V7 load(1, XDATA, add(CFA_XSP16, literal(-7)))
          CFI (cfiCond199) R7 load(1, XDATA, add(CFA_XSP16, literal(-6)))
          CFI (cfiCond199) ?RET_LOW load(1, XDATA, add(CFA_XSP16, literal(-5)))
          CFI (cfiCond199) ?RET_HIGH load(1, XDATA, add(CFA_XSP16, literal(-4)))
          CFI (cfiCond199) ?BRET_EXT load(1, XDATA, add(CFA_XSP16, literal(-3)))
          CFI (cfiCond199) DPL0 load(1, XDATA, add(CFA_XSP16, literal(-2)))
          CFI (cfiCond199) DPH0 load(1, XDATA, add(CFA_XSP16, literal(-1)))
          CFI (cfiCond199) CFA_SP SP+-4
          CFI (cfiCond199) CFA_XSP16 add(XSP16, 35)
          CFI Block cfiCond200 Using cfiCommon0
          CFI (cfiCond200) Function osal_nv_write
          CFI (cfiCond200) Conditional ??CrossCallReturnLabel_44
          CFI (cfiCond200) R6 load(1, XDATA, add(CFA_XSP16, literal(-16)))
          CFI (cfiCond200) VB load(1, XDATA, add(CFA_XSP16, literal(-15)))
          CFI (cfiCond200) V0 load(1, XDATA, add(CFA_XSP16, literal(-14)))
          CFI (cfiCond200) V1 load(1, XDATA, add(CFA_XSP16, literal(-13)))
          CFI (cfiCond200) V2 load(1, XDATA, add(CFA_XSP16, literal(-12)))
          CFI (cfiCond200) V3 load(1, XDATA, add(CFA_XSP16, literal(-11)))
          CFI (cfiCond200) V4 load(1, XDATA, add(CFA_XSP16, literal(-10)))
          CFI (cfiCond200) V5 load(1, XDATA, add(CFA_XSP16, literal(-9)))
          CFI (cfiCond200) V6 load(1, XDATA, add(CFA_XSP16, literal(-8)))
          CFI (cfiCond200) V7 load(1, XDATA, add(CFA_XSP16, literal(-7)))
          CFI (cfiCond200) R7 load(1, XDATA, add(CFA_XSP16, literal(-6)))
          CFI (cfiCond200) ?RET_LOW load(1, XDATA, add(CFA_XSP16, literal(-5)))
          CFI (cfiCond200) ?RET_HIGH load(1, XDATA, add(CFA_XSP16, literal(-4)))
          CFI (cfiCond200) ?BRET_EXT load(1, XDATA, add(CFA_XSP16, literal(-3)))
          CFI (cfiCond200) DPL0 load(1, XDATA, add(CFA_XSP16, literal(-2)))
          CFI (cfiCond200) DPH0 load(1, XDATA, add(CFA_XSP16, literal(-1)))
          CFI (cfiCond200) CFA_SP SP+-2
          CFI (cfiCond200) CFA_XSP16 add(XSP16, 35)
          CFI Block cfiCond201 Using cfiCommon0
          CFI (cfiCond201) Function osal_nv_write
          CFI (cfiCond201) Conditional ??CrossCallReturnLabel_45
          CFI (cfiCond201) R6 load(1, XDATA, add(CFA_XSP16, literal(-16)))
          CFI (cfiCond201) VB load(1, XDATA, add(CFA_XSP16, literal(-15)))
          CFI (cfiCond201) V0 load(1, XDATA, add(CFA_XSP16, literal(-14)))
          CFI (cfiCond201) V1 load(1, XDATA, add(CFA_XSP16, literal(-13)))
          CFI (cfiCond201) V2 load(1, XDATA, add(CFA_XSP16, literal(-12)))
          CFI (cfiCond201) V3 load(1, XDATA, add(CFA_XSP16, literal(-11)))
          CFI (cfiCond201) V4 load(1, XDATA, add(CFA_XSP16, literal(-10)))
          CFI (cfiCond201) V5 load(1, XDATA, add(CFA_XSP16, literal(-9)))
          CFI (cfiCond201) V6 load(1, XDATA, add(CFA_XSP16, literal(-8)))
          CFI (cfiCond201) V7 load(1, XDATA, add(CFA_XSP16, literal(-7)))
          CFI (cfiCond201) R7 load(1, XDATA, add(CFA_XSP16, literal(-6)))
          CFI (cfiCond201) ?RET_LOW load(1, XDATA, add(CFA_XSP16, literal(-5)))
          CFI (cfiCond201) ?RET_HIGH load(1, XDATA, add(CFA_XSP16, literal(-4)))
          CFI (cfiCond201) ?BRET_EXT load(1, XDATA, add(CFA_XSP16, literal(-3)))
          CFI (cfiCond201) DPL0 load(1, XDATA, add(CFA_XSP16, literal(-2)))
          CFI (cfiCond201) DPH0 load(1, XDATA, add(CFA_XSP16, literal(-1)))
          CFI (cfiCond201) CFA_SP SP+-2
          CFI (cfiCond201) CFA_XSP16 add(XSP16, 35)
          CFI Block cfiCond202 Using cfiCommon0
          CFI (cfiCond202) Function osal_nv_write
          CFI (cfiCond202) Conditional ??CrossCallReturnLabel_46
          CFI (cfiCond202) R6 load(1, XDATA, add(CFA_XSP16, literal(-16)))
          CFI (cfiCond202) VB load(1, XDATA, add(CFA_XSP16, literal(-15)))
          CFI (cfiCond202) V0 load(1, XDATA, add(CFA_XSP16, literal(-14)))
          CFI (cfiCond202) V1 load(1, XDATA, add(CFA_XSP16, literal(-13)))
          CFI (cfiCond202) V2 load(1, XDATA, add(CFA_XSP16, literal(-12)))
          CFI (cfiCond202) V3 load(1, XDATA, add(CFA_XSP16, literal(-11)))
          CFI (cfiCond202) V4 load(1, XDATA, add(CFA_XSP16, literal(-10)))
          CFI (cfiCond202) V5 load(1, XDATA, add(CFA_XSP16, literal(-9)))
          CFI (cfiCond202) V6 load(1, XDATA, add(CFA_XSP16, literal(-8)))
          CFI (cfiCond202) V7 load(1, XDATA, add(CFA_XSP16, literal(-7)))
          CFI (cfiCond202) R7 load(1, XDATA, add(CFA_XSP16, literal(-6)))
          CFI (cfiCond202) ?RET_LOW load(1, XDATA, add(CFA_XSP16, literal(-5)))
          CFI (cfiCond202) ?RET_HIGH load(1, XDATA, add(CFA_XSP16, literal(-4)))
          CFI (cfiCond202) ?BRET_EXT load(1, XDATA, add(CFA_XSP16, literal(-3)))
          CFI (cfiCond202) DPL0 load(1, XDATA, add(CFA_XSP16, literal(-2)))
          CFI (cfiCond202) DPH0 load(1, XDATA, add(CFA_XSP16, literal(-1)))
          CFI (cfiCond202) CFA_SP SP+-4
          CFI (cfiCond202) CFA_XSP16 add(XSP16, 35)
          CFI Block cfiCond203 Using cfiCommon0
          CFI (cfiCond203) Function osal_nv_write
          CFI (cfiCond203) Conditional ??CrossCallReturnLabel_47
          CFI (cfiCond203) R6 load(1, XDATA, add(CFA_XSP16, literal(-16)))
          CFI (cfiCond203) VB load(1, XDATA, add(CFA_XSP16, literal(-15)))
          CFI (cfiCond203) V0 load(1, XDATA, add(CFA_XSP16, literal(-14)))
          CFI (cfiCond203) V1 load(1, XDATA, add(CFA_XSP16, literal(-13)))
          CFI (cfiCond203) V2 load(1, XDATA, add(CFA_XSP16, literal(-12)))
          CFI (cfiCond203) V3 load(1, XDATA, add(CFA_XSP16, literal(-11)))
          CFI (cfiCond203) V4 load(1, XDATA, add(CFA_XSP16, literal(-10)))
          CFI (cfiCond203) V5 load(1, XDATA, add(CFA_XSP16, literal(-9)))
          CFI (cfiCond203) V6 load(1, XDATA, add(CFA_XSP16, literal(-8)))
          CFI (cfiCond203) V7 load(1, XDATA, add(CFA_XSP16, literal(-7)))
          CFI (cfiCond203) R7 load(1, XDATA, add(CFA_XSP16, literal(-6)))
          CFI (cfiCond203) ?RET_LOW load(1, XDATA, add(CFA_XSP16, literal(-5)))
          CFI (cfiCond203) ?RET_HIGH load(1, XDATA, add(CFA_XSP16, literal(-4)))
          CFI (cfiCond203) ?BRET_EXT load(1, XDATA, add(CFA_XSP16, literal(-3)))
          CFI (cfiCond203) DPL0 load(1, XDATA, add(CFA_XSP16, literal(-2)))
          CFI (cfiCond203) DPH0 load(1, XDATA, add(CFA_XSP16, literal(-1)))
          CFI (cfiCond203) CFA_SP SP+-2
          CFI (cfiCond203) CFA_XSP16 add(XSP16, 35)
          CFI Block cfiPicker204 Using cfiCommon1
          CFI (cfiPicker204) NoFunction
          CFI (cfiPicker204) Picker
        MOVX      A,@DPTR
        MOV       R0,A
        INC       DPTR
        MOVX      A,@DPTR
        MOV       R1,A
        RET
          CFI EndBlock cfiCond194
          CFI EndBlock cfiCond195
          CFI EndBlock cfiCond196
          CFI EndBlock cfiCond197
          CFI EndBlock cfiCond198
          CFI EndBlock cfiCond199
          CFI EndBlock cfiCond200
          CFI EndBlock cfiCond201
          CFI EndBlock cfiCond202
          CFI EndBlock cfiCond203
          CFI EndBlock cfiPicker204

        RSEG BANKED_CODE:HUGECODE:NOROOT(0)
?Subroutine19:
          CFI Block cfiCond205 Using cfiCommon0
          CFI Function compactPage
          CFI Conditional ??CrossCallReturnLabel_31
          CFI R6 load(1, XDATA, add(CFA_XSP16, literal(-15)))
          CFI VB load(1, XDATA, add(CFA_XSP16, literal(-14)))
          CFI V0 load(1, XDATA, add(CFA_XSP16, literal(-13)))
          CFI V1 load(1, XDATA, add(CFA_XSP16, literal(-12)))
          CFI V2 load(1, XDATA, add(CFA_XSP16, literal(-11)))
          CFI V3 load(1, XDATA, add(CFA_XSP16, literal(-10)))
          CFI V4 load(1, XDATA, add(CFA_XSP16, literal(-9)))
          CFI V5 load(1, XDATA, add(CFA_XSP16, literal(-8)))
          CFI V6 load(1, XDATA, add(CFA_XSP16, literal(-7)))
          CFI R7 load(1, XDATA, add(CFA_XSP16, literal(-6)))
          CFI ?RET_LOW load(1, XDATA, add(CFA_XSP16, literal(-5)))
          CFI ?RET_HIGH load(1, XDATA, add(CFA_XSP16, literal(-4)))
          CFI ?BRET_EXT load(1, XDATA, add(CFA_XSP16, literal(-3)))
          CFI DPL0 load(1, XDATA, add(CFA_XSP16, literal(-2)))
          CFI DPH0 load(1, XDATA, add(CFA_XSP16, literal(-1)))
          CFI CFA_SP SP+-2
          CFI CFA_XSP16 add(XSP16, 26)
          CFI Block cfiCond206 Using cfiCommon0
          CFI (cfiCond206) Function writeItem
          CFI (cfiCond206) Conditional ??CrossCallReturnLabel_32
          CFI (cfiCond206) R6 load(1, XDATA, add(CFA_XSP16, literal(-16)))
          CFI (cfiCond206) VB load(1, XDATA, add(CFA_XSP16, literal(-15)))
          CFI (cfiCond206) V0 load(1, XDATA, add(CFA_XSP16, literal(-14)))
          CFI (cfiCond206) V1 load(1, XDATA, add(CFA_XSP16, literal(-13)))
          CFI (cfiCond206) V2 load(1, XDATA, add(CFA_XSP16, literal(-12)))
          CFI (cfiCond206) V3 load(1, XDATA, add(CFA_XSP16, literal(-11)))
          CFI (cfiCond206) V4 load(1, XDATA, add(CFA_XSP16, literal(-10)))
          CFI (cfiCond206) V5 load(1, XDATA, add(CFA_XSP16, literal(-9)))
          CFI (cfiCond206) V6 load(1, XDATA, add(CFA_XSP16, literal(-8)))
          CFI (cfiCond206) V7 load(1, XDATA, add(CFA_XSP16, literal(-7)))
          CFI (cfiCond206) R7 load(1, XDATA, add(CFA_XSP16, literal(-6)))
          CFI (cfiCond206) ?RET_LOW load(1, XDATA, add(CFA_XSP16, literal(-5)))
          CFI (cfiCond206) ?RET_HIGH load(1, XDATA, add(CFA_XSP16, literal(-4)))
          CFI (cfiCond206) ?BRET_EXT load(1, XDATA, add(CFA_XSP16, literal(-3)))
          CFI (cfiCond206) DPL0 load(1, XDATA, add(CFA_XSP16, literal(-2)))
          CFI (cfiCond206) DPH0 load(1, XDATA, add(CFA_XSP16, literal(-1)))
          CFI (cfiCond206) CFA_SP SP+-2
          CFI (cfiCond206) CFA_XSP16 add(XSP16, 28)
          CFI Block cfiCond207 Using cfiCommon0
          CFI (cfiCond207) Function osal_nv_write
          CFI (cfiCond207) Conditional ??CrossCallReturnLabel_33
          CFI (cfiCond207) R6 load(1, XDATA, add(CFA_XSP16, literal(-16)))
          CFI (cfiCond207) VB load(1, XDATA, add(CFA_XSP16, literal(-15)))
          CFI (cfiCond207) V0 load(1, XDATA, add(CFA_XSP16, literal(-14)))
          CFI (cfiCond207) V1 load(1, XDATA, add(CFA_XSP16, literal(-13)))
          CFI (cfiCond207) V2 load(1, XDATA, add(CFA_XSP16, literal(-12)))
          CFI (cfiCond207) V3 load(1, XDATA, add(CFA_XSP16, literal(-11)))
          CFI (cfiCond207) V4 load(1, XDATA, add(CFA_XSP16, literal(-10)))
          CFI (cfiCond207) V5 load(1, XDATA, add(CFA_XSP16, literal(-9)))
          CFI (cfiCond207) V6 load(1, XDATA, add(CFA_XSP16, literal(-8)))
          CFI (cfiCond207) V7 load(1, XDATA, add(CFA_XSP16, literal(-7)))
          CFI (cfiCond207) R7 load(1, XDATA, add(CFA_XSP16, literal(-6)))
          CFI (cfiCond207) ?RET_LOW load(1, XDATA, add(CFA_XSP16, literal(-5)))
          CFI (cfiCond207) ?RET_HIGH load(1, XDATA, add(CFA_XSP16, literal(-4)))
          CFI (cfiCond207) ?BRET_EXT load(1, XDATA, add(CFA_XSP16, literal(-3)))
          CFI (cfiCond207) DPL0 load(1, XDATA, add(CFA_XSP16, literal(-2)))
          CFI (cfiCond207) DPH0 load(1, XDATA, add(CFA_XSP16, literal(-1)))
          CFI (cfiCond207) CFA_SP SP+-2
          CFI (cfiCond207) CFA_XSP16 add(XSP16, 35)
          CFI Block cfiPicker208 Using cfiCommon1
          CFI (cfiPicker208) NoFunction
          CFI (cfiPicker208) Picker
        LCALL     ?Subroutine44 & 0xFFFF
??CrossCallReturnLabel_91:
        MOV       A,R2
        XRL       A,R4
        RET
          CFI EndBlock cfiCond205
          CFI EndBlock cfiCond206
          CFI EndBlock cfiCond207
          CFI EndBlock cfiPicker208

        RSEG BANKED_CODE:HUGECODE:NOROOT(0)
?Subroutine15:
          CFI Block cfiCond209 Using cfiCommon0
          CFI Function writeItem
          CFI Conditional ??CrossCallReturnLabel_136
          CFI R6 load(1, XDATA, add(CFA_XSP16, literal(-16)))
          CFI VB load(1, XDATA, add(CFA_XSP16, literal(-15)))
          CFI V0 load(1, XDATA, add(CFA_XSP16, literal(-14)))
          CFI V1 load(1, XDATA, add(CFA_XSP16, literal(-13)))
          CFI V2 load(1, XDATA, add(CFA_XSP16, literal(-12)))
          CFI V3 load(1, XDATA, add(CFA_XSP16, literal(-11)))
          CFI V4 load(1, XDATA, add(CFA_XSP16, literal(-10)))
          CFI V5 load(1, XDATA, add(CFA_XSP16, literal(-9)))
          CFI V6 load(1, XDATA, add(CFA_XSP16, literal(-8)))
          CFI V7 load(1, XDATA, add(CFA_XSP16, literal(-7)))
          CFI R7 load(1, XDATA, add(CFA_XSP16, literal(-6)))
          CFI ?RET_LOW load(1, XDATA, add(CFA_XSP16, literal(-5)))
          CFI ?RET_HIGH load(1, XDATA, add(CFA_XSP16, literal(-4)))
          CFI ?BRET_EXT load(1, XDATA, add(CFA_XSP16, literal(-3)))
          CFI DPL0 load(1, XDATA, add(CFA_XSP16, literal(-2)))
          CFI DPH0 load(1, XDATA, add(CFA_XSP16, literal(-1)))
          CFI CFA_SP SP+-2
          CFI CFA_XSP16 add(XSP16, 28)
          CFI Block cfiCond210 Using cfiCommon0
          CFI (cfiCond210) Function writeItem
          CFI (cfiCond210) Conditional ??CrossCallReturnLabel_137
          CFI (cfiCond210) R6 load(1, XDATA, add(CFA_XSP16, literal(-16)))
          CFI (cfiCond210) VB load(1, XDATA, add(CFA_XSP16, literal(-15)))
          CFI (cfiCond210) V0 load(1, XDATA, add(CFA_XSP16, literal(-14)))
          CFI (cfiCond210) V1 load(1, XDATA, add(CFA_XSP16, literal(-13)))
          CFI (cfiCond210) V2 load(1, XDATA, add(CFA_XSP16, literal(-12)))
          CFI (cfiCond210) V3 load(1, XDATA, add(CFA_XSP16, literal(-11)))
          CFI (cfiCond210) V4 load(1, XDATA, add(CFA_XSP16, literal(-10)))
          CFI (cfiCond210) V5 load(1, XDATA, add(CFA_XSP16, literal(-9)))
          CFI (cfiCond210) V6 load(1, XDATA, add(CFA_XSP16, literal(-8)))
          CFI (cfiCond210) V7 load(1, XDATA, add(CFA_XSP16, literal(-7)))
          CFI (cfiCond210) R7 load(1, XDATA, add(CFA_XSP16, literal(-6)))
          CFI (cfiCond210) ?RET_LOW load(1, XDATA, add(CFA_XSP16, literal(-5)))
          CFI (cfiCond210) ?RET_HIGH load(1, XDATA, add(CFA_XSP16, literal(-4)))
          CFI (cfiCond210) ?BRET_EXT load(1, XDATA, add(CFA_XSP16, literal(-3)))
          CFI (cfiCond210) DPL0 load(1, XDATA, add(CFA_XSP16, literal(-2)))
          CFI (cfiCond210) DPH0 load(1, XDATA, add(CFA_XSP16, literal(-1)))
          CFI (cfiCond210) CFA_SP SP+-2
          CFI (cfiCond210) CFA_XSP16 add(XSP16, 28)
          CFI Block cfiCond211 Using cfiCommon0
          CFI (cfiCond211) Function writeItem
          CFI (cfiCond211) Conditional ??CrossCallReturnLabel_138
          CFI (cfiCond211) R6 load(1, XDATA, add(CFA_XSP16, literal(-16)))
          CFI (cfiCond211) VB load(1, XDATA, add(CFA_XSP16, literal(-15)))
          CFI (cfiCond211) V0 load(1, XDATA, add(CFA_XSP16, literal(-14)))
          CFI (cfiCond211) V1 load(1, XDATA, add(CFA_XSP16, literal(-13)))
          CFI (cfiCond211) V2 load(1, XDATA, add(CFA_XSP16, literal(-12)))
          CFI (cfiCond211) V3 load(1, XDATA, add(CFA_XSP16, literal(-11)))
          CFI (cfiCond211) V4 load(1, XDATA, add(CFA_XSP16, literal(-10)))
          CFI (cfiCond211) V5 load(1, XDATA, add(CFA_XSP16, literal(-9)))
          CFI (cfiCond211) V6 load(1, XDATA, add(CFA_XSP16, literal(-8)))
          CFI (cfiCond211) V7 load(1, XDATA, add(CFA_XSP16, literal(-7)))
          CFI (cfiCond211) R7 load(1, XDATA, add(CFA_XSP16, literal(-6)))
          CFI (cfiCond211) ?RET_LOW load(1, XDATA, add(CFA_XSP16, literal(-5)))
          CFI (cfiCond211) ?RET_HIGH load(1, XDATA, add(CFA_XSP16, literal(-4)))
          CFI (cfiCond211) ?BRET_EXT load(1, XDATA, add(CFA_XSP16, literal(-3)))
          CFI (cfiCond211) DPL0 load(1, XDATA, add(CFA_XSP16, literal(-2)))
          CFI (cfiCond211) DPH0 load(1, XDATA, add(CFA_XSP16, literal(-1)))
          CFI (cfiCond211) CFA_SP SP+-2
          CFI (cfiCond211) CFA_XSP16 add(XSP16, 28)
          CFI Block cfiPicker212 Using cfiCommon1
          CFI (cfiPicker212) NoFunction
          CFI (cfiPicker212) Picker
        MOV       DPL,?XSP + 0
        MOV       DPH,?XSP + 1
          CFI EndBlock cfiCond209
          CFI EndBlock cfiCond210
          CFI EndBlock cfiCond211
          CFI EndBlock cfiPicker212
        REQUIRE ??Subroutine61_0
        ; // Fall through to label ??Subroutine61_0

        RSEG BANKED_CODE:HUGECODE:NOROOT(0)
??Subroutine61_0:
          CFI Block cfiCond213 Using cfiCommon0
          CFI Function writeBuf
          CFI Conditional ??CrossCallReturnLabel_134
          CFI R6 load(1, XDATA, add(CFA_XSP16, literal(-16)))
          CFI VB load(1, XDATA, add(CFA_XSP16, literal(-15)))
          CFI V0 load(1, XDATA, add(CFA_XSP16, literal(-14)))
          CFI V1 load(1, XDATA, add(CFA_XSP16, literal(-13)))
          CFI V2 load(1, XDATA, add(CFA_XSP16, literal(-12)))
          CFI V3 load(1, XDATA, add(CFA_XSP16, literal(-11)))
          CFI V4 load(1, XDATA, add(CFA_XSP16, literal(-10)))
          CFI V5 load(1, XDATA, add(CFA_XSP16, literal(-9)))
          CFI V6 load(1, XDATA, add(CFA_XSP16, literal(-8)))
          CFI V7 load(1, XDATA, add(CFA_XSP16, literal(-7)))
          CFI R7 load(1, XDATA, add(CFA_XSP16, literal(-6)))
          CFI ?RET_LOW load(1, XDATA, add(CFA_XSP16, literal(-5)))
          CFI ?RET_HIGH load(1, XDATA, add(CFA_XSP16, literal(-4)))
          CFI ?BRET_EXT load(1, XDATA, add(CFA_XSP16, literal(-3)))
          CFI DPL0 load(1, XDATA, add(CFA_XSP16, literal(-2)))
          CFI DPH0 load(1, XDATA, add(CFA_XSP16, literal(-1)))
          CFI CFA_SP SP+-2
          CFI CFA_XSP16 add(XSP16, 20)
          CFI Block cfiCond214 Using cfiCommon0
          CFI (cfiCond214) Function writeBuf
          CFI (cfiCond214) Conditional ??CrossCallReturnLabel_135
          CFI (cfiCond214) R6 load(1, XDATA, add(CFA_XSP16, literal(-16)))
          CFI (cfiCond214) VB load(1, XDATA, add(CFA_XSP16, literal(-15)))
          CFI (cfiCond214) V0 load(1, XDATA, add(CFA_XSP16, literal(-14)))
          CFI (cfiCond214) V1 load(1, XDATA, add(CFA_XSP16, literal(-13)))
          CFI (cfiCond214) V2 load(1, XDATA, add(CFA_XSP16, literal(-12)))
          CFI (cfiCond214) V3 load(1, XDATA, add(CFA_XSP16, literal(-11)))
          CFI (cfiCond214) V4 load(1, XDATA, add(CFA_XSP16, literal(-10)))
          CFI (cfiCond214) V5 load(1, XDATA, add(CFA_XSP16, literal(-9)))
          CFI (cfiCond214) V6 load(1, XDATA, add(CFA_XSP16, literal(-8)))
          CFI (cfiCond214) V7 load(1, XDATA, add(CFA_XSP16, literal(-7)))
          CFI (cfiCond214) R7 load(1, XDATA, add(CFA_XSP16, literal(-6)))
          CFI (cfiCond214) ?RET_LOW load(1, XDATA, add(CFA_XSP16, literal(-5)))
          CFI (cfiCond214) ?RET_HIGH load(1, XDATA, add(CFA_XSP16, literal(-4)))
          CFI (cfiCond214) ?BRET_EXT load(1, XDATA, add(CFA_XSP16, literal(-3)))
          CFI (cfiCond214) DPL0 load(1, XDATA, add(CFA_XSP16, literal(-2)))
          CFI (cfiCond214) DPH0 load(1, XDATA, add(CFA_XSP16, literal(-1)))
          CFI (cfiCond214) CFA_SP SP+-2
          CFI (cfiCond214) CFA_XSP16 add(XSP16, 20)
          CFI Block cfiCond215 Using cfiCommon0
          CFI (cfiCond215) Function writeItem
          CFI (cfiCond215) Conditional ??CrossCallReturnLabel_136
          CFI (cfiCond215) R6 load(1, XDATA, add(CFA_XSP16, literal(-16)))
          CFI (cfiCond215) VB load(1, XDATA, add(CFA_XSP16, literal(-15)))
          CFI (cfiCond215) V0 load(1, XDATA, add(CFA_XSP16, literal(-14)))
          CFI (cfiCond215) V1 load(1, XDATA, add(CFA_XSP16, literal(-13)))
          CFI (cfiCond215) V2 load(1, XDATA, add(CFA_XSP16, literal(-12)))
          CFI (cfiCond215) V3 load(1, XDATA, add(CFA_XSP16, literal(-11)))
          CFI (cfiCond215) V4 load(1, XDATA, add(CFA_XSP16, literal(-10)))
          CFI (cfiCond215) V5 load(1, XDATA, add(CFA_XSP16, literal(-9)))
          CFI (cfiCond215) V6 load(1, XDATA, add(CFA_XSP16, literal(-8)))
          CFI (cfiCond215) V7 load(1, XDATA, add(CFA_XSP16, literal(-7)))
          CFI (cfiCond215) R7 load(1, XDATA, add(CFA_XSP16, literal(-6)))
          CFI (cfiCond215) ?RET_LOW load(1, XDATA, add(CFA_XSP16, literal(-5)))
          CFI (cfiCond215) ?RET_HIGH load(1, XDATA, add(CFA_XSP16, literal(-4)))
          CFI (cfiCond215) ?BRET_EXT load(1, XDATA, add(CFA_XSP16, literal(-3)))
          CFI (cfiCond215) DPL0 load(1, XDATA, add(CFA_XSP16, literal(-2)))
          CFI (cfiCond215) DPH0 load(1, XDATA, add(CFA_XSP16, literal(-1)))
          CFI (cfiCond215) CFA_SP SP+-2
          CFI (cfiCond215) CFA_XSP16 add(XSP16, 28)
          CFI Block cfiCond216 Using cfiCommon0
          CFI (cfiCond216) Function writeItem
          CFI (cfiCond216) Conditional ??CrossCallReturnLabel_137
          CFI (cfiCond216) R6 load(1, XDATA, add(CFA_XSP16, literal(-16)))
          CFI (cfiCond216) VB load(1, XDATA, add(CFA_XSP16, literal(-15)))
          CFI (cfiCond216) V0 load(1, XDATA, add(CFA_XSP16, literal(-14)))
          CFI (cfiCond216) V1 load(1, XDATA, add(CFA_XSP16, literal(-13)))
          CFI (cfiCond216) V2 load(1, XDATA, add(CFA_XSP16, literal(-12)))
          CFI (cfiCond216) V3 load(1, XDATA, add(CFA_XSP16, literal(-11)))
          CFI (cfiCond216) V4 load(1, XDATA, add(CFA_XSP16, literal(-10)))
          CFI (cfiCond216) V5 load(1, XDATA, add(CFA_XSP16, literal(-9)))
          CFI (cfiCond216) V6 load(1, XDATA, add(CFA_XSP16, literal(-8)))
          CFI (cfiCond216) V7 load(1, XDATA, add(CFA_XSP16, literal(-7)))
          CFI (cfiCond216) R7 load(1, XDATA, add(CFA_XSP16, literal(-6)))
          CFI (cfiCond216) ?RET_LOW load(1, XDATA, add(CFA_XSP16, literal(-5)))
          CFI (cfiCond216) ?RET_HIGH load(1, XDATA, add(CFA_XSP16, literal(-4)))
          CFI (cfiCond216) ?BRET_EXT load(1, XDATA, add(CFA_XSP16, literal(-3)))
          CFI (cfiCond216) DPL0 load(1, XDATA, add(CFA_XSP16, literal(-2)))
          CFI (cfiCond216) DPH0 load(1, XDATA, add(CFA_XSP16, literal(-1)))
          CFI (cfiCond216) CFA_SP SP+-2
          CFI (cfiCond216) CFA_XSP16 add(XSP16, 28)
          CFI Block cfiCond217 Using cfiCommon0
          CFI (cfiCond217) Function writeItem
          CFI (cfiCond217) Conditional ??CrossCallReturnLabel_138
          CFI (cfiCond217) R6 load(1, XDATA, add(CFA_XSP16, literal(-16)))
          CFI (cfiCond217) VB load(1, XDATA, add(CFA_XSP16, literal(-15)))
          CFI (cfiCond217) V0 load(1, XDATA, add(CFA_XSP16, literal(-14)))
          CFI (cfiCond217) V1 load(1, XDATA, add(CFA_XSP16, literal(-13)))
          CFI (cfiCond217) V2 load(1, XDATA, add(CFA_XSP16, literal(-12)))
          CFI (cfiCond217) V3 load(1, XDATA, add(CFA_XSP16, literal(-11)))
          CFI (cfiCond217) V4 load(1, XDATA, add(CFA_XSP16, literal(-10)))
          CFI (cfiCond217) V5 load(1, XDATA, add(CFA_XSP16, literal(-9)))
          CFI (cfiCond217) V6 load(1, XDATA, add(CFA_XSP16, literal(-8)))
          CFI (cfiCond217) V7 load(1, XDATA, add(CFA_XSP16, literal(-7)))
          CFI (cfiCond217) R7 load(1, XDATA, add(CFA_XSP16, literal(-6)))
          CFI (cfiCond217) ?RET_LOW load(1, XDATA, add(CFA_XSP16, literal(-5)))
          CFI (cfiCond217) ?RET_HIGH load(1, XDATA, add(CFA_XSP16, literal(-4)))
          CFI (cfiCond217) ?BRET_EXT load(1, XDATA, add(CFA_XSP16, literal(-3)))
          CFI (cfiCond217) DPL0 load(1, XDATA, add(CFA_XSP16, literal(-2)))
          CFI (cfiCond217) DPH0 load(1, XDATA, add(CFA_XSP16, literal(-1)))
          CFI (cfiCond217) CFA_SP SP+-2
          CFI (cfiCond217) CFA_XSP16 add(XSP16, 28)
          CFI Block cfiPicker218 Using cfiCommon1
          CFI (cfiPicker218) NoFunction
          CFI (cfiPicker218) Picker
        LCALL     ?Subroutine45 & 0xFFFF
??CrossCallReturnLabel_140:
        RET
          CFI EndBlock cfiCond213
          CFI EndBlock cfiCond214
          CFI EndBlock cfiCond215
          CFI EndBlock cfiCond216
          CFI EndBlock cfiCond217
          CFI EndBlock cfiPicker218

        RSEG BANKED_CODE:HUGECODE:NOROOT(0)
?Subroutine45:
          CFI Block cfiCond219 Using cfiCommon0
          CFI Function writeItem
          CFI Conditional ??CrossCallReturnLabel_140, ??CrossCallReturnLabel_136
          CFI R6 load(1, XDATA, add(CFA_XSP16, literal(-16)))
          CFI VB load(1, XDATA, add(CFA_XSP16, literal(-15)))
          CFI V0 load(1, XDATA, add(CFA_XSP16, literal(-14)))
          CFI V1 load(1, XDATA, add(CFA_XSP16, literal(-13)))
          CFI V2 load(1, XDATA, add(CFA_XSP16, literal(-12)))
          CFI V3 load(1, XDATA, add(CFA_XSP16, literal(-11)))
          CFI V4 load(1, XDATA, add(CFA_XSP16, literal(-10)))
          CFI V5 load(1, XDATA, add(CFA_XSP16, literal(-9)))
          CFI V6 load(1, XDATA, add(CFA_XSP16, literal(-8)))
          CFI V7 load(1, XDATA, add(CFA_XSP16, literal(-7)))
          CFI R7 load(1, XDATA, add(CFA_XSP16, literal(-6)))
          CFI ?RET_LOW load(1, XDATA, add(CFA_XSP16, literal(-5)))
          CFI ?RET_HIGH load(1, XDATA, add(CFA_XSP16, literal(-4)))
          CFI ?BRET_EXT load(1, XDATA, add(CFA_XSP16, literal(-3)))
          CFI DPL0 load(1, XDATA, add(CFA_XSP16, literal(-2)))
          CFI DPH0 load(1, XDATA, add(CFA_XSP16, literal(-1)))
          CFI CFA_SP SP+-4
          CFI CFA_XSP16 add(XSP16, 28)
          CFI Block cfiCond220 Using cfiCommon0
          CFI (cfiCond220) Function writeItem
          CFI (cfiCond220) Conditional ??CrossCallReturnLabel_140, ??CrossCallReturnLabel_137
          CFI (cfiCond220) R6 load(1, XDATA, add(CFA_XSP16, literal(-16)))
          CFI (cfiCond220) VB load(1, XDATA, add(CFA_XSP16, literal(-15)))
          CFI (cfiCond220) V0 load(1, XDATA, add(CFA_XSP16, literal(-14)))
          CFI (cfiCond220) V1 load(1, XDATA, add(CFA_XSP16, literal(-13)))
          CFI (cfiCond220) V2 load(1, XDATA, add(CFA_XSP16, literal(-12)))
          CFI (cfiCond220) V3 load(1, XDATA, add(CFA_XSP16, literal(-11)))
          CFI (cfiCond220) V4 load(1, XDATA, add(CFA_XSP16, literal(-10)))
          CFI (cfiCond220) V5 load(1, XDATA, add(CFA_XSP16, literal(-9)))
          CFI (cfiCond220) V6 load(1, XDATA, add(CFA_XSP16, literal(-8)))
          CFI (cfiCond220) V7 load(1, XDATA, add(CFA_XSP16, literal(-7)))
          CFI (cfiCond220) R7 load(1, XDATA, add(CFA_XSP16, literal(-6)))
          CFI (cfiCond220) ?RET_LOW load(1, XDATA, add(CFA_XSP16, literal(-5)))
          CFI (cfiCond220) ?RET_HIGH load(1, XDATA, add(CFA_XSP16, literal(-4)))
          CFI (cfiCond220) ?BRET_EXT load(1, XDATA, add(CFA_XSP16, literal(-3)))
          CFI (cfiCond220) DPL0 load(1, XDATA, add(CFA_XSP16, literal(-2)))
          CFI (cfiCond220) DPH0 load(1, XDATA, add(CFA_XSP16, literal(-1)))
          CFI (cfiCond220) CFA_SP SP+-4
          CFI (cfiCond220) CFA_XSP16 add(XSP16, 28)
          CFI Block cfiCond221 Using cfiCommon0
          CFI (cfiCond221) Function writeItem
          CFI (cfiCond221) Conditional ??CrossCallReturnLabel_140, ??CrossCallReturnLabel_138
          CFI (cfiCond221) R6 load(1, XDATA, add(CFA_XSP16, literal(-16)))
          CFI (cfiCond221) VB load(1, XDATA, add(CFA_XSP16, literal(-15)))
          CFI (cfiCond221) V0 load(1, XDATA, add(CFA_XSP16, literal(-14)))
          CFI (cfiCond221) V1 load(1, XDATA, add(CFA_XSP16, literal(-13)))
          CFI (cfiCond221) V2 load(1, XDATA, add(CFA_XSP16, literal(-12)))
          CFI (cfiCond221) V3 load(1, XDATA, add(CFA_XSP16, literal(-11)))
          CFI (cfiCond221) V4 load(1, XDATA, add(CFA_XSP16, literal(-10)))
          CFI (cfiCond221) V5 load(1, XDATA, add(CFA_XSP16, literal(-9)))
          CFI (cfiCond221) V6 load(1, XDATA, add(CFA_XSP16, literal(-8)))
          CFI (cfiCond221) V7 load(1, XDATA, add(CFA_XSP16, literal(-7)))
          CFI (cfiCond221) R7 load(1, XDATA, add(CFA_XSP16, literal(-6)))
          CFI (cfiCond221) ?RET_LOW load(1, XDATA, add(CFA_XSP16, literal(-5)))
          CFI (cfiCond221) ?RET_HIGH load(1, XDATA, add(CFA_XSP16, literal(-4)))
          CFI (cfiCond221) ?BRET_EXT load(1, XDATA, add(CFA_XSP16, literal(-3)))
          CFI (cfiCond221) DPL0 load(1, XDATA, add(CFA_XSP16, literal(-2)))
          CFI (cfiCond221) DPH0 load(1, XDATA, add(CFA_XSP16, literal(-1)))
          CFI (cfiCond221) CFA_SP SP+-4
          CFI (cfiCond221) CFA_XSP16 add(XSP16, 28)
          CFI Block cfiCond222 Using cfiCommon0
          CFI (cfiCond222) Function writeBuf
          CFI (cfiCond222) Conditional ??CrossCallReturnLabel_140, ??CrossCallReturnLabel_134
          CFI (cfiCond222) R6 load(1, XDATA, add(CFA_XSP16, literal(-16)))
          CFI (cfiCond222) VB load(1, XDATA, add(CFA_XSP16, literal(-15)))
          CFI (cfiCond222) V0 load(1, XDATA, add(CFA_XSP16, literal(-14)))
          CFI (cfiCond222) V1 load(1, XDATA, add(CFA_XSP16, literal(-13)))
          CFI (cfiCond222) V2 load(1, XDATA, add(CFA_XSP16, literal(-12)))
          CFI (cfiCond222) V3 load(1, XDATA, add(CFA_XSP16, literal(-11)))
          CFI (cfiCond222) V4 load(1, XDATA, add(CFA_XSP16, literal(-10)))
          CFI (cfiCond222) V5 load(1, XDATA, add(CFA_XSP16, literal(-9)))
          CFI (cfiCond222) V6 load(1, XDATA, add(CFA_XSP16, literal(-8)))
          CFI (cfiCond222) V7 load(1, XDATA, add(CFA_XSP16, literal(-7)))
          CFI (cfiCond222) R7 load(1, XDATA, add(CFA_XSP16, literal(-6)))
          CFI (cfiCond222) ?RET_LOW load(1, XDATA, add(CFA_XSP16, literal(-5)))
          CFI (cfiCond222) ?RET_HIGH load(1, XDATA, add(CFA_XSP16, literal(-4)))
          CFI (cfiCond222) ?BRET_EXT load(1, XDATA, add(CFA_XSP16, literal(-3)))
          CFI (cfiCond222) DPL0 load(1, XDATA, add(CFA_XSP16, literal(-2)))
          CFI (cfiCond222) DPH0 load(1, XDATA, add(CFA_XSP16, literal(-1)))
          CFI (cfiCond222) CFA_SP SP+-4
          CFI (cfiCond222) CFA_XSP16 add(XSP16, 20)
          CFI Block cfiCond223 Using cfiCommon0
          CFI (cfiCond223) Function writeBuf
          CFI (cfiCond223) Conditional ??CrossCallReturnLabel_140, ??CrossCallReturnLabel_135
          CFI (cfiCond223) R6 load(1, XDATA, add(CFA_XSP16, literal(-16)))
          CFI (cfiCond223) VB load(1, XDATA, add(CFA_XSP16, literal(-15)))
          CFI (cfiCond223) V0 load(1, XDATA, add(CFA_XSP16, literal(-14)))
          CFI (cfiCond223) V1 load(1, XDATA, add(CFA_XSP16, literal(-13)))
          CFI (cfiCond223) V2 load(1, XDATA, add(CFA_XSP16, literal(-12)))
          CFI (cfiCond223) V3 load(1, XDATA, add(CFA_XSP16, literal(-11)))
          CFI (cfiCond223) V4 load(1, XDATA, add(CFA_XSP16, literal(-10)))
          CFI (cfiCond223) V5 load(1, XDATA, add(CFA_XSP16, literal(-9)))
          CFI (cfiCond223) V6 load(1, XDATA, add(CFA_XSP16, literal(-8)))
          CFI (cfiCond223) V7 load(1, XDATA, add(CFA_XSP16, literal(-7)))
          CFI (cfiCond223) R7 load(1, XDATA, add(CFA_XSP16, literal(-6)))
          CFI (cfiCond223) ?RET_LOW load(1, XDATA, add(CFA_XSP16, literal(-5)))
          CFI (cfiCond223) ?RET_HIGH load(1, XDATA, add(CFA_XSP16, literal(-4)))
          CFI (cfiCond223) ?BRET_EXT load(1, XDATA, add(CFA_XSP16, literal(-3)))
          CFI (cfiCond223) DPL0 load(1, XDATA, add(CFA_XSP16, literal(-2)))
          CFI (cfiCond223) DPH0 load(1, XDATA, add(CFA_XSP16, literal(-1)))
          CFI (cfiCond223) CFA_SP SP+-4
          CFI (cfiCond223) CFA_XSP16 add(XSP16, 20)
          CFI Block cfiCond224 Using cfiCommon0
          CFI (cfiCond224) Function osal_nv_write
          CFI (cfiCond224) Conditional ??CrossCallReturnLabel_139, ??CrossCallReturnLabel_22
          CFI (cfiCond224) R6 load(1, XDATA, add(CFA_XSP16, literal(-16)))
          CFI (cfiCond224) VB load(1, XDATA, add(CFA_XSP16, literal(-15)))
          CFI (cfiCond224) V0 load(1, XDATA, add(CFA_XSP16, literal(-14)))
          CFI (cfiCond224) V1 load(1, XDATA, add(CFA_XSP16, literal(-13)))
          CFI (cfiCond224) V2 load(1, XDATA, add(CFA_XSP16, literal(-12)))
          CFI (cfiCond224) V3 load(1, XDATA, add(CFA_XSP16, literal(-11)))
          CFI (cfiCond224) V4 load(1, XDATA, add(CFA_XSP16, literal(-10)))
          CFI (cfiCond224) V5 load(1, XDATA, add(CFA_XSP16, literal(-9)))
          CFI (cfiCond224) V6 load(1, XDATA, add(CFA_XSP16, literal(-8)))
          CFI (cfiCond224) V7 load(1, XDATA, add(CFA_XSP16, literal(-7)))
          CFI (cfiCond224) R7 load(1, XDATA, add(CFA_XSP16, literal(-6)))
          CFI (cfiCond224) ?RET_LOW load(1, XDATA, add(CFA_XSP16, literal(-5)))
          CFI (cfiCond224) ?RET_HIGH load(1, XDATA, add(CFA_XSP16, literal(-4)))
          CFI (cfiCond224) ?BRET_EXT load(1, XDATA, add(CFA_XSP16, literal(-3)))
          CFI (cfiCond224) DPL0 load(1, XDATA, add(CFA_XSP16, literal(-2)))
          CFI (cfiCond224) DPH0 load(1, XDATA, add(CFA_XSP16, literal(-1)))
          CFI (cfiCond224) CFA_SP SP+-4
          CFI (cfiCond224) CFA_XSP16 add(XSP16, 35)
          CFI Block cfiCond225 Using cfiCommon0
          CFI (cfiCond225) Function osal_nv_write
          CFI (cfiCond225) Conditional ??CrossCallReturnLabel_139, ??CrossCallReturnLabel_23
          CFI (cfiCond225) R6 load(1, XDATA, add(CFA_XSP16, literal(-16)))
          CFI (cfiCond225) VB load(1, XDATA, add(CFA_XSP16, literal(-15)))
          CFI (cfiCond225) V0 load(1, XDATA, add(CFA_XSP16, literal(-14)))
          CFI (cfiCond225) V1 load(1, XDATA, add(CFA_XSP16, literal(-13)))
          CFI (cfiCond225) V2 load(1, XDATA, add(CFA_XSP16, literal(-12)))
          CFI (cfiCond225) V3 load(1, XDATA, add(CFA_XSP16, literal(-11)))
          CFI (cfiCond225) V4 load(1, XDATA, add(CFA_XSP16, literal(-10)))
          CFI (cfiCond225) V5 load(1, XDATA, add(CFA_XSP16, literal(-9)))
          CFI (cfiCond225) V6 load(1, XDATA, add(CFA_XSP16, literal(-8)))
          CFI (cfiCond225) V7 load(1, XDATA, add(CFA_XSP16, literal(-7)))
          CFI (cfiCond225) R7 load(1, XDATA, add(CFA_XSP16, literal(-6)))
          CFI (cfiCond225) ?RET_LOW load(1, XDATA, add(CFA_XSP16, literal(-5)))
          CFI (cfiCond225) ?RET_HIGH load(1, XDATA, add(CFA_XSP16, literal(-4)))
          CFI (cfiCond225) ?BRET_EXT load(1, XDATA, add(CFA_XSP16, literal(-3)))
          CFI (cfiCond225) DPL0 load(1, XDATA, add(CFA_XSP16, literal(-2)))
          CFI (cfiCond225) DPH0 load(1, XDATA, add(CFA_XSP16, literal(-1)))
          CFI (cfiCond225) CFA_SP SP+-4
          CFI (cfiCond225) CFA_XSP16 add(XSP16, 35)
          CFI Block cfiPicker226 Using cfiCommon1
          CFI (cfiPicker226) NoFunction
          CFI (cfiPicker226) Picker
        LCALL     ?Subroutine48 & 0xFFFF
??CrossCallReturnLabel_142:
        MOVX      A,@DPTR
        RET
          CFI EndBlock cfiCond219
          CFI EndBlock cfiCond220
          CFI EndBlock cfiCond221
          CFI EndBlock cfiCond222
          CFI EndBlock cfiCond223
          CFI EndBlock cfiCond224
          CFI EndBlock cfiCond225
          CFI EndBlock cfiPicker226

        RSEG BANKED_CODE:HUGECODE:NOROOT(0)
?Subroutine48:
          CFI Block cfiCond227 Using cfiCommon0
          CFI Function initItem
          CFI Conditional ??CrossCallReturnLabel_141
          CFI R6 load(1, XDATA, add(CFA_XSP16, literal(-16)))
          CFI VB load(1, XDATA, add(CFA_XSP16, literal(-15)))
          CFI V0 load(1, XDATA, add(CFA_XSP16, literal(-14)))
          CFI V1 load(1, XDATA, add(CFA_XSP16, literal(-13)))
          CFI V2 load(1, XDATA, add(CFA_XSP16, literal(-12)))
          CFI V3 load(1, XDATA, add(CFA_XSP16, literal(-11)))
          CFI V4 load(1, XDATA, add(CFA_XSP16, literal(-10)))
          CFI V5 load(1, XDATA, add(CFA_XSP16, literal(-9)))
          CFI V6 load(1, XDATA, add(CFA_XSP16, literal(-8)))
          CFI V7 load(1, XDATA, add(CFA_XSP16, literal(-7)))
          CFI R7 load(1, XDATA, add(CFA_XSP16, literal(-6)))
          CFI ?RET_LOW load(1, XDATA, add(CFA_XSP16, literal(-5)))
          CFI ?RET_HIGH load(1, XDATA, add(CFA_XSP16, literal(-4)))
          CFI ?BRET_EXT load(1, XDATA, add(CFA_XSP16, literal(-3)))
          CFI DPL0 load(1, XDATA, add(CFA_XSP16, literal(-2)))
          CFI DPH0 load(1, XDATA, add(CFA_XSP16, literal(-1)))
          CFI CFA_SP SP+-2
          CFI CFA_XSP16 add(XSP16, 26)
          CFI Block cfiCond228 Using cfiCommon0
          CFI (cfiCond228) Function writeItem
          CFI (cfiCond228) Conditional ??CrossCallReturnLabel_142, ??CrossCallReturnLabel_140, ??CrossCallReturnLabel_136
          CFI (cfiCond228) R6 load(1, XDATA, add(CFA_XSP16, literal(-16)))
          CFI (cfiCond228) VB load(1, XDATA, add(CFA_XSP16, literal(-15)))
          CFI (cfiCond228) V0 load(1, XDATA, add(CFA_XSP16, literal(-14)))
          CFI (cfiCond228) V1 load(1, XDATA, add(CFA_XSP16, literal(-13)))
          CFI (cfiCond228) V2 load(1, XDATA, add(CFA_XSP16, literal(-12)))
          CFI (cfiCond228) V3 load(1, XDATA, add(CFA_XSP16, literal(-11)))
          CFI (cfiCond228) V4 load(1, XDATA, add(CFA_XSP16, literal(-10)))
          CFI (cfiCond228) V5 load(1, XDATA, add(CFA_XSP16, literal(-9)))
          CFI (cfiCond228) V6 load(1, XDATA, add(CFA_XSP16, literal(-8)))
          CFI (cfiCond228) V7 load(1, XDATA, add(CFA_XSP16, literal(-7)))
          CFI (cfiCond228) R7 load(1, XDATA, add(CFA_XSP16, literal(-6)))
          CFI (cfiCond228) ?RET_LOW load(1, XDATA, add(CFA_XSP16, literal(-5)))
          CFI (cfiCond228) ?RET_HIGH load(1, XDATA, add(CFA_XSP16, literal(-4)))
          CFI (cfiCond228) ?BRET_EXT load(1, XDATA, add(CFA_XSP16, literal(-3)))
          CFI (cfiCond228) DPL0 load(1, XDATA, add(CFA_XSP16, literal(-2)))
          CFI (cfiCond228) DPH0 load(1, XDATA, add(CFA_XSP16, literal(-1)))
          CFI (cfiCond228) CFA_SP SP+-6
          CFI (cfiCond228) CFA_XSP16 add(XSP16, 28)
          CFI Block cfiCond229 Using cfiCommon0
          CFI (cfiCond229) Function writeItem
          CFI (cfiCond229) Conditional ??CrossCallReturnLabel_142, ??CrossCallReturnLabel_140, ??CrossCallReturnLabel_137
          CFI (cfiCond229) R6 load(1, XDATA, add(CFA_XSP16, literal(-16)))
          CFI (cfiCond229) VB load(1, XDATA, add(CFA_XSP16, literal(-15)))
          CFI (cfiCond229) V0 load(1, XDATA, add(CFA_XSP16, literal(-14)))
          CFI (cfiCond229) V1 load(1, XDATA, add(CFA_XSP16, literal(-13)))
          CFI (cfiCond229) V2 load(1, XDATA, add(CFA_XSP16, literal(-12)))
          CFI (cfiCond229) V3 load(1, XDATA, add(CFA_XSP16, literal(-11)))
          CFI (cfiCond229) V4 load(1, XDATA, add(CFA_XSP16, literal(-10)))
          CFI (cfiCond229) V5 load(1, XDATA, add(CFA_XSP16, literal(-9)))
          CFI (cfiCond229) V6 load(1, XDATA, add(CFA_XSP16, literal(-8)))
          CFI (cfiCond229) V7 load(1, XDATA, add(CFA_XSP16, literal(-7)))
          CFI (cfiCond229) R7 load(1, XDATA, add(CFA_XSP16, literal(-6)))
          CFI (cfiCond229) ?RET_LOW load(1, XDATA, add(CFA_XSP16, literal(-5)))
          CFI (cfiCond229) ?RET_HIGH load(1, XDATA, add(CFA_XSP16, literal(-4)))
          CFI (cfiCond229) ?BRET_EXT load(1, XDATA, add(CFA_XSP16, literal(-3)))
          CFI (cfiCond229) DPL0 load(1, XDATA, add(CFA_XSP16, literal(-2)))
          CFI (cfiCond229) DPH0 load(1, XDATA, add(CFA_XSP16, literal(-1)))
          CFI (cfiCond229) CFA_SP SP+-6
          CFI (cfiCond229) CFA_XSP16 add(XSP16, 28)
          CFI Block cfiCond230 Using cfiCommon0
          CFI (cfiCond230) Function writeItem
          CFI (cfiCond230) Conditional ??CrossCallReturnLabel_142, ??CrossCallReturnLabel_140, ??CrossCallReturnLabel_138
          CFI (cfiCond230) R6 load(1, XDATA, add(CFA_XSP16, literal(-16)))
          CFI (cfiCond230) VB load(1, XDATA, add(CFA_XSP16, literal(-15)))
          CFI (cfiCond230) V0 load(1, XDATA, add(CFA_XSP16, literal(-14)))
          CFI (cfiCond230) V1 load(1, XDATA, add(CFA_XSP16, literal(-13)))
          CFI (cfiCond230) V2 load(1, XDATA, add(CFA_XSP16, literal(-12)))
          CFI (cfiCond230) V3 load(1, XDATA, add(CFA_XSP16, literal(-11)))
          CFI (cfiCond230) V4 load(1, XDATA, add(CFA_XSP16, literal(-10)))
          CFI (cfiCond230) V5 load(1, XDATA, add(CFA_XSP16, literal(-9)))
          CFI (cfiCond230) V6 load(1, XDATA, add(CFA_XSP16, literal(-8)))
          CFI (cfiCond230) V7 load(1, XDATA, add(CFA_XSP16, literal(-7)))
          CFI (cfiCond230) R7 load(1, XDATA, add(CFA_XSP16, literal(-6)))
          CFI (cfiCond230) ?RET_LOW load(1, XDATA, add(CFA_XSP16, literal(-5)))
          CFI (cfiCond230) ?RET_HIGH load(1, XDATA, add(CFA_XSP16, literal(-4)))
          CFI (cfiCond230) ?BRET_EXT load(1, XDATA, add(CFA_XSP16, literal(-3)))
          CFI (cfiCond230) DPL0 load(1, XDATA, add(CFA_XSP16, literal(-2)))
          CFI (cfiCond230) DPH0 load(1, XDATA, add(CFA_XSP16, literal(-1)))
          CFI (cfiCond230) CFA_SP SP+-6
          CFI (cfiCond230) CFA_XSP16 add(XSP16, 28)
          CFI Block cfiCond231 Using cfiCommon0
          CFI (cfiCond231) Function writeBuf
          CFI (cfiCond231) Conditional ??CrossCallReturnLabel_142, ??CrossCallReturnLabel_140, ??CrossCallReturnLabel_134
          CFI (cfiCond231) R6 load(1, XDATA, add(CFA_XSP16, literal(-16)))
          CFI (cfiCond231) VB load(1, XDATA, add(CFA_XSP16, literal(-15)))
          CFI (cfiCond231) V0 load(1, XDATA, add(CFA_XSP16, literal(-14)))
          CFI (cfiCond231) V1 load(1, XDATA, add(CFA_XSP16, literal(-13)))
          CFI (cfiCond231) V2 load(1, XDATA, add(CFA_XSP16, literal(-12)))
          CFI (cfiCond231) V3 load(1, XDATA, add(CFA_XSP16, literal(-11)))
          CFI (cfiCond231) V4 load(1, XDATA, add(CFA_XSP16, literal(-10)))
          CFI (cfiCond231) V5 load(1, XDATA, add(CFA_XSP16, literal(-9)))
          CFI (cfiCond231) V6 load(1, XDATA, add(CFA_XSP16, literal(-8)))
          CFI (cfiCond231) V7 load(1, XDATA, add(CFA_XSP16, literal(-7)))
          CFI (cfiCond231) R7 load(1, XDATA, add(CFA_XSP16, literal(-6)))
          CFI (cfiCond231) ?RET_LOW load(1, XDATA, add(CFA_XSP16, literal(-5)))
          CFI (cfiCond231) ?RET_HIGH load(1, XDATA, add(CFA_XSP16, literal(-4)))
          CFI (cfiCond231) ?BRET_EXT load(1, XDATA, add(CFA_XSP16, literal(-3)))
          CFI (cfiCond231) DPL0 load(1, XDATA, add(CFA_XSP16, literal(-2)))
          CFI (cfiCond231) DPH0 load(1, XDATA, add(CFA_XSP16, literal(-1)))
          CFI (cfiCond231) CFA_SP SP+-6
          CFI (cfiCond231) CFA_XSP16 add(XSP16, 20)
          CFI Block cfiCond232 Using cfiCommon0
          CFI (cfiCond232) Function writeBuf
          CFI (cfiCond232) Conditional ??CrossCallReturnLabel_142, ??CrossCallReturnLabel_140, ??CrossCallReturnLabel_135
          CFI (cfiCond232) R6 load(1, XDATA, add(CFA_XSP16, literal(-16)))
          CFI (cfiCond232) VB load(1, XDATA, add(CFA_XSP16, literal(-15)))
          CFI (cfiCond232) V0 load(1, XDATA, add(CFA_XSP16, literal(-14)))
          CFI (cfiCond232) V1 load(1, XDATA, add(CFA_XSP16, literal(-13)))
          CFI (cfiCond232) V2 load(1, XDATA, add(CFA_XSP16, literal(-12)))
          CFI (cfiCond232) V3 load(1, XDATA, add(CFA_XSP16, literal(-11)))
          CFI (cfiCond232) V4 load(1, XDATA, add(CFA_XSP16, literal(-10)))
          CFI (cfiCond232) V5 load(1, XDATA, add(CFA_XSP16, literal(-9)))
          CFI (cfiCond232) V6 load(1, XDATA, add(CFA_XSP16, literal(-8)))
          CFI (cfiCond232) V7 load(1, XDATA, add(CFA_XSP16, literal(-7)))
          CFI (cfiCond232) R7 load(1, XDATA, add(CFA_XSP16, literal(-6)))
          CFI (cfiCond232) ?RET_LOW load(1, XDATA, add(CFA_XSP16, literal(-5)))
          CFI (cfiCond232) ?RET_HIGH load(1, XDATA, add(CFA_XSP16, literal(-4)))
          CFI (cfiCond232) ?BRET_EXT load(1, XDATA, add(CFA_XSP16, literal(-3)))
          CFI (cfiCond232) DPL0 load(1, XDATA, add(CFA_XSP16, literal(-2)))
          CFI (cfiCond232) DPH0 load(1, XDATA, add(CFA_XSP16, literal(-1)))
          CFI (cfiCond232) CFA_SP SP+-6
          CFI (cfiCond232) CFA_XSP16 add(XSP16, 20)
          CFI Block cfiCond233 Using cfiCommon0
          CFI (cfiCond233) Function osal_nv_write
          CFI (cfiCond233) Conditional ??CrossCallReturnLabel_142, ??CrossCallReturnLabel_139, ??CrossCallReturnLabel_22
          CFI (cfiCond233) R6 load(1, XDATA, add(CFA_XSP16, literal(-16)))
          CFI (cfiCond233) VB load(1, XDATA, add(CFA_XSP16, literal(-15)))
          CFI (cfiCond233) V0 load(1, XDATA, add(CFA_XSP16, literal(-14)))
          CFI (cfiCond233) V1 load(1, XDATA, add(CFA_XSP16, literal(-13)))
          CFI (cfiCond233) V2 load(1, XDATA, add(CFA_XSP16, literal(-12)))
          CFI (cfiCond233) V3 load(1, XDATA, add(CFA_XSP16, literal(-11)))
          CFI (cfiCond233) V4 load(1, XDATA, add(CFA_XSP16, literal(-10)))
          CFI (cfiCond233) V5 load(1, XDATA, add(CFA_XSP16, literal(-9)))
          CFI (cfiCond233) V6 load(1, XDATA, add(CFA_XSP16, literal(-8)))
          CFI (cfiCond233) V7 load(1, XDATA, add(CFA_XSP16, literal(-7)))
          CFI (cfiCond233) R7 load(1, XDATA, add(CFA_XSP16, literal(-6)))
          CFI (cfiCond233) ?RET_LOW load(1, XDATA, add(CFA_XSP16, literal(-5)))
          CFI (cfiCond233) ?RET_HIGH load(1, XDATA, add(CFA_XSP16, literal(-4)))
          CFI (cfiCond233) ?BRET_EXT load(1, XDATA, add(CFA_XSP16, literal(-3)))
          CFI (cfiCond233) DPL0 load(1, XDATA, add(CFA_XSP16, literal(-2)))
          CFI (cfiCond233) DPH0 load(1, XDATA, add(CFA_XSP16, literal(-1)))
          CFI (cfiCond233) CFA_SP SP+-6
          CFI (cfiCond233) CFA_XSP16 add(XSP16, 35)
          CFI Block cfiCond234 Using cfiCommon0
          CFI (cfiCond234) Function osal_nv_write
          CFI (cfiCond234) Conditional ??CrossCallReturnLabel_142, ??CrossCallReturnLabel_139, ??CrossCallReturnLabel_23
          CFI (cfiCond234) R6 load(1, XDATA, add(CFA_XSP16, literal(-16)))
          CFI (cfiCond234) VB load(1, XDATA, add(CFA_XSP16, literal(-15)))
          CFI (cfiCond234) V0 load(1, XDATA, add(CFA_XSP16, literal(-14)))
          CFI (cfiCond234) V1 load(1, XDATA, add(CFA_XSP16, literal(-13)))
          CFI (cfiCond234) V2 load(1, XDATA, add(CFA_XSP16, literal(-12)))
          CFI (cfiCond234) V3 load(1, XDATA, add(CFA_XSP16, literal(-11)))
          CFI (cfiCond234) V4 load(1, XDATA, add(CFA_XSP16, literal(-10)))
          CFI (cfiCond234) V5 load(1, XDATA, add(CFA_XSP16, literal(-9)))
          CFI (cfiCond234) V6 load(1, XDATA, add(CFA_XSP16, literal(-8)))
          CFI (cfiCond234) V7 load(1, XDATA, add(CFA_XSP16, literal(-7)))
          CFI (cfiCond234) R7 load(1, XDATA, add(CFA_XSP16, literal(-6)))
          CFI (cfiCond234) ?RET_LOW load(1, XDATA, add(CFA_XSP16, literal(-5)))
          CFI (cfiCond234) ?RET_HIGH load(1, XDATA, add(CFA_XSP16, literal(-4)))
          CFI (cfiCond234) ?BRET_EXT load(1, XDATA, add(CFA_XSP16, literal(-3)))
          CFI (cfiCond234) DPL0 load(1, XDATA, add(CFA_XSP16, literal(-2)))
          CFI (cfiCond234) DPH0 load(1, XDATA, add(CFA_XSP16, literal(-1)))
          CFI (cfiCond234) CFA_SP SP+-6
          CFI (cfiCond234) CFA_XSP16 add(XSP16, 35)
          CFI Block cfiPicker235 Using cfiCommon1
          CFI (cfiPicker235) NoFunction
          CFI (cfiPicker235) Picker
        MOVX      A,@DPTR
        MOV       R0,A
        INC       DPTR
        MOVX      A,@DPTR
        MOV       DPH,A
        MOV       DPL,R0
        RET
          CFI EndBlock cfiCond227
          CFI EndBlock cfiCond228
          CFI EndBlock cfiCond229
          CFI EndBlock cfiCond230
          CFI EndBlock cfiCond231
          CFI EndBlock cfiCond232
          CFI EndBlock cfiCond233
          CFI EndBlock cfiCond234
          CFI EndBlock cfiPicker235

        RSEG BANKED_CODE:HUGECODE:NOROOT(0)
?Subroutine9:
          CFI Block cfiCond236 Using cfiCommon0
          CFI Function writeBuf
          CFI Conditional ??CrossCallReturnLabel_7
          CFI R6 load(1, XDATA, add(CFA_XSP16, literal(-16)))
          CFI VB load(1, XDATA, add(CFA_XSP16, literal(-15)))
          CFI V0 load(1, XDATA, add(CFA_XSP16, literal(-14)))
          CFI V1 load(1, XDATA, add(CFA_XSP16, literal(-13)))
          CFI V2 load(1, XDATA, add(CFA_XSP16, literal(-12)))
          CFI V3 load(1, XDATA, add(CFA_XSP16, literal(-11)))
          CFI V4 load(1, XDATA, add(CFA_XSP16, literal(-10)))
          CFI V5 load(1, XDATA, add(CFA_XSP16, literal(-9)))
          CFI V6 load(1, XDATA, add(CFA_XSP16, literal(-8)))
          CFI V7 load(1, XDATA, add(CFA_XSP16, literal(-7)))
          CFI R7 load(1, XDATA, add(CFA_XSP16, literal(-6)))
          CFI ?RET_LOW load(1, XDATA, add(CFA_XSP16, literal(-5)))
          CFI ?RET_HIGH load(1, XDATA, add(CFA_XSP16, literal(-4)))
          CFI ?BRET_EXT load(1, XDATA, add(CFA_XSP16, literal(-3)))
          CFI DPL0 load(1, XDATA, add(CFA_XSP16, literal(-2)))
          CFI DPH0 load(1, XDATA, add(CFA_XSP16, literal(-1)))
          CFI CFA_SP SP+-2
          CFI CFA_XSP16 add(XSP16, 20)
          CFI Block cfiCond237 Using cfiCommon0
          CFI (cfiCond237) Function writeBuf
          CFI (cfiCond237) Conditional ??CrossCallReturnLabel_8
          CFI (cfiCond237) R6 load(1, XDATA, add(CFA_XSP16, literal(-16)))
          CFI (cfiCond237) VB load(1, XDATA, add(CFA_XSP16, literal(-15)))
          CFI (cfiCond237) V0 load(1, XDATA, add(CFA_XSP16, literal(-14)))
          CFI (cfiCond237) V1 load(1, XDATA, add(CFA_XSP16, literal(-13)))
          CFI (cfiCond237) V2 load(1, XDATA, add(CFA_XSP16, literal(-12)))
          CFI (cfiCond237) V3 load(1, XDATA, add(CFA_XSP16, literal(-11)))
          CFI (cfiCond237) V4 load(1, XDATA, add(CFA_XSP16, literal(-10)))
          CFI (cfiCond237) V5 load(1, XDATA, add(CFA_XSP16, literal(-9)))
          CFI (cfiCond237) V6 load(1, XDATA, add(CFA_XSP16, literal(-8)))
          CFI (cfiCond237) V7 load(1, XDATA, add(CFA_XSP16, literal(-7)))
          CFI (cfiCond237) R7 load(1, XDATA, add(CFA_XSP16, literal(-6)))
          CFI (cfiCond237) ?RET_LOW load(1, XDATA, add(CFA_XSP16, literal(-5)))
          CFI (cfiCond237) ?RET_HIGH load(1, XDATA, add(CFA_XSP16, literal(-4)))
          CFI (cfiCond237) ?BRET_EXT load(1, XDATA, add(CFA_XSP16, literal(-3)))
          CFI (cfiCond237) DPL0 load(1, XDATA, add(CFA_XSP16, literal(-2)))
          CFI (cfiCond237) DPH0 load(1, XDATA, add(CFA_XSP16, literal(-1)))
          CFI (cfiCond237) CFA_SP SP+-2
          CFI (cfiCond237) CFA_XSP16 add(XSP16, 20)
          CFI Block cfiCond238 Using cfiCommon0
          CFI (cfiCond238) Function writeBuf
          CFI (cfiCond238) Conditional ??CrossCallReturnLabel_9
          CFI (cfiCond238) R6 load(1, XDATA, add(CFA_XSP16, literal(-16)))
          CFI (cfiCond238) VB load(1, XDATA, add(CFA_XSP16, literal(-15)))
          CFI (cfiCond238) V0 load(1, XDATA, add(CFA_XSP16, literal(-14)))
          CFI (cfiCond238) V1 load(1, XDATA, add(CFA_XSP16, literal(-13)))
          CFI (cfiCond238) V2 load(1, XDATA, add(CFA_XSP16, literal(-12)))
          CFI (cfiCond238) V3 load(1, XDATA, add(CFA_XSP16, literal(-11)))
          CFI (cfiCond238) V4 load(1, XDATA, add(CFA_XSP16, literal(-10)))
          CFI (cfiCond238) V5 load(1, XDATA, add(CFA_XSP16, literal(-9)))
          CFI (cfiCond238) V6 load(1, XDATA, add(CFA_XSP16, literal(-8)))
          CFI (cfiCond238) V7 load(1, XDATA, add(CFA_XSP16, literal(-7)))
          CFI (cfiCond238) R7 load(1, XDATA, add(CFA_XSP16, literal(-6)))
          CFI (cfiCond238) ?RET_LOW load(1, XDATA, add(CFA_XSP16, literal(-5)))
          CFI (cfiCond238) ?RET_HIGH load(1, XDATA, add(CFA_XSP16, literal(-4)))
          CFI (cfiCond238) ?BRET_EXT load(1, XDATA, add(CFA_XSP16, literal(-3)))
          CFI (cfiCond238) DPL0 load(1, XDATA, add(CFA_XSP16, literal(-2)))
          CFI (cfiCond238) DPH0 load(1, XDATA, add(CFA_XSP16, literal(-1)))
          CFI (cfiCond238) CFA_SP SP+-2
          CFI (cfiCond238) CFA_XSP16 add(XSP16, 20)
          CFI Block cfiCond239 Using cfiCommon0
          CFI (cfiCond239) Function writeItem
          CFI (cfiCond239) Conditional ??CrossCallReturnLabel_10
          CFI (cfiCond239) R6 load(1, XDATA, add(CFA_XSP16, literal(-16)))
          CFI (cfiCond239) VB load(1, XDATA, add(CFA_XSP16, literal(-15)))
          CFI (cfiCond239) V0 load(1, XDATA, add(CFA_XSP16, literal(-14)))
          CFI (cfiCond239) V1 load(1, XDATA, add(CFA_XSP16, literal(-13)))
          CFI (cfiCond239) V2 load(1, XDATA, add(CFA_XSP16, literal(-12)))
          CFI (cfiCond239) V3 load(1, XDATA, add(CFA_XSP16, literal(-11)))
          CFI (cfiCond239) V4 load(1, XDATA, add(CFA_XSP16, literal(-10)))
          CFI (cfiCond239) V5 load(1, XDATA, add(CFA_XSP16, literal(-9)))
          CFI (cfiCond239) V6 load(1, XDATA, add(CFA_XSP16, literal(-8)))
          CFI (cfiCond239) V7 load(1, XDATA, add(CFA_XSP16, literal(-7)))
          CFI (cfiCond239) R7 load(1, XDATA, add(CFA_XSP16, literal(-6)))
          CFI (cfiCond239) ?RET_LOW load(1, XDATA, add(CFA_XSP16, literal(-5)))
          CFI (cfiCond239) ?RET_HIGH load(1, XDATA, add(CFA_XSP16, literal(-4)))
          CFI (cfiCond239) ?BRET_EXT load(1, XDATA, add(CFA_XSP16, literal(-3)))
          CFI (cfiCond239) DPL0 load(1, XDATA, add(CFA_XSP16, literal(-2)))
          CFI (cfiCond239) DPH0 load(1, XDATA, add(CFA_XSP16, literal(-1)))
          CFI (cfiCond239) CFA_SP SP+-2
          CFI (cfiCond239) CFA_XSP16 add(XSP16, 28)
          CFI Block cfiCond240 Using cfiCommon0
          CFI (cfiCond240) Function writeItem
          CFI (cfiCond240) Conditional ??CrossCallReturnLabel_11
          CFI (cfiCond240) R6 load(1, XDATA, add(CFA_XSP16, literal(-16)))
          CFI (cfiCond240) VB load(1, XDATA, add(CFA_XSP16, literal(-15)))
          CFI (cfiCond240) V0 load(1, XDATA, add(CFA_XSP16, literal(-14)))
          CFI (cfiCond240) V1 load(1, XDATA, add(CFA_XSP16, literal(-13)))
          CFI (cfiCond240) V2 load(1, XDATA, add(CFA_XSP16, literal(-12)))
          CFI (cfiCond240) V3 load(1, XDATA, add(CFA_XSP16, literal(-11)))
          CFI (cfiCond240) V4 load(1, XDATA, add(CFA_XSP16, literal(-10)))
          CFI (cfiCond240) V5 load(1, XDATA, add(CFA_XSP16, literal(-9)))
          CFI (cfiCond240) V6 load(1, XDATA, add(CFA_XSP16, literal(-8)))
          CFI (cfiCond240) V7 load(1, XDATA, add(CFA_XSP16, literal(-7)))
          CFI (cfiCond240) R7 load(1, XDATA, add(CFA_XSP16, literal(-6)))
          CFI (cfiCond240) ?RET_LOW load(1, XDATA, add(CFA_XSP16, literal(-5)))
          CFI (cfiCond240) ?RET_HIGH load(1, XDATA, add(CFA_XSP16, literal(-4)))
          CFI (cfiCond240) ?BRET_EXT load(1, XDATA, add(CFA_XSP16, literal(-3)))
          CFI (cfiCond240) DPL0 load(1, XDATA, add(CFA_XSP16, literal(-2)))
          CFI (cfiCond240) DPH0 load(1, XDATA, add(CFA_XSP16, literal(-1)))
          CFI (cfiCond240) CFA_SP SP+-2
          CFI (cfiCond240) CFA_XSP16 add(XSP16, 28)
          CFI Block cfiCond241 Using cfiCommon0
          CFI (cfiCond241) Function osal_nv_write
          CFI (cfiCond241) Conditional ??CrossCallReturnLabel_12
          CFI (cfiCond241) R6 load(1, XDATA, add(CFA_XSP16, literal(-16)))
          CFI (cfiCond241) VB load(1, XDATA, add(CFA_XSP16, literal(-15)))
          CFI (cfiCond241) V0 load(1, XDATA, add(CFA_XSP16, literal(-14)))
          CFI (cfiCond241) V1 load(1, XDATA, add(CFA_XSP16, literal(-13)))
          CFI (cfiCond241) V2 load(1, XDATA, add(CFA_XSP16, literal(-12)))
          CFI (cfiCond241) V3 load(1, XDATA, add(CFA_XSP16, literal(-11)))
          CFI (cfiCond241) V4 load(1, XDATA, add(CFA_XSP16, literal(-10)))
          CFI (cfiCond241) V5 load(1, XDATA, add(CFA_XSP16, literal(-9)))
          CFI (cfiCond241) V6 load(1, XDATA, add(CFA_XSP16, literal(-8)))
          CFI (cfiCond241) V7 load(1, XDATA, add(CFA_XSP16, literal(-7)))
          CFI (cfiCond241) R7 load(1, XDATA, add(CFA_XSP16, literal(-6)))
          CFI (cfiCond241) ?RET_LOW load(1, XDATA, add(CFA_XSP16, literal(-5)))
          CFI (cfiCond241) ?RET_HIGH load(1, XDATA, add(CFA_XSP16, literal(-4)))
          CFI (cfiCond241) ?BRET_EXT load(1, XDATA, add(CFA_XSP16, literal(-3)))
          CFI (cfiCond241) DPL0 load(1, XDATA, add(CFA_XSP16, literal(-2)))
          CFI (cfiCond241) DPH0 load(1, XDATA, add(CFA_XSP16, literal(-1)))
          CFI (cfiCond241) CFA_SP SP+-2
          CFI (cfiCond241) CFA_XSP16 add(XSP16, 35)
          CFI Block cfiPicker242 Using cfiCommon1
          CFI (cfiPicker242) NoFunction
          CFI (cfiPicker242) Picker
        MOV       A,R0
        MOVX      @DPTR,A
        INC       DPTR
        MOV       A,R1
        MOVX      @DPTR,A
        RET
          CFI EndBlock cfiCond236
          CFI EndBlock cfiCond237
          CFI EndBlock cfiCond238
          CFI EndBlock cfiCond239
          CFI EndBlock cfiCond240
          CFI EndBlock cfiCond241
          CFI EndBlock cfiPicker242
// 1135 
// 1136 /*********************************************************************
// 1137  * @fn      hotItem
// 1138  *
// 1139  * @brief   Look for the parameter 'id' in the hot items array.
// 1140  *
// 1141  * @param   id - A valid NV item Id.
// 1142  *
// 1143  * @return  A valid index into the hot items if the item is hot; OSAL_NV_MAX_HOT if not.
// 1144  */

        RSEG BANKED_CODE:HUGECODE:NOROOT(0)
// 1145 static uint8 hotItem(uint16 id)
hotItem:
          CFI Block cfiBlock243 Using cfiCommon0
          CFI Function hotItem
        CODE
// 1146 {
        PUSH      DPL
          CFI DPL0 Frame(CFA_SP, 4)
          CFI CFA_SP SP+-4
        PUSH      DPH
          CFI DPH0 Frame(CFA_SP, 5)
          CFI CFA_SP SP+-5
        ; Saved register size: 2
        ; Auto size: 0
// 1147   uint8 hotIdx;
// 1148 
// 1149   for (hotIdx = 0; hotIdx < OSAL_NV_MAX_HOT; hotIdx++)
        MOV       R1,#0x0
// 1150   {
// 1151     if (hotIds[hotIdx] == id)
??hotItem_0:
        MOV       A,R1
        ADD       A,0xE0 /* A   */
        MOV       R4,A
        CLR       A
        RLC       A
        MOV       R5,A
        MOV       A,#hotIds & 0xff
        ADD       A,R4
        MOV       DPL,A
        MOV       A,#(hotIds >> 8) & 0xff
        ADDC      A,R5
        MOV       DPH,A
        MOVX      A,@DPTR
        XRL       A,R2
        JNZ       ??hotItem_1
        INC       DPTR
        MOVX      A,@DPTR
        XRL       A,R3
??hotItem_1:
        JZ        ??hotItem_2
// 1152     {
// 1153       break;
// 1154     }
// 1155   }
        INC       R1
        MOV       A,R1
        CLR       C
        SUBB      A,#0x3
        JC        ??hotItem_0
// 1156 
// 1157   return hotIdx;
??hotItem_2:
          CFI EndBlock cfiBlock243
        REQUIRE ?Subroutine4
        ; // Fall through to label ?Subroutine4
// 1158 }

        RSEG BANKED_CODE:HUGECODE:NOROOT(0)
?Subroutine4:
          CFI Block cfiBlock244 Using cfiCommon0
          CFI NoFunction
          CFI CFA_SP SP+-5
          CFI DPL0 Frame(CFA_SP, 4)
          CFI DPH0 Frame(CFA_SP, 5)
        POP       DPH
          CFI CFA_SP SP+-4
          CFI DPH0 SameValue
        POP       DPL
          CFI CFA_SP SP+-3
          CFI DPL0 SameValue
        LJMP      ?BRET
          CFI EndBlock cfiBlock244
// 1159 
// 1160 /*********************************************************************
// 1161  * @fn      hotItemUpdate
// 1162  *
// 1163  * @brief   If the parameter 'id' is a hot item, update the corresponding hot item data.
// 1164  *
// 1165  * @param   pg - The new NV page corresponding to the hot item.
// 1166  * @param   off - The new NV page offset corresponding to the hot item.
// 1167  * @param   id - A valid NV item Id.
// 1168  *
// 1169  * @return  none
// 1170  */

        RSEG BANKED_CODE:HUGECODE:NOROOT(0)
// 1171 static void hotItemUpdate(uint8 pg, uint16 off, uint16 id)
hotItemUpdate:
          CFI Block cfiBlock245 Using cfiCommon0
          CFI Function hotItemUpdate
        CODE
// 1172 {
        FUNCALL hotItemUpdate, hotItem
        LOCFRAME ISTACK, 0, STACK
        LOCFRAME PSTACK, 0, STACK
        LOCFRAME XSTACK, 9, STACK
        LOCFRAME IOVERLAY, 0, STATIC
        LOCFRAME DOVERLAY, 0, STATIC
        ARGFRAME ISTACK, 0, STACK
        ARGFRAME PSTACK, 0, STACK
        ARGFRAME XSTACK, 9, STACK
        ARGFRAME IOVERLAY, 0, STATIC
        ARGFRAME DOVERLAY, 0, STATIC
        REQUIRE ?V0
        MOV       A,#-0x9
        LCALL     ?BANKED_ENTER_XDATA
          CFI DPH0 load(1, XDATA, add(CFA_XSP16, literal(-1)))
          CFI DPL0 load(1, XDATA, add(CFA_XSP16, literal(-2)))
          CFI ?BRET_EXT load(1, XDATA, add(CFA_XSP16, literal(-3)))
          CFI ?RET_HIGH load(1, XDATA, add(CFA_XSP16, literal(-4)))
          CFI ?RET_LOW load(1, XDATA, add(CFA_XSP16, literal(-5)))
          CFI R7 load(1, XDATA, add(CFA_XSP16, literal(-6)))
          CFI V0 load(1, XDATA, add(CFA_XSP16, literal(-7)))
          CFI VB load(1, XDATA, add(CFA_XSP16, literal(-8)))
          CFI R6 load(1, XDATA, add(CFA_XSP16, literal(-9)))
          CFI CFA_SP SP+0
          CFI CFA_XSP16 add(XSP16, 9)
        ; Saved register size: 9
        ; Auto size: 0
        MOV       ?V0,R1
        MOV       A,R2
        MOV       R6,A
        MOV       A,R3
        MOV       R7,A
        MOV       A,R4
        MOV       R2,A
        MOV       A,R5
        MOV       R3,A
// 1173   uint8 hotIdx = hotItem(id);
        ; Setup parameters for call to function hotItem
        LCALL     ?Subroutine43 & 0xFFFF
// 1174 
// 1175   if (hotIdx < OSAL_NV_MAX_HOT)
??CrossCallReturnLabel_86:
        JNC       ??hotItemUpdate_0
// 1176   {
// 1177     {
// 1178       hotPg[hotIdx] = pg;
        LCALL     ?Subroutine42 & 0xFFFF
// 1179       hotOff[hotIdx] = off;
// 1180     }
// 1181   }
??CrossCallReturnLabel_84:
        MOV       A,?V0
        LCALL     ?Subroutine5 & 0xFFFF
??CrossCallReturnLabel_0:
        MOV       A,R6
        MOVX      @DPTR,A
        INC       DPTR
        MOV       A,R7
        MOVX      @DPTR,A
// 1182 }
??hotItemUpdate_0:
        LJMP      ??Subroutine51_0 & 0xFFFF
          CFI EndBlock cfiBlock245
// 1183 
// 1184 /*********************************************************************
// 1185  * @fn      osal_nv_init
// 1186  *
// 1187  * @brief   Initialize NV service.
// 1188  *
// 1189  * @param   p - Not used.
// 1190  *
// 1191  * @return  none
// 1192  */

        RSEG BANKED_CODE:HUGECODE:NOROOT(0)
// 1193 void osal_nv_init( void *p )
osal_nv_init:
          CFI Block cfiBlock246 Using cfiCommon0
          CFI Function osal_nv_init
        CODE
// 1194 {
        FUNCALL osal_nv_init, initNV
        LOCFRAME ISTACK, 2, STACK
        LOCFRAME PSTACK, 0, STACK
        LOCFRAME XSTACK, 0, STACK
        LOCFRAME IOVERLAY, 0, STATIC
        LOCFRAME DOVERLAY, 0, STATIC
        ARGFRAME ISTACK, 2, STACK
        ARGFRAME PSTACK, 0, STACK
        ARGFRAME XSTACK, 0, STACK
        ARGFRAME IOVERLAY, 0, STATIC
        ARGFRAME DOVERLAY, 0, STATIC
        PUSH      DPL
          CFI DPL0 Frame(CFA_SP, 4)
          CFI CFA_SP SP+-4
        PUSH      DPH
          CFI DPH0 Frame(CFA_SP, 5)
          CFI CFA_SP SP+-5
        ; Saved register size: 2
        ; Auto size: 0
// 1195   (void)p;  // Suppress Lint warning.
// 1196   (void)initNV();  // Always returns TRUE after pages have been erased.
        ; Setup parameters for call to function initNV
        LCALL     `??initNV::?relay`; Banked call to: initNV
// 1197 }
        SJMP      ?Subroutine4
          CFI EndBlock cfiBlock246
// 1198 
// 1199 /*********************************************************************
// 1200  * @fn      osal_nv_item_init
// 1201  *
// 1202  * @brief   If the NV item does not already exist, it is created and
// 1203  *          initialized with the data passed to the function, if any.
// 1204  *          This function must be called before calling osal_nv_read() or
// 1205  *          osal_nv_write().
// 1206  *
// 1207  * @param   id  - Valid NV item Id.
// 1208  * @param   len - Item length.
// 1209  * @param  *buf - Pointer to item initalization data. Set to NULL if none.
// 1210  *
// 1211  * @return  NV_ITEM_UNINIT - Id did not exist and was created successfully.
// 1212  *          SUCCESS       - Id already existed, no action taken.
// 1213  *          NV_OPER_FAILED - Failure to find or create Id.
// 1214  */

        RSEG BANKED_CODE:HUGECODE:NOROOT(0)
// 1215 uint8 osal_nv_item_init( uint16 id, uint16 len, void *buf )
osal_nv_item_init:
          CFI Block cfiBlock247 Using cfiCommon0
          CFI Function osal_nv_item_init
        CODE
// 1216 {
        FUNCALL osal_nv_item_init, HalAdcCheckVdd
        LOCFRAME ISTACK, 0, STACK
        LOCFRAME PSTACK, 0, STACK
        LOCFRAME XSTACK, 12, STACK
        LOCFRAME IOVERLAY, 0, STATIC
        LOCFRAME DOVERLAY, 0, STATIC
        ARGFRAME ISTACK, 0, STACK
        ARGFRAME PSTACK, 0, STACK
        ARGFRAME XSTACK, 12, STACK
        ARGFRAME IOVERLAY, 0, STATIC
        ARGFRAME DOVERLAY, 0, STATIC
        FUNCALL osal_nv_item_init, findItem
        LOCFRAME ISTACK, 0, STACK
        LOCFRAME PSTACK, 0, STACK
        LOCFRAME XSTACK, 12, STACK
        LOCFRAME IOVERLAY, 0, STATIC
        LOCFRAME DOVERLAY, 0, STATIC
        ARGFRAME ISTACK, 0, STACK
        ARGFRAME PSTACK, 0, STACK
        ARGFRAME XSTACK, 12, STACK
        ARGFRAME IOVERLAY, 0, STATIC
        ARGFRAME DOVERLAY, 0, STATIC
        FUNCALL osal_nv_item_init, hotItemUpdate
        LOCFRAME ISTACK, 0, STACK
        LOCFRAME PSTACK, 0, STACK
        LOCFRAME XSTACK, 12, STACK
        LOCFRAME IOVERLAY, 0, STATIC
        LOCFRAME DOVERLAY, 0, STATIC
        ARGFRAME ISTACK, 0, STACK
        ARGFRAME PSTACK, 0, STACK
        ARGFRAME XSTACK, 12, STACK
        ARGFRAME IOVERLAY, 0, STATIC
        ARGFRAME DOVERLAY, 0, STATIC
        FUNCALL osal_nv_item_init, initItem
        LOCFRAME ISTACK, 0, STACK
        LOCFRAME PSTACK, 0, STACK
        LOCFRAME XSTACK, 14, STACK
        LOCFRAME IOVERLAY, 0, STATIC
        LOCFRAME DOVERLAY, 0, STATIC
        ARGFRAME ISTACK, 0, STACK
        ARGFRAME PSTACK, 0, STACK
        ARGFRAME XSTACK, 14, STACK
        ARGFRAME IOVERLAY, 0, STATIC
        ARGFRAME DOVERLAY, 0, STATIC
        REQUIRE ?V0
        REQUIRE ?V1
        REQUIRE ?V2
        REQUIRE ?V3
        MOV       A,#-0xc
        LCALL     ?BANKED_ENTER_XDATA
          CFI DPH0 load(1, XDATA, add(CFA_XSP16, literal(-1)))
          CFI DPL0 load(1, XDATA, add(CFA_XSP16, literal(-2)))
          CFI ?BRET_EXT load(1, XDATA, add(CFA_XSP16, literal(-3)))
          CFI ?RET_HIGH load(1, XDATA, add(CFA_XSP16, literal(-4)))
          CFI ?RET_LOW load(1, XDATA, add(CFA_XSP16, literal(-5)))
          CFI R7 load(1, XDATA, add(CFA_XSP16, literal(-6)))
          CFI V3 load(1, XDATA, add(CFA_XSP16, literal(-7)))
          CFI V2 load(1, XDATA, add(CFA_XSP16, literal(-8)))
          CFI V1 load(1, XDATA, add(CFA_XSP16, literal(-9)))
          CFI V0 load(1, XDATA, add(CFA_XSP16, literal(-10)))
          CFI VB load(1, XDATA, add(CFA_XSP16, literal(-11)))
          CFI R6 load(1, XDATA, add(CFA_XSP16, literal(-12)))
          CFI CFA_SP SP+0
          CFI CFA_XSP16 add(XSP16, 12)
        ; Saved register size: 12
        ; Auto size: 0
        MOV       A,R2
        MOV       R6,A
        MOV       A,R3
        MOV       R7,A
        MOV       ?V0,R4
        MOV       ?V1,R5
// 1217   uint16 offset;
// 1218 
// 1219   if ( !OSAL_NV_CHECK_BUS_VOLTAGE )
        ; Setup parameters for call to function HalAdcCheckVdd
        MOV       R1,#0x4e
        LCALL     `??HalAdcCheckVdd::?relay`; Banked call to: HalAdcCheckVdd
        MOV       A,R1
        JZ        ??osal_nv_item_init_0
// 1220   {
// 1221     return NV_OPER_FAILED;
// 1222   }
// 1223   else if ((offset = findItem(id)) != OSAL_NV_ITEM_NULL)
        ; Setup parameters for call to function findItem
        MOV       A,R6
        MOV       R2,A
        MOV       A,R7
        MOV       R3,A
        LCALL     `??findItem::?relay`; Banked call to: findItem
        MOV       A,R2
        ORL       A,R3
        JZ        ??osal_nv_item_init_1
// 1224   {
// 1225     // Re-populate the NV hot item data if the corresponding items are already established.
// 1226     hotItemUpdate(findPg, offset, id);
        ; Setup parameters for call to function hotItemUpdate
        MOV       A,R6
        MOV       R4,A
        MOV       A,R7
        MOV       R5,A
        MOV       DPTR,#findPg
        MOVX      A,@DPTR
        MOV       R1,A
        LCALL     `??hotItemUpdate::?relay`; Banked call to: hotItemUpdate
// 1227 
// 1228     return SUCCESS;
        MOV       R1,#0x0
        SJMP      ??osal_nv_item_init_2
// 1229   }
// 1230   else if ( initItem( TRUE, id, len, buf ) != OSAL_NV_PAGE_NULL )
??osal_nv_item_init_1:
        ; Setup parameters for call to function initItem
        MOV       A,#0xc
        LCALL     ?XSTACK_DISP0_8
        LCALL     ?PUSH_XSTACK8_X_TWO
          CFI CFA_XSP16 add(XSP16, 14)
        MOV       R4,?V0
        MOV       R5,?V1
        MOV       A,R6
        MOV       R2,A
        MOV       A,R7
        MOV       R3,A
        MOV       R1,#0x1
        LCALL     `??initItem::?relay`; Banked call to: initItem
        MOV       A,#0x2
        LCALL     ?DEALLOC_XSTACK8
          CFI CFA_XSP16 add(XSP16, 12)
        MOV       A,R1
        JZ        ??osal_nv_item_init_0
// 1231   {
// 1232     return NV_ITEM_UNINIT;
        MOV       R1,#0x9
        SJMP      ??osal_nv_item_init_2
// 1233   }
// 1234   else
// 1235   {
// 1236     return NV_OPER_FAILED;
??osal_nv_item_init_0:
        MOV       R1,#0xa
// 1237   }
??osal_nv_item_init_2:
        LJMP      ??Subroutine50_0 & 0xFFFF
// 1238 }
          CFI EndBlock cfiBlock247
// 1239 
// 1240 /*********************************************************************
// 1241  * @fn      osal_nv_item_len
// 1242  *
// 1243  * @brief   Get the data length of the item stored in NV memory.
// 1244  *
// 1245  * @param   id  - Valid NV item Id.
// 1246  *
// 1247  * @return  Item length, if found; zero otherwise.
// 1248  */

        RSEG BANKED_CODE:HUGECODE:NOROOT(0)
// 1249 uint16 osal_nv_item_len( uint16 id )
osal_nv_item_len:
          CFI Block cfiBlock248 Using cfiCommon0
          CFI Function osal_nv_item_len
        CODE
// 1250 {
        FUNCALL osal_nv_item_len, hotItem
        LOCFRAME ISTACK, 0, STACK
        LOCFRAME PSTACK, 0, STACK
        LOCFRAME XSTACK, 18, STACK
        LOCFRAME IOVERLAY, 0, STATIC
        LOCFRAME DOVERLAY, 0, STATIC
        ARGFRAME ISTACK, 0, STACK
        ARGFRAME PSTACK, 0, STACK
        ARGFRAME XSTACK, 18, STACK
        ARGFRAME IOVERLAY, 0, STATIC
        ARGFRAME DOVERLAY, 0, STATIC
        FUNCALL osal_nv_item_len, HalFlashRead
        LOCFRAME ISTACK, 0, STACK
        LOCFRAME PSTACK, 0, STACK
        LOCFRAME XSTACK, 20, STACK
        LOCFRAME IOVERLAY, 0, STATIC
        LOCFRAME DOVERLAY, 0, STATIC
        ARGFRAME ISTACK, 0, STACK
        ARGFRAME PSTACK, 0, STACK
        ARGFRAME XSTACK, 20, STACK
        ARGFRAME IOVERLAY, 0, STATIC
        ARGFRAME DOVERLAY, 0, STATIC
        FUNCALL osal_nv_item_len, findItem
        LOCFRAME ISTACK, 0, STACK
        LOCFRAME PSTACK, 0, STACK
        LOCFRAME XSTACK, 18, STACK
        LOCFRAME IOVERLAY, 0, STATIC
        LOCFRAME DOVERLAY, 0, STATIC
        ARGFRAME ISTACK, 0, STACK
        ARGFRAME PSTACK, 0, STACK
        ARGFRAME XSTACK, 18, STACK
        ARGFRAME IOVERLAY, 0, STATIC
        ARGFRAME DOVERLAY, 0, STATIC
        REQUIRE ?V0
        REQUIRE ?V1
        MOV       A,#-0xa
        LCALL     ?BANKED_ENTER_XDATA
          CFI DPH0 load(1, XDATA, add(CFA_XSP16, literal(-1)))
          CFI DPL0 load(1, XDATA, add(CFA_XSP16, literal(-2)))
          CFI ?BRET_EXT load(1, XDATA, add(CFA_XSP16, literal(-3)))
          CFI ?RET_HIGH load(1, XDATA, add(CFA_XSP16, literal(-4)))
          CFI ?RET_LOW load(1, XDATA, add(CFA_XSP16, literal(-5)))
          CFI R7 load(1, XDATA, add(CFA_XSP16, literal(-6)))
          CFI V1 load(1, XDATA, add(CFA_XSP16, literal(-7)))
          CFI V0 load(1, XDATA, add(CFA_XSP16, literal(-8)))
          CFI VB load(1, XDATA, add(CFA_XSP16, literal(-9)))
          CFI R6 load(1, XDATA, add(CFA_XSP16, literal(-10)))
          CFI CFA_SP SP+0
          CFI CFA_XSP16 add(XSP16, 10)
        ; Saved register size: 10
        ; Auto size: 8
        MOV       A,#-0x8
        LCALL     ?ALLOC_XSTACK8
          CFI CFA_XSP16 add(XSP16, 18)
        MOV       A,R2
        MOV       R6,A
        MOV       A,R3
        MOV       R7,A
// 1251   osalNvHdr_t hdr;
// 1252   uint16 offset;
// 1253   uint8 hotIdx;
// 1254 
// 1255   if ((hotIdx = hotItem(id)) < OSAL_NV_MAX_HOT)
        ; Setup parameters for call to function hotItem
        LCALL     ?Subroutine43 & 0xFFFF
??CrossCallReturnLabel_87:
        JNC       ??osal_nv_item_len_0
// 1256   {
// 1257     findPg = hotPg[hotIdx];
        LCALL     ?Subroutine42 & 0xFFFF
// 1258     offset = hotOff[hotIdx];
// 1259   }
??CrossCallReturnLabel_85:
        MOVX      A,@DPTR
        MOV       DPTR,#findPg
        LCALL     ?Subroutine5 & 0xFFFF
??CrossCallReturnLabel_1:
        LCALL     ??Subroutine62_0 & 0xFFFF
// 1260   else if ((offset = findItem(id)) == OSAL_NV_ITEM_NULL)
// 1261   {
// 1262     return 0;
// 1263   }
// 1264 
// 1265   HalFlashRead(findPg, (offset - OSAL_NV_HDR_SIZE), (uint8 *)(&hdr), OSAL_NV_HDR_SIZE);
??CrossCallReturnLabel_147:
        ; Setup parameters for call to function HalFlashRead
        MOV       ?V0,#0x8
        MOV       ?V1,#0x0
        MOV       R0,#?V0
        LCALL     ?PUSH_XSTACK_I_TWO
          CFI CFA_XSP16 add(XSP16, 20)
        MOV       A,#0x2
        LCALL     ?XSTACK_DISP102_8
        MOV       A,R2
        ADD       A,#-0x8
        MOV       R2,A
        MOV       A,R3
        ADDC      A,#-0x1
        MOV       R3,A
        MOV       DPTR,#findPg
        LCALL     ?Subroutine10 & 0xFFFF
??CrossCallReturnLabel_118:
        LCALL     ?DEALLOC_XSTACK8
          CFI CFA_XSP16 add(XSP16, 18)
// 1266   return hdr.len;
        MOV       A,#0x2
        LCALL     ?XSTACK_DISP0_8
        LCALL     ??Subroutine62_0 & 0xFFFF
??CrossCallReturnLabel_148:
        MOV       A,#0x8
        LCALL     ?DEALLOC_XSTACK8
          CFI CFA_XSP16 add(XSP16, 10)
        MOV       R7,#0x2
        LJMP      ?BANKED_LEAVE_XDATA
          CFI CFA_XSP16 add(XSP16, 18)
??osal_nv_item_len_0:
        ; Setup parameters for call to function findItem
        MOV       A,R6
        MOV       R2,A
        MOV       A,R7
        MOV       R3,A
        LCALL     `??findItem::?relay`; Banked call to: findItem
        MOV       ?V1,R3
        MOV       R1,?V1
        MOV       A,R2
        ORL       A,R1
        JNZ       ??CrossCallReturnLabel_147
        MOV       R2,#0x0
        MOV       R3,#0x0
        SJMP      ??CrossCallReturnLabel_148
// 1267 }
          CFI EndBlock cfiBlock248

        RSEG BANKED_CODE:HUGECODE:NOROOT(0)
?Subroutine43:
          CFI Block cfiCond249 Using cfiCommon0
          CFI Function hotItemUpdate
          CFI Conditional ??CrossCallReturnLabel_86
          CFI R6 load(1, XDATA, add(CFA_XSP16, literal(-9)))
          CFI VB load(1, XDATA, add(CFA_XSP16, literal(-8)))
          CFI V0 load(1, XDATA, add(CFA_XSP16, literal(-7)))
          CFI R7 load(1, XDATA, add(CFA_XSP16, literal(-6)))
          CFI ?RET_LOW load(1, XDATA, add(CFA_XSP16, literal(-5)))
          CFI ?RET_HIGH load(1, XDATA, add(CFA_XSP16, literal(-4)))
          CFI ?BRET_EXT load(1, XDATA, add(CFA_XSP16, literal(-3)))
          CFI DPL0 load(1, XDATA, add(CFA_XSP16, literal(-2)))
          CFI DPH0 load(1, XDATA, add(CFA_XSP16, literal(-1)))
          CFI CFA_SP SP+-2
          CFI CFA_XSP16 add(XSP16, 9)
          CFI Block cfiCond250 Using cfiCommon0
          CFI (cfiCond250) Function osal_nv_item_len
          CFI (cfiCond250) Conditional ??CrossCallReturnLabel_87
          CFI (cfiCond250) R6 load(1, XDATA, add(CFA_XSP16, literal(-10)))
          CFI (cfiCond250) VB load(1, XDATA, add(CFA_XSP16, literal(-9)))
          CFI (cfiCond250) V0 load(1, XDATA, add(CFA_XSP16, literal(-8)))
          CFI (cfiCond250) V1 load(1, XDATA, add(CFA_XSP16, literal(-7)))
          CFI (cfiCond250) R7 load(1, XDATA, add(CFA_XSP16, literal(-6)))
          CFI (cfiCond250) ?RET_LOW load(1, XDATA, add(CFA_XSP16, literal(-5)))
          CFI (cfiCond250) ?RET_HIGH load(1, XDATA, add(CFA_XSP16, literal(-4)))
          CFI (cfiCond250) ?BRET_EXT load(1, XDATA, add(CFA_XSP16, literal(-3)))
          CFI (cfiCond250) DPL0 load(1, XDATA, add(CFA_XSP16, literal(-2)))
          CFI (cfiCond250) DPH0 load(1, XDATA, add(CFA_XSP16, literal(-1)))
          CFI (cfiCond250) CFA_SP SP+-2
          CFI (cfiCond250) CFA_XSP16 add(XSP16, 18)
          CFI Block cfiPicker251 Using cfiCommon1
          CFI (cfiPicker251) NoFunction
          CFI (cfiPicker251) Picker
        LCALL     `??hotItem::?relay`; Banked call to: hotItem
        MOV       A,R1
        MOV       R0,A
        CLR       C
        SUBB      A,#0x3
        RET
          CFI EndBlock cfiCond249
          CFI EndBlock cfiCond250
          CFI EndBlock cfiPicker251

        RSEG BANKED_CODE:HUGECODE:NOROOT(0)
?Subroutine42:
          CFI Block cfiCond252 Using cfiCommon0
          CFI Function hotItemUpdate
          CFI Conditional ??CrossCallReturnLabel_84
          CFI R6 load(1, XDATA, add(CFA_XSP16, literal(-9)))
          CFI VB load(1, XDATA, add(CFA_XSP16, literal(-8)))
          CFI V0 load(1, XDATA, add(CFA_XSP16, literal(-7)))
          CFI R7 load(1, XDATA, add(CFA_XSP16, literal(-6)))
          CFI ?RET_LOW load(1, XDATA, add(CFA_XSP16, literal(-5)))
          CFI ?RET_HIGH load(1, XDATA, add(CFA_XSP16, literal(-4)))
          CFI ?BRET_EXT load(1, XDATA, add(CFA_XSP16, literal(-3)))
          CFI DPL0 load(1, XDATA, add(CFA_XSP16, literal(-2)))
          CFI DPH0 load(1, XDATA, add(CFA_XSP16, literal(-1)))
          CFI CFA_SP SP+-2
          CFI CFA_XSP16 add(XSP16, 9)
          CFI Block cfiCond253 Using cfiCommon0
          CFI (cfiCond253) Function osal_nv_item_len
          CFI (cfiCond253) Conditional ??CrossCallReturnLabel_85
          CFI (cfiCond253) R6 load(1, XDATA, add(CFA_XSP16, literal(-10)))
          CFI (cfiCond253) VB load(1, XDATA, add(CFA_XSP16, literal(-9)))
          CFI (cfiCond253) V0 load(1, XDATA, add(CFA_XSP16, literal(-8)))
          CFI (cfiCond253) V1 load(1, XDATA, add(CFA_XSP16, literal(-7)))
          CFI (cfiCond253) R7 load(1, XDATA, add(CFA_XSP16, literal(-6)))
          CFI (cfiCond253) ?RET_LOW load(1, XDATA, add(CFA_XSP16, literal(-5)))
          CFI (cfiCond253) ?RET_HIGH load(1, XDATA, add(CFA_XSP16, literal(-4)))
          CFI (cfiCond253) ?BRET_EXT load(1, XDATA, add(CFA_XSP16, literal(-3)))
          CFI (cfiCond253) DPL0 load(1, XDATA, add(CFA_XSP16, literal(-2)))
          CFI (cfiCond253) DPH0 load(1, XDATA, add(CFA_XSP16, literal(-1)))
          CFI (cfiCond253) CFA_SP SP+-2
          CFI (cfiCond253) CFA_XSP16 add(XSP16, 18)
          CFI Block cfiPicker254 Using cfiCommon1
          CFI (cfiPicker254) NoFunction
          CFI (cfiPicker254) Picker
        MOV       A,#hotPg & 0xff
        ADD       A,R1
        MOV       DPL,A
        CLR       A
        ADDC      A,#(hotPg >> 8) & 0xff
        MOV       DPH,A
        RET
          CFI EndBlock cfiCond252
          CFI EndBlock cfiCond253
          CFI EndBlock cfiPicker254

        RSEG BANKED_CODE:HUGECODE:NOROOT(0)
?Subroutine11:
          CFI Block cfiCond255 Using cfiCommon0
          CFI Function initNV
          CFI Conditional ??CrossCallReturnLabel_155
          CFI R6 load(1, XDATA, add(CFA_XSP16, literal(-12)))
          CFI VB load(1, XDATA, add(CFA_XSP16, literal(-11)))
          CFI V0 load(1, XDATA, add(CFA_XSP16, literal(-10)))
          CFI V1 load(1, XDATA, add(CFA_XSP16, literal(-9)))
          CFI V2 load(1, XDATA, add(CFA_XSP16, literal(-8)))
          CFI V3 load(1, XDATA, add(CFA_XSP16, literal(-7)))
          CFI R7 load(1, XDATA, add(CFA_XSP16, literal(-6)))
          CFI ?RET_LOW load(1, XDATA, add(CFA_XSP16, literal(-5)))
          CFI ?RET_HIGH load(1, XDATA, add(CFA_XSP16, literal(-4)))
          CFI ?BRET_EXT load(1, XDATA, add(CFA_XSP16, literal(-3)))
          CFI DPL0 load(1, XDATA, add(CFA_XSP16, literal(-2)))
          CFI DPH0 load(1, XDATA, add(CFA_XSP16, literal(-1)))
          CFI CFA_SP SP+-2
          CFI CFA_XSP16 add(XSP16, 20)
          CFI Block cfiCond256 Using cfiCommon0
          CFI (cfiCond256) Function initItem
          CFI (cfiCond256) Conditional ??CrossCallReturnLabel_156
          CFI (cfiCond256) R6 load(1, XDATA, add(CFA_XSP16, literal(-16)))
          CFI (cfiCond256) VB load(1, XDATA, add(CFA_XSP16, literal(-15)))
          CFI (cfiCond256) V0 load(1, XDATA, add(CFA_XSP16, literal(-14)))
          CFI (cfiCond256) V1 load(1, XDATA, add(CFA_XSP16, literal(-13)))
          CFI (cfiCond256) V2 load(1, XDATA, add(CFA_XSP16, literal(-12)))
          CFI (cfiCond256) V3 load(1, XDATA, add(CFA_XSP16, literal(-11)))
          CFI (cfiCond256) V4 load(1, XDATA, add(CFA_XSP16, literal(-10)))
          CFI (cfiCond256) V5 load(1, XDATA, add(CFA_XSP16, literal(-9)))
          CFI (cfiCond256) V6 load(1, XDATA, add(CFA_XSP16, literal(-8)))
          CFI (cfiCond256) V7 load(1, XDATA, add(CFA_XSP16, literal(-7)))
          CFI (cfiCond256) R7 load(1, XDATA, add(CFA_XSP16, literal(-6)))
          CFI (cfiCond256) ?RET_LOW load(1, XDATA, add(CFA_XSP16, literal(-5)))
          CFI (cfiCond256) ?RET_HIGH load(1, XDATA, add(CFA_XSP16, literal(-4)))
          CFI (cfiCond256) ?BRET_EXT load(1, XDATA, add(CFA_XSP16, literal(-3)))
          CFI (cfiCond256) DPL0 load(1, XDATA, add(CFA_XSP16, literal(-2)))
          CFI (cfiCond256) DPH0 load(1, XDATA, add(CFA_XSP16, literal(-1)))
          CFI (cfiCond256) CFA_SP SP+-2
          CFI (cfiCond256) CFA_XSP16 add(XSP16, 26)
          CFI Block cfiPicker257 Using cfiCommon1
          CFI (cfiPicker257) NoFunction
          CFI (cfiPicker257) Picker
        ADDC      A,R1
        MOV       DPH,A
          CFI EndBlock cfiCond255
          CFI EndBlock cfiCond256
          CFI EndBlock cfiPicker257
        REQUIRE ??Subroutine62_0
        ; // Fall through to label ??Subroutine62_0

        RSEG BANKED_CODE:HUGECODE:NOROOT(0)
??Subroutine62_0:
          CFI Block cfiCond258 Using cfiCommon0
          CFI Function initPage
          CFI Conditional ??CrossCallReturnLabel_143
          CFI R6 load(1, XDATA, add(CFA_XSP16, literal(-16)))
          CFI VB load(1, XDATA, add(CFA_XSP16, literal(-15)))
          CFI V0 load(1, XDATA, add(CFA_XSP16, literal(-14)))
          CFI V1 load(1, XDATA, add(CFA_XSP16, literal(-13)))
          CFI V2 load(1, XDATA, add(CFA_XSP16, literal(-12)))
          CFI V3 load(1, XDATA, add(CFA_XSP16, literal(-11)))
          CFI V4 load(1, XDATA, add(CFA_XSP16, literal(-10)))
          CFI V5 load(1, XDATA, add(CFA_XSP16, literal(-9)))
          CFI V6 load(1, XDATA, add(CFA_XSP16, literal(-8)))
          CFI V7 load(1, XDATA, add(CFA_XSP16, literal(-7)))
          CFI R7 load(1, XDATA, add(CFA_XSP16, literal(-6)))
          CFI ?RET_LOW load(1, XDATA, add(CFA_XSP16, literal(-5)))
          CFI ?RET_HIGH load(1, XDATA, add(CFA_XSP16, literal(-4)))
          CFI ?BRET_EXT load(1, XDATA, add(CFA_XSP16, literal(-3)))
          CFI DPL0 load(1, XDATA, add(CFA_XSP16, literal(-2)))
          CFI DPH0 load(1, XDATA, add(CFA_XSP16, literal(-1)))
          CFI CFA_SP SP+-2
          CFI CFA_XSP16 add(XSP16, 26)
          CFI Block cfiCond259 Using cfiCommon0
          CFI (cfiCond259) Function compactPage
          CFI (cfiCond259) Conditional ??CrossCallReturnLabel_144
          CFI (cfiCond259) R6 load(1, XDATA, add(CFA_XSP16, literal(-15)))
          CFI (cfiCond259) VB load(1, XDATA, add(CFA_XSP16, literal(-14)))
          CFI (cfiCond259) V0 load(1, XDATA, add(CFA_XSP16, literal(-13)))
          CFI (cfiCond259) V1 load(1, XDATA, add(CFA_XSP16, literal(-12)))
          CFI (cfiCond259) V2 load(1, XDATA, add(CFA_XSP16, literal(-11)))
          CFI (cfiCond259) V3 load(1, XDATA, add(CFA_XSP16, literal(-10)))
          CFI (cfiCond259) V4 load(1, XDATA, add(CFA_XSP16, literal(-9)))
          CFI (cfiCond259) V5 load(1, XDATA, add(CFA_XSP16, literal(-8)))
          CFI (cfiCond259) V6 load(1, XDATA, add(CFA_XSP16, literal(-7)))
          CFI (cfiCond259) R7 load(1, XDATA, add(CFA_XSP16, literal(-6)))
          CFI (cfiCond259) ?RET_LOW load(1, XDATA, add(CFA_XSP16, literal(-5)))
          CFI (cfiCond259) ?RET_HIGH load(1, XDATA, add(CFA_XSP16, literal(-4)))
          CFI (cfiCond259) ?BRET_EXT load(1, XDATA, add(CFA_XSP16, literal(-3)))
          CFI (cfiCond259) DPL0 load(1, XDATA, add(CFA_XSP16, literal(-2)))
          CFI (cfiCond259) DPH0 load(1, XDATA, add(CFA_XSP16, literal(-1)))
          CFI (cfiCond259) CFA_SP SP+-2
          CFI (cfiCond259) CFA_XSP16 add(XSP16, 29)
          CFI Block cfiCond260 Using cfiCommon0
          CFI (cfiCond260) Function setChk
          CFI (cfiCond260) Conditional ??CrossCallReturnLabel_145
          CFI (cfiCond260) R6 load(1, XDATA, add(CFA_XSP16, literal(-12)))
          CFI (cfiCond260) VB load(1, XDATA, add(CFA_XSP16, literal(-11)))
          CFI (cfiCond260) V0 load(1, XDATA, add(CFA_XSP16, literal(-10)))
          CFI (cfiCond260) V1 load(1, XDATA, add(CFA_XSP16, literal(-9)))
          CFI (cfiCond260) V2 load(1, XDATA, add(CFA_XSP16, literal(-8)))
          CFI (cfiCond260) V3 load(1, XDATA, add(CFA_XSP16, literal(-7)))
          CFI (cfiCond260) R7 load(1, XDATA, add(CFA_XSP16, literal(-6)))
          CFI (cfiCond260) ?RET_LOW load(1, XDATA, add(CFA_XSP16, literal(-5)))
          CFI (cfiCond260) ?RET_HIGH load(1, XDATA, add(CFA_XSP16, literal(-4)))
          CFI (cfiCond260) ?BRET_EXT load(1, XDATA, add(CFA_XSP16, literal(-3)))
          CFI (cfiCond260) DPL0 load(1, XDATA, add(CFA_XSP16, literal(-2)))
          CFI (cfiCond260) DPH0 load(1, XDATA, add(CFA_XSP16, literal(-1)))
          CFI (cfiCond260) CFA_SP SP+-2
          CFI (cfiCond260) CFA_XSP16 add(XSP16, 14)
          CFI Block cfiCond261 Using cfiCommon0
          CFI (cfiCond261) Function writeItem
          CFI (cfiCond261) Conditional ??CrossCallReturnLabel_146
          CFI (cfiCond261) R6 load(1, XDATA, add(CFA_XSP16, literal(-16)))
          CFI (cfiCond261) VB load(1, XDATA, add(CFA_XSP16, literal(-15)))
          CFI (cfiCond261) V0 load(1, XDATA, add(CFA_XSP16, literal(-14)))
          CFI (cfiCond261) V1 load(1, XDATA, add(CFA_XSP16, literal(-13)))
          CFI (cfiCond261) V2 load(1, XDATA, add(CFA_XSP16, literal(-12)))
          CFI (cfiCond261) V3 load(1, XDATA, add(CFA_XSP16, literal(-11)))
          CFI (cfiCond261) V4 load(1, XDATA, add(CFA_XSP16, literal(-10)))
          CFI (cfiCond261) V5 load(1, XDATA, add(CFA_XSP16, literal(-9)))
          CFI (cfiCond261) V6 load(1, XDATA, add(CFA_XSP16, literal(-8)))
          CFI (cfiCond261) V7 load(1, XDATA, add(CFA_XSP16, literal(-7)))
          CFI (cfiCond261) R7 load(1, XDATA, add(CFA_XSP16, literal(-6)))
          CFI (cfiCond261) ?RET_LOW load(1, XDATA, add(CFA_XSP16, literal(-5)))
          CFI (cfiCond261) ?RET_HIGH load(1, XDATA, add(CFA_XSP16, literal(-4)))
          CFI (cfiCond261) ?BRET_EXT load(1, XDATA, add(CFA_XSP16, literal(-3)))
          CFI (cfiCond261) DPL0 load(1, XDATA, add(CFA_XSP16, literal(-2)))
          CFI (cfiCond261) DPH0 load(1, XDATA, add(CFA_XSP16, literal(-1)))
          CFI (cfiCond261) CFA_SP SP+-2
          CFI (cfiCond261) CFA_XSP16 add(XSP16, 28)
          CFI Block cfiCond262 Using cfiCommon0
          CFI (cfiCond262) Function osal_nv_item_len
          CFI (cfiCond262) Conditional ??CrossCallReturnLabel_147
          CFI (cfiCond262) R6 load(1, XDATA, add(CFA_XSP16, literal(-10)))
          CFI (cfiCond262) VB load(1, XDATA, add(CFA_XSP16, literal(-9)))
          CFI (cfiCond262) V0 load(1, XDATA, add(CFA_XSP16, literal(-8)))
          CFI (cfiCond262) V1 load(1, XDATA, add(CFA_XSP16, literal(-7)))
          CFI (cfiCond262) R7 load(1, XDATA, add(CFA_XSP16, literal(-6)))
          CFI (cfiCond262) ?RET_LOW load(1, XDATA, add(CFA_XSP16, literal(-5)))
          CFI (cfiCond262) ?RET_HIGH load(1, XDATA, add(CFA_XSP16, literal(-4)))
          CFI (cfiCond262) ?BRET_EXT load(1, XDATA, add(CFA_XSP16, literal(-3)))
          CFI (cfiCond262) DPL0 load(1, XDATA, add(CFA_XSP16, literal(-2)))
          CFI (cfiCond262) DPH0 load(1, XDATA, add(CFA_XSP16, literal(-1)))
          CFI (cfiCond262) CFA_SP SP+-2
          CFI (cfiCond262) CFA_XSP16 add(XSP16, 18)
          CFI Block cfiCond263 Using cfiCommon0
          CFI (cfiCond263) Function osal_nv_item_len
          CFI (cfiCond263) Conditional ??CrossCallReturnLabel_148
          CFI (cfiCond263) R6 load(1, XDATA, add(CFA_XSP16, literal(-10)))
          CFI (cfiCond263) VB load(1, XDATA, add(CFA_XSP16, literal(-9)))
          CFI (cfiCond263) V0 load(1, XDATA, add(CFA_XSP16, literal(-8)))
          CFI (cfiCond263) V1 load(1, XDATA, add(CFA_XSP16, literal(-7)))
          CFI (cfiCond263) R7 load(1, XDATA, add(CFA_XSP16, literal(-6)))
          CFI (cfiCond263) ?RET_LOW load(1, XDATA, add(CFA_XSP16, literal(-5)))
          CFI (cfiCond263) ?RET_HIGH load(1, XDATA, add(CFA_XSP16, literal(-4)))
          CFI (cfiCond263) ?BRET_EXT load(1, XDATA, add(CFA_XSP16, literal(-3)))
          CFI (cfiCond263) DPL0 load(1, XDATA, add(CFA_XSP16, literal(-2)))
          CFI (cfiCond263) DPH0 load(1, XDATA, add(CFA_XSP16, literal(-1)))
          CFI (cfiCond263) CFA_SP SP+-2
          CFI (cfiCond263) CFA_XSP16 add(XSP16, 18)
          CFI Block cfiCond264 Using cfiCommon0
          CFI (cfiCond264) Function osal_nv_write
          CFI (cfiCond264) Conditional ??CrossCallReturnLabel_149
          CFI (cfiCond264) R6 load(1, XDATA, add(CFA_XSP16, literal(-16)))
          CFI (cfiCond264) VB load(1, XDATA, add(CFA_XSP16, literal(-15)))
          CFI (cfiCond264) V0 load(1, XDATA, add(CFA_XSP16, literal(-14)))
          CFI (cfiCond264) V1 load(1, XDATA, add(CFA_XSP16, literal(-13)))
          CFI (cfiCond264) V2 load(1, XDATA, add(CFA_XSP16, literal(-12)))
          CFI (cfiCond264) V3 load(1, XDATA, add(CFA_XSP16, literal(-11)))
          CFI (cfiCond264) V4 load(1, XDATA, add(CFA_XSP16, literal(-10)))
          CFI (cfiCond264) V5 load(1, XDATA, add(CFA_XSP16, literal(-9)))
          CFI (cfiCond264) V6 load(1, XDATA, add(CFA_XSP16, literal(-8)))
          CFI (cfiCond264) V7 load(1, XDATA, add(CFA_XSP16, literal(-7)))
          CFI (cfiCond264) R7 load(1, XDATA, add(CFA_XSP16, literal(-6)))
          CFI (cfiCond264) ?RET_LOW load(1, XDATA, add(CFA_XSP16, literal(-5)))
          CFI (cfiCond264) ?RET_HIGH load(1, XDATA, add(CFA_XSP16, literal(-4)))
          CFI (cfiCond264) ?BRET_EXT load(1, XDATA, add(CFA_XSP16, literal(-3)))
          CFI (cfiCond264) DPL0 load(1, XDATA, add(CFA_XSP16, literal(-2)))
          CFI (cfiCond264) DPH0 load(1, XDATA, add(CFA_XSP16, literal(-1)))
          CFI (cfiCond264) CFA_SP SP+-2
          CFI (cfiCond264) CFA_XSP16 add(XSP16, 35)
          CFI Block cfiCond265 Using cfiCommon0
          CFI (cfiCond265) Function osal_nv_write
          CFI (cfiCond265) Conditional ??CrossCallReturnLabel_150
          CFI (cfiCond265) R6 load(1, XDATA, add(CFA_XSP16, literal(-16)))
          CFI (cfiCond265) VB load(1, XDATA, add(CFA_XSP16, literal(-15)))
          CFI (cfiCond265) V0 load(1, XDATA, add(CFA_XSP16, literal(-14)))
          CFI (cfiCond265) V1 load(1, XDATA, add(CFA_XSP16, literal(-13)))
          CFI (cfiCond265) V2 load(1, XDATA, add(CFA_XSP16, literal(-12)))
          CFI (cfiCond265) V3 load(1, XDATA, add(CFA_XSP16, literal(-11)))
          CFI (cfiCond265) V4 load(1, XDATA, add(CFA_XSP16, literal(-10)))
          CFI (cfiCond265) V5 load(1, XDATA, add(CFA_XSP16, literal(-9)))
          CFI (cfiCond265) V6 load(1, XDATA, add(CFA_XSP16, literal(-8)))
          CFI (cfiCond265) V7 load(1, XDATA, add(CFA_XSP16, literal(-7)))
          CFI (cfiCond265) R7 load(1, XDATA, add(CFA_XSP16, literal(-6)))
          CFI (cfiCond265) ?RET_LOW load(1, XDATA, add(CFA_XSP16, literal(-5)))
          CFI (cfiCond265) ?RET_HIGH load(1, XDATA, add(CFA_XSP16, literal(-4)))
          CFI (cfiCond265) ?BRET_EXT load(1, XDATA, add(CFA_XSP16, literal(-3)))
          CFI (cfiCond265) DPL0 load(1, XDATA, add(CFA_XSP16, literal(-2)))
          CFI (cfiCond265) DPH0 load(1, XDATA, add(CFA_XSP16, literal(-1)))
          CFI (cfiCond265) CFA_SP SP+-2
          CFI (cfiCond265) CFA_XSP16 add(XSP16, 37)
          CFI Block cfiCond266 Using cfiCommon0
          CFI (cfiCond266) Function osal_nv_write
          CFI (cfiCond266) Conditional ??CrossCallReturnLabel_151
          CFI (cfiCond266) R6 load(1, XDATA, add(CFA_XSP16, literal(-16)))
          CFI (cfiCond266) VB load(1, XDATA, add(CFA_XSP16, literal(-15)))
          CFI (cfiCond266) V0 load(1, XDATA, add(CFA_XSP16, literal(-14)))
          CFI (cfiCond266) V1 load(1, XDATA, add(CFA_XSP16, literal(-13)))
          CFI (cfiCond266) V2 load(1, XDATA, add(CFA_XSP16, literal(-12)))
          CFI (cfiCond266) V3 load(1, XDATA, add(CFA_XSP16, literal(-11)))
          CFI (cfiCond266) V4 load(1, XDATA, add(CFA_XSP16, literal(-10)))
          CFI (cfiCond266) V5 load(1, XDATA, add(CFA_XSP16, literal(-9)))
          CFI (cfiCond266) V6 load(1, XDATA, add(CFA_XSP16, literal(-8)))
          CFI (cfiCond266) V7 load(1, XDATA, add(CFA_XSP16, literal(-7)))
          CFI (cfiCond266) R7 load(1, XDATA, add(CFA_XSP16, literal(-6)))
          CFI (cfiCond266) ?RET_LOW load(1, XDATA, add(CFA_XSP16, literal(-5)))
          CFI (cfiCond266) ?RET_HIGH load(1, XDATA, add(CFA_XSP16, literal(-4)))
          CFI (cfiCond266) ?BRET_EXT load(1, XDATA, add(CFA_XSP16, literal(-3)))
          CFI (cfiCond266) DPL0 load(1, XDATA, add(CFA_XSP16, literal(-2)))
          CFI (cfiCond266) DPH0 load(1, XDATA, add(CFA_XSP16, literal(-1)))
          CFI (cfiCond266) CFA_SP SP+-2
          CFI (cfiCond266) CFA_XSP16 add(XSP16, 37)
          CFI Block cfiCond267 Using cfiCommon0
          CFI (cfiCond267) Function osal_nv_write
          CFI (cfiCond267) Conditional ??CrossCallReturnLabel_152
          CFI (cfiCond267) R6 load(1, XDATA, add(CFA_XSP16, literal(-16)))
          CFI (cfiCond267) VB load(1, XDATA, add(CFA_XSP16, literal(-15)))
          CFI (cfiCond267) V0 load(1, XDATA, add(CFA_XSP16, literal(-14)))
          CFI (cfiCond267) V1 load(1, XDATA, add(CFA_XSP16, literal(-13)))
          CFI (cfiCond267) V2 load(1, XDATA, add(CFA_XSP16, literal(-12)))
          CFI (cfiCond267) V3 load(1, XDATA, add(CFA_XSP16, literal(-11)))
          CFI (cfiCond267) V4 load(1, XDATA, add(CFA_XSP16, literal(-10)))
          CFI (cfiCond267) V5 load(1, XDATA, add(CFA_XSP16, literal(-9)))
          CFI (cfiCond267) V6 load(1, XDATA, add(CFA_XSP16, literal(-8)))
          CFI (cfiCond267) V7 load(1, XDATA, add(CFA_XSP16, literal(-7)))
          CFI (cfiCond267) R7 load(1, XDATA, add(CFA_XSP16, literal(-6)))
          CFI (cfiCond267) ?RET_LOW load(1, XDATA, add(CFA_XSP16, literal(-5)))
          CFI (cfiCond267) ?RET_HIGH load(1, XDATA, add(CFA_XSP16, literal(-4)))
          CFI (cfiCond267) ?BRET_EXT load(1, XDATA, add(CFA_XSP16, literal(-3)))
          CFI (cfiCond267) DPL0 load(1, XDATA, add(CFA_XSP16, literal(-2)))
          CFI (cfiCond267) DPH0 load(1, XDATA, add(CFA_XSP16, literal(-1)))
          CFI (cfiCond267) CFA_SP SP+-2
          CFI (cfiCond267) CFA_XSP16 add(XSP16, 35)
          CFI Block cfiCond268 Using cfiCommon0
          CFI (cfiCond268) Function osal_nv_write
          CFI (cfiCond268) Conditional ??CrossCallReturnLabel_153
          CFI (cfiCond268) R6 load(1, XDATA, add(CFA_XSP16, literal(-16)))
          CFI (cfiCond268) VB load(1, XDATA, add(CFA_XSP16, literal(-15)))
          CFI (cfiCond268) V0 load(1, XDATA, add(CFA_XSP16, literal(-14)))
          CFI (cfiCond268) V1 load(1, XDATA, add(CFA_XSP16, literal(-13)))
          CFI (cfiCond268) V2 load(1, XDATA, add(CFA_XSP16, literal(-12)))
          CFI (cfiCond268) V3 load(1, XDATA, add(CFA_XSP16, literal(-11)))
          CFI (cfiCond268) V4 load(1, XDATA, add(CFA_XSP16, literal(-10)))
          CFI (cfiCond268) V5 load(1, XDATA, add(CFA_XSP16, literal(-9)))
          CFI (cfiCond268) V6 load(1, XDATA, add(CFA_XSP16, literal(-8)))
          CFI (cfiCond268) V7 load(1, XDATA, add(CFA_XSP16, literal(-7)))
          CFI (cfiCond268) R7 load(1, XDATA, add(CFA_XSP16, literal(-6)))
          CFI (cfiCond268) ?RET_LOW load(1, XDATA, add(CFA_XSP16, literal(-5)))
          CFI (cfiCond268) ?RET_HIGH load(1, XDATA, add(CFA_XSP16, literal(-4)))
          CFI (cfiCond268) ?BRET_EXT load(1, XDATA, add(CFA_XSP16, literal(-3)))
          CFI (cfiCond268) DPL0 load(1, XDATA, add(CFA_XSP16, literal(-2)))
          CFI (cfiCond268) DPH0 load(1, XDATA, add(CFA_XSP16, literal(-1)))
          CFI (cfiCond268) CFA_SP SP+-2
          CFI (cfiCond268) CFA_XSP16 add(XSP16, 39)
          CFI Block cfiCond269 Using cfiCommon0
          CFI (cfiCond269) Function osal_nv_write
          CFI (cfiCond269) Conditional ??CrossCallReturnLabel_154
          CFI (cfiCond269) R6 load(1, XDATA, add(CFA_XSP16, literal(-16)))
          CFI (cfiCond269) VB load(1, XDATA, add(CFA_XSP16, literal(-15)))
          CFI (cfiCond269) V0 load(1, XDATA, add(CFA_XSP16, literal(-14)))
          CFI (cfiCond269) V1 load(1, XDATA, add(CFA_XSP16, literal(-13)))
          CFI (cfiCond269) V2 load(1, XDATA, add(CFA_XSP16, literal(-12)))
          CFI (cfiCond269) V3 load(1, XDATA, add(CFA_XSP16, literal(-11)))
          CFI (cfiCond269) V4 load(1, XDATA, add(CFA_XSP16, literal(-10)))
          CFI (cfiCond269) V5 load(1, XDATA, add(CFA_XSP16, literal(-9)))
          CFI (cfiCond269) V6 load(1, XDATA, add(CFA_XSP16, literal(-8)))
          CFI (cfiCond269) V7 load(1, XDATA, add(CFA_XSP16, literal(-7)))
          CFI (cfiCond269) R7 load(1, XDATA, add(CFA_XSP16, literal(-6)))
          CFI (cfiCond269) ?RET_LOW load(1, XDATA, add(CFA_XSP16, literal(-5)))
          CFI (cfiCond269) ?RET_HIGH load(1, XDATA, add(CFA_XSP16, literal(-4)))
          CFI (cfiCond269) ?BRET_EXT load(1, XDATA, add(CFA_XSP16, literal(-3)))
          CFI (cfiCond269) DPL0 load(1, XDATA, add(CFA_XSP16, literal(-2)))
          CFI (cfiCond269) DPH0 load(1, XDATA, add(CFA_XSP16, literal(-1)))
          CFI (cfiCond269) CFA_SP SP+-2
          CFI (cfiCond269) CFA_XSP16 add(XSP16, 35)
          CFI Block cfiCond270 Using cfiCommon0
          CFI (cfiCond270) Function initNV
          CFI (cfiCond270) Conditional ??CrossCallReturnLabel_155
          CFI (cfiCond270) R6 load(1, XDATA, add(CFA_XSP16, literal(-12)))
          CFI (cfiCond270) VB load(1, XDATA, add(CFA_XSP16, literal(-11)))
          CFI (cfiCond270) V0 load(1, XDATA, add(CFA_XSP16, literal(-10)))
          CFI (cfiCond270) V1 load(1, XDATA, add(CFA_XSP16, literal(-9)))
          CFI (cfiCond270) V2 load(1, XDATA, add(CFA_XSP16, literal(-8)))
          CFI (cfiCond270) V3 load(1, XDATA, add(CFA_XSP16, literal(-7)))
          CFI (cfiCond270) R7 load(1, XDATA, add(CFA_XSP16, literal(-6)))
          CFI (cfiCond270) ?RET_LOW load(1, XDATA, add(CFA_XSP16, literal(-5)))
          CFI (cfiCond270) ?RET_HIGH load(1, XDATA, add(CFA_XSP16, literal(-4)))
          CFI (cfiCond270) ?BRET_EXT load(1, XDATA, add(CFA_XSP16, literal(-3)))
          CFI (cfiCond270) DPL0 load(1, XDATA, add(CFA_XSP16, literal(-2)))
          CFI (cfiCond270) DPH0 load(1, XDATA, add(CFA_XSP16, literal(-1)))
          CFI (cfiCond270) CFA_SP SP+-2
          CFI (cfiCond270) CFA_XSP16 add(XSP16, 20)
          CFI Block cfiCond271 Using cfiCommon0
          CFI (cfiCond271) Function initItem
          CFI (cfiCond271) Conditional ??CrossCallReturnLabel_156
          CFI (cfiCond271) R6 load(1, XDATA, add(CFA_XSP16, literal(-16)))
          CFI (cfiCond271) VB load(1, XDATA, add(CFA_XSP16, literal(-15)))
          CFI (cfiCond271) V0 load(1, XDATA, add(CFA_XSP16, literal(-14)))
          CFI (cfiCond271) V1 load(1, XDATA, add(CFA_XSP16, literal(-13)))
          CFI (cfiCond271) V2 load(1, XDATA, add(CFA_XSP16, literal(-12)))
          CFI (cfiCond271) V3 load(1, XDATA, add(CFA_XSP16, literal(-11)))
          CFI (cfiCond271) V4 load(1, XDATA, add(CFA_XSP16, literal(-10)))
          CFI (cfiCond271) V5 load(1, XDATA, add(CFA_XSP16, literal(-9)))
          CFI (cfiCond271) V6 load(1, XDATA, add(CFA_XSP16, literal(-8)))
          CFI (cfiCond271) V7 load(1, XDATA, add(CFA_XSP16, literal(-7)))
          CFI (cfiCond271) R7 load(1, XDATA, add(CFA_XSP16, literal(-6)))
          CFI (cfiCond271) ?RET_LOW load(1, XDATA, add(CFA_XSP16, literal(-5)))
          CFI (cfiCond271) ?RET_HIGH load(1, XDATA, add(CFA_XSP16, literal(-4)))
          CFI (cfiCond271) ?BRET_EXT load(1, XDATA, add(CFA_XSP16, literal(-3)))
          CFI (cfiCond271) DPL0 load(1, XDATA, add(CFA_XSP16, literal(-2)))
          CFI (cfiCond271) DPH0 load(1, XDATA, add(CFA_XSP16, literal(-1)))
          CFI (cfiCond271) CFA_SP SP+-2
          CFI (cfiCond271) CFA_XSP16 add(XSP16, 26)
          CFI Block cfiPicker272 Using cfiCommon1
          CFI (cfiPicker272) NoFunction
          CFI (cfiPicker272) Picker
        MOVX      A,@DPTR
        MOV       R2,A
        INC       DPTR
        MOVX      A,@DPTR
        MOV       R3,A
        RET
          CFI EndBlock cfiCond258
          CFI EndBlock cfiCond259
          CFI EndBlock cfiCond260
          CFI EndBlock cfiCond261
          CFI EndBlock cfiCond262
          CFI EndBlock cfiCond263
          CFI EndBlock cfiCond264
          CFI EndBlock cfiCond265
          CFI EndBlock cfiCond266
          CFI EndBlock cfiCond267
          CFI EndBlock cfiCond268
          CFI EndBlock cfiCond269
          CFI EndBlock cfiCond270
          CFI EndBlock cfiCond271
          CFI EndBlock cfiPicker272

        RSEG BANKED_CODE:HUGECODE:NOROOT(0)
?Subroutine5:
          CFI Block cfiCond273 Using cfiCommon0
          CFI Function hotItemUpdate
          CFI Conditional ??CrossCallReturnLabel_0
          CFI R6 load(1, XDATA, add(CFA_XSP16, literal(-9)))
          CFI VB load(1, XDATA, add(CFA_XSP16, literal(-8)))
          CFI V0 load(1, XDATA, add(CFA_XSP16, literal(-7)))
          CFI R7 load(1, XDATA, add(CFA_XSP16, literal(-6)))
          CFI ?RET_LOW load(1, XDATA, add(CFA_XSP16, literal(-5)))
          CFI ?RET_HIGH load(1, XDATA, add(CFA_XSP16, literal(-4)))
          CFI ?BRET_EXT load(1, XDATA, add(CFA_XSP16, literal(-3)))
          CFI DPL0 load(1, XDATA, add(CFA_XSP16, literal(-2)))
          CFI DPH0 load(1, XDATA, add(CFA_XSP16, literal(-1)))
          CFI CFA_SP SP+-2
          CFI CFA_XSP16 add(XSP16, 9)
          CFI Block cfiCond274 Using cfiCommon0
          CFI (cfiCond274) Function osal_nv_item_len
          CFI (cfiCond274) Conditional ??CrossCallReturnLabel_1
          CFI (cfiCond274) R6 load(1, XDATA, add(CFA_XSP16, literal(-10)))
          CFI (cfiCond274) VB load(1, XDATA, add(CFA_XSP16, literal(-9)))
          CFI (cfiCond274) V0 load(1, XDATA, add(CFA_XSP16, literal(-8)))
          CFI (cfiCond274) V1 load(1, XDATA, add(CFA_XSP16, literal(-7)))
          CFI (cfiCond274) R7 load(1, XDATA, add(CFA_XSP16, literal(-6)))
          CFI (cfiCond274) ?RET_LOW load(1, XDATA, add(CFA_XSP16, literal(-5)))
          CFI (cfiCond274) ?RET_HIGH load(1, XDATA, add(CFA_XSP16, literal(-4)))
          CFI (cfiCond274) ?BRET_EXT load(1, XDATA, add(CFA_XSP16, literal(-3)))
          CFI (cfiCond274) DPL0 load(1, XDATA, add(CFA_XSP16, literal(-2)))
          CFI (cfiCond274) DPH0 load(1, XDATA, add(CFA_XSP16, literal(-1)))
          CFI (cfiCond274) CFA_SP SP+-2
          CFI (cfiCond274) CFA_XSP16 add(XSP16, 18)
          CFI Block cfiPicker275 Using cfiCommon1
          CFI (cfiPicker275) NoFunction
          CFI (cfiPicker275) Picker
        MOVX      @DPTR,A
        LCALL     ?Subroutine46 & 0xFFFF
??CrossCallReturnLabel_94:
        RET
          CFI EndBlock cfiCond273
          CFI EndBlock cfiCond274
          CFI EndBlock cfiPicker275

        RSEG BANKED_CODE:HUGECODE:NOROOT(0)
?Subroutine46:
          CFI Block cfiCond276 Using cfiCommon0
          CFI Function hotItemUpdate
          CFI Conditional ??CrossCallReturnLabel_94, ??CrossCallReturnLabel_0
          CFI R6 load(1, XDATA, add(CFA_XSP16, literal(-9)))
          CFI VB load(1, XDATA, add(CFA_XSP16, literal(-8)))
          CFI V0 load(1, XDATA, add(CFA_XSP16, literal(-7)))
          CFI R7 load(1, XDATA, add(CFA_XSP16, literal(-6)))
          CFI ?RET_LOW load(1, XDATA, add(CFA_XSP16, literal(-5)))
          CFI ?RET_HIGH load(1, XDATA, add(CFA_XSP16, literal(-4)))
          CFI ?BRET_EXT load(1, XDATA, add(CFA_XSP16, literal(-3)))
          CFI DPL0 load(1, XDATA, add(CFA_XSP16, literal(-2)))
          CFI DPH0 load(1, XDATA, add(CFA_XSP16, literal(-1)))
          CFI CFA_SP SP+-4
          CFI CFA_XSP16 add(XSP16, 9)
          CFI Block cfiCond277 Using cfiCommon0
          CFI (cfiCond277) Function osal_nv_item_len
          CFI (cfiCond277) Conditional ??CrossCallReturnLabel_94, ??CrossCallReturnLabel_1
          CFI (cfiCond277) R6 load(1, XDATA, add(CFA_XSP16, literal(-10)))
          CFI (cfiCond277) VB load(1, XDATA, add(CFA_XSP16, literal(-9)))
          CFI (cfiCond277) V0 load(1, XDATA, add(CFA_XSP16, literal(-8)))
          CFI (cfiCond277) V1 load(1, XDATA, add(CFA_XSP16, literal(-7)))
          CFI (cfiCond277) R7 load(1, XDATA, add(CFA_XSP16, literal(-6)))
          CFI (cfiCond277) ?RET_LOW load(1, XDATA, add(CFA_XSP16, literal(-5)))
          CFI (cfiCond277) ?RET_HIGH load(1, XDATA, add(CFA_XSP16, literal(-4)))
          CFI (cfiCond277) ?BRET_EXT load(1, XDATA, add(CFA_XSP16, literal(-3)))
          CFI (cfiCond277) DPL0 load(1, XDATA, add(CFA_XSP16, literal(-2)))
          CFI (cfiCond277) DPH0 load(1, XDATA, add(CFA_XSP16, literal(-1)))
          CFI (cfiCond277) CFA_SP SP+-4
          CFI (cfiCond277) CFA_XSP16 add(XSP16, 18)
          CFI Block cfiCond278 Using cfiCommon0
          CFI (cfiCond278) Function osal_nv_read
          CFI (cfiCond278) Conditional ??CrossCallReturnLabel_93
          CFI (cfiCond278) R6 load(1, XDATA, add(CFA_XSP16, literal(-16)))
          CFI (cfiCond278) VB load(1, XDATA, add(CFA_XSP16, literal(-15)))
          CFI (cfiCond278) V0 load(1, XDATA, add(CFA_XSP16, literal(-14)))
          CFI (cfiCond278) V1 load(1, XDATA, add(CFA_XSP16, literal(-13)))
          CFI (cfiCond278) V2 load(1, XDATA, add(CFA_XSP16, literal(-12)))
          CFI (cfiCond278) V3 load(1, XDATA, add(CFA_XSP16, literal(-11)))
          CFI (cfiCond278) V4 load(1, XDATA, add(CFA_XSP16, literal(-10)))
          CFI (cfiCond278) V5 load(1, XDATA, add(CFA_XSP16, literal(-9)))
          CFI (cfiCond278) V6 load(1, XDATA, add(CFA_XSP16, literal(-8)))
          CFI (cfiCond278) V7 load(1, XDATA, add(CFA_XSP16, literal(-7)))
          CFI (cfiCond278) R7 load(1, XDATA, add(CFA_XSP16, literal(-6)))
          CFI (cfiCond278) ?RET_LOW load(1, XDATA, add(CFA_XSP16, literal(-5)))
          CFI (cfiCond278) ?RET_HIGH load(1, XDATA, add(CFA_XSP16, literal(-4)))
          CFI (cfiCond278) ?BRET_EXT load(1, XDATA, add(CFA_XSP16, literal(-3)))
          CFI (cfiCond278) DPL0 load(1, XDATA, add(CFA_XSP16, literal(-2)))
          CFI (cfiCond278) DPH0 load(1, XDATA, add(CFA_XSP16, literal(-1)))
          CFI (cfiCond278) CFA_SP SP+-2
          CFI (cfiCond278) CFA_XSP16 add(XSP16, 18)
          CFI Block cfiPicker279 Using cfiCommon1
          CFI (cfiPicker279) NoFunction
          CFI (cfiPicker279) Picker
        MOV       A,R1
        ADD       A,R1
        MOV       R0,A
        CLR       A
        RLC       A
        MOV       R1,A
        MOV       A,#hotOff & 0xff
        ADD       A,R0
        MOV       DPL,A
        MOV       A,#(hotOff >> 8) & 0xff
        ADDC      A,R1
        MOV       DPH,A
        RET
          CFI EndBlock cfiCond276
          CFI EndBlock cfiCond277
          CFI EndBlock cfiCond278
          CFI EndBlock cfiPicker279
// 1268 
// 1269 /*********************************************************************
// 1270  * @fn      osal_nv_write
// 1271  *
// 1272  * @brief   Write a data item to NV. Function can write an entire item to NV or
// 1273  *          an element of an item by indexing into the item with an offset.
// 1274  *
// 1275  * @param   id  - Valid NV item Id.
// 1276  * @param   ndx - Index offset into item
// 1277  * @param   len - Length of data to write.
// 1278  * @param  *buf - Data to write.
// 1279  *
// 1280  * @return  SUCCESS if successful, NV_ITEM_UNINIT if item did not
// 1281  *          exist in NV and offset is non-zero, NV_OPER_FAILED if failure.
// 1282  */

        RSEG BANKED_CODE:HUGECODE:NOROOT(0)
// 1283 uint8 osal_nv_write( uint16 id, uint16 ndx, uint16 len, void *buf )
osal_nv_write:
          CFI Block cfiBlock280 Using cfiCommon0
          CFI Function osal_nv_write
        CODE
// 1284 {
        FUNCALL osal_nv_write, HalAdcCheckVdd
        LOCFRAME ISTACK, 0, STACK
        LOCFRAME PSTACK, 0, STACK
        LOCFRAME XSTACK, 35, STACK
        LOCFRAME IOVERLAY, 0, STATIC
        LOCFRAME DOVERLAY, 0, STATIC
        ARGFRAME ISTACK, 0, STACK
        ARGFRAME PSTACK, 0, STACK
        ARGFRAME XSTACK, 35, STACK
        ARGFRAME IOVERLAY, 0, STATIC
        ARGFRAME DOVERLAY, 0, STATIC
        FUNCALL osal_nv_write, findItem
        LOCFRAME ISTACK, 0, STACK
        LOCFRAME PSTACK, 0, STACK
        LOCFRAME XSTACK, 35, STACK
        LOCFRAME IOVERLAY, 0, STATIC
        LOCFRAME DOVERLAY, 0, STATIC
        ARGFRAME ISTACK, 0, STACK
        ARGFRAME PSTACK, 0, STACK
        ARGFRAME XSTACK, 35, STACK
        ARGFRAME IOVERLAY, 0, STATIC
        ARGFRAME DOVERLAY, 0, STATIC
        FUNCALL osal_nv_write, HalFlashRead
        LOCFRAME ISTACK, 0, STACK
        LOCFRAME PSTACK, 0, STACK
        LOCFRAME XSTACK, 37, STACK
        LOCFRAME IOVERLAY, 0, STATIC
        LOCFRAME DOVERLAY, 0, STATIC
        ARGFRAME ISTACK, 0, STACK
        ARGFRAME PSTACK, 0, STACK
        ARGFRAME XSTACK, 37, STACK
        ARGFRAME IOVERLAY, 0, STATIC
        ARGFRAME DOVERLAY, 0, STATIC
        FUNCALL osal_nv_write, HalFlashRead
        LOCFRAME ISTACK, 0, STACK
        LOCFRAME PSTACK, 0, STACK
        LOCFRAME XSTACK, 37, STACK
        LOCFRAME IOVERLAY, 0, STATIC
        LOCFRAME DOVERLAY, 0, STATIC
        ARGFRAME ISTACK, 0, STACK
        ARGFRAME PSTACK, 0, STACK
        ARGFRAME XSTACK, 37, STACK
        ARGFRAME IOVERLAY, 0, STATIC
        ARGFRAME DOVERLAY, 0, STATIC
        FUNCALL osal_nv_write, initItem
        LOCFRAME ISTACK, 0, STACK
        LOCFRAME PSTACK, 0, STACK
        LOCFRAME XSTACK, 37, STACK
        LOCFRAME IOVERLAY, 0, STATIC
        LOCFRAME DOVERLAY, 0, STATIC
        ARGFRAME ISTACK, 0, STACK
        ARGFRAME PSTACK, 0, STACK
        ARGFRAME XSTACK, 37, STACK
        ARGFRAME IOVERLAY, 0, STATIC
        ARGFRAME DOVERLAY, 0, STATIC
        FUNCALL osal_nv_write, setItem
        LOCFRAME ISTACK, 0, STACK
        LOCFRAME PSTACK, 0, STACK
        LOCFRAME XSTACK, 35, STACK
        LOCFRAME IOVERLAY, 0, STATIC
        LOCFRAME DOVERLAY, 0, STATIC
        ARGFRAME ISTACK, 0, STACK
        ARGFRAME PSTACK, 0, STACK
        ARGFRAME XSTACK, 35, STACK
        ARGFRAME IOVERLAY, 0, STATIC
        ARGFRAME DOVERLAY, 0, STATIC
        FUNCALL osal_nv_write, xferBuf
        LOCFRAME ISTACK, 0, STACK
        LOCFRAME PSTACK, 0, STACK
        LOCFRAME XSTACK, 39, STACK
        LOCFRAME IOVERLAY, 0, STATIC
        LOCFRAME DOVERLAY, 0, STATIC
        ARGFRAME ISTACK, 0, STACK
        ARGFRAME PSTACK, 0, STACK
        ARGFRAME XSTACK, 39, STACK
        ARGFRAME IOVERLAY, 0, STATIC
        ARGFRAME DOVERLAY, 0, STATIC
        FUNCALL osal_nv_write, writeBuf
        LOCFRAME ISTACK, 0, STACK
        LOCFRAME PSTACK, 0, STACK
        LOCFRAME XSTACK, 37, STACK
        LOCFRAME IOVERLAY, 0, STATIC
        LOCFRAME DOVERLAY, 0, STATIC
        ARGFRAME ISTACK, 0, STACK
        ARGFRAME PSTACK, 0, STACK
        ARGFRAME XSTACK, 37, STACK
        ARGFRAME IOVERLAY, 0, STATIC
        ARGFRAME DOVERLAY, 0, STATIC
        FUNCALL osal_nv_write, xferBuf
        LOCFRAME ISTACK, 0, STACK
        LOCFRAME PSTACK, 0, STACK
        LOCFRAME XSTACK, 39, STACK
        LOCFRAME IOVERLAY, 0, STATIC
        LOCFRAME DOVERLAY, 0, STATIC
        ARGFRAME ISTACK, 0, STACK
        ARGFRAME PSTACK, 0, STACK
        ARGFRAME XSTACK, 39, STACK
        ARGFRAME IOVERLAY, 0, STATIC
        ARGFRAME DOVERLAY, 0, STATIC
        FUNCALL osal_nv_write, calcChkF
        LOCFRAME ISTACK, 0, STACK
        LOCFRAME PSTACK, 0, STACK
        LOCFRAME XSTACK, 35, STACK
        LOCFRAME IOVERLAY, 0, STATIC
        LOCFRAME DOVERLAY, 0, STATIC
        ARGFRAME ISTACK, 0, STACK
        ARGFRAME PSTACK, 0, STACK
        ARGFRAME XSTACK, 35, STACK
        ARGFRAME IOVERLAY, 0, STATIC
        ARGFRAME DOVERLAY, 0, STATIC
        FUNCALL osal_nv_write, setChk
        LOCFRAME ISTACK, 0, STACK
        LOCFRAME PSTACK, 0, STACK
        LOCFRAME XSTACK, 35, STACK
        LOCFRAME IOVERLAY, 0, STATIC
        LOCFRAME DOVERLAY, 0, STATIC
        ARGFRAME ISTACK, 0, STACK
        ARGFRAME PSTACK, 0, STACK
        ARGFRAME XSTACK, 35, STACK
        ARGFRAME IOVERLAY, 0, STATIC
        ARGFRAME DOVERLAY, 0, STATIC
        FUNCALL osal_nv_write, hotItemUpdate
        LOCFRAME ISTACK, 0, STACK
        LOCFRAME PSTACK, 0, STACK
        LOCFRAME XSTACK, 35, STACK
        LOCFRAME IOVERLAY, 0, STATIC
        LOCFRAME DOVERLAY, 0, STATIC
        ARGFRAME ISTACK, 0, STACK
        ARGFRAME PSTACK, 0, STACK
        ARGFRAME XSTACK, 35, STACK
        ARGFRAME IOVERLAY, 0, STATIC
        ARGFRAME DOVERLAY, 0, STATIC
        FUNCALL osal_nv_write, erasePage
        LOCFRAME ISTACK, 0, STACK
        LOCFRAME PSTACK, 0, STACK
        LOCFRAME XSTACK, 35, STACK
        LOCFRAME IOVERLAY, 0, STATIC
        LOCFRAME DOVERLAY, 0, STATIC
        ARGFRAME ISTACK, 0, STACK
        ARGFRAME PSTACK, 0, STACK
        ARGFRAME XSTACK, 35, STACK
        ARGFRAME IOVERLAY, 0, STATIC
        ARGFRAME DOVERLAY, 0, STATIC
        FUNCALL osal_nv_write, setPageUse
        LOCFRAME ISTACK, 0, STACK
        LOCFRAME PSTACK, 0, STACK
        LOCFRAME XSTACK, 35, STACK
        LOCFRAME IOVERLAY, 0, STATIC
        LOCFRAME DOVERLAY, 0, STATIC
        ARGFRAME ISTACK, 0, STACK
        ARGFRAME PSTACK, 0, STACK
        ARGFRAME XSTACK, 35, STACK
        ARGFRAME IOVERLAY, 0, STATIC
        ARGFRAME DOVERLAY, 0, STATIC
        FUNCALL osal_nv_write, erasePage
        LOCFRAME ISTACK, 0, STACK
        LOCFRAME PSTACK, 0, STACK
        LOCFRAME XSTACK, 35, STACK
        LOCFRAME IOVERLAY, 0, STATIC
        LOCFRAME DOVERLAY, 0, STATIC
        ARGFRAME ISTACK, 0, STACK
        ARGFRAME PSTACK, 0, STACK
        ARGFRAME XSTACK, 35, STACK
        ARGFRAME IOVERLAY, 0, STATIC
        ARGFRAME DOVERLAY, 0, STATIC
        FUNCALL osal_nv_write, setItem
        LOCFRAME ISTACK, 0, STACK
        LOCFRAME PSTACK, 0, STACK
        LOCFRAME XSTACK, 35, STACK
        LOCFRAME IOVERLAY, 0, STATIC
        LOCFRAME DOVERLAY, 0, STATIC
        ARGFRAME ISTACK, 0, STACK
        ARGFRAME PSTACK, 0, STACK
        ARGFRAME XSTACK, 35, STACK
        ARGFRAME IOVERLAY, 0, STATIC
        ARGFRAME DOVERLAY, 0, STATIC
        REQUIRE ?V0
        REQUIRE ?V1
        REQUIRE ?V2
        REQUIRE ?V3
        REQUIRE ?V4
        REQUIRE ?V5
        REQUIRE ?V6
        REQUIRE ?V7
        MOV       A,#-0x10
        LCALL     ?BANKED_ENTER_XDATA
          CFI DPH0 load(1, XDATA, add(CFA_XSP16, literal(-1)))
          CFI DPL0 load(1, XDATA, add(CFA_XSP16, literal(-2)))
          CFI ?BRET_EXT load(1, XDATA, add(CFA_XSP16, literal(-3)))
          CFI ?RET_HIGH load(1, XDATA, add(CFA_XSP16, literal(-4)))
          CFI ?RET_LOW load(1, XDATA, add(CFA_XSP16, literal(-5)))
          CFI R7 load(1, XDATA, add(CFA_XSP16, literal(-6)))
          CFI V7 load(1, XDATA, add(CFA_XSP16, literal(-7)))
          CFI V6 load(1, XDATA, add(CFA_XSP16, literal(-8)))
          CFI V5 load(1, XDATA, add(CFA_XSP16, literal(-9)))
          CFI V4 load(1, XDATA, add(CFA_XSP16, literal(-10)))
          CFI V3 load(1, XDATA, add(CFA_XSP16, literal(-11)))
          CFI V2 load(1, XDATA, add(CFA_XSP16, literal(-12)))
          CFI V1 load(1, XDATA, add(CFA_XSP16, literal(-13)))
          CFI V0 load(1, XDATA, add(CFA_XSP16, literal(-14)))
          CFI VB load(1, XDATA, add(CFA_XSP16, literal(-15)))
          CFI R6 load(1, XDATA, add(CFA_XSP16, literal(-16)))
          CFI CFA_SP SP+0
          CFI CFA_XSP16 add(XSP16, 16)
        ; Saved register size: 16
        ; Auto size: 19
        MOV       A,#-0x13
        LCALL     ?ALLOC_XSTACK8
          CFI CFA_XSP16 add(XSP16, 35)
        MOV       A,#0x11
        LCALL     ?XSTACK_DISP0_8
        MOV       A,R2
        MOVX      @DPTR,A
        INC       DPTR
        MOV       A,R3
        MOVX      @DPTR,A
        MOV       A,#0x7
        LCALL     ?XSTACK_DISP0_8
        MOV       A,R4
        MOVX      @DPTR,A
        INC       DPTR
        MOV       A,R5
        MOVX      @DPTR,A
// 1285   uint8 rtrn = SUCCESS;
        MOV       A,#0x2
        LCALL     ?XSTACK_DISP0_8
        CLR       A
        MOVX      @DPTR,A
// 1286 
// 1287   if ( !OSAL_NV_CHECK_BUS_VOLTAGE )
        ; Setup parameters for call to function HalAdcCheckVdd
        MOV       R1,#0x4e
        LCALL     `??HalAdcCheckVdd::?relay`; Banked call to: HalAdcCheckVdd
        MOV       A,R1
        JNZ       $+5
        LJMP      ??osal_nv_write_0 & 0xFFFF
// 1288   {
// 1289     return NV_OPER_FAILED;
// 1290   }
// 1291   else if ( len != 0 )
        MOV       A,#0x23
        LCALL     ?XSTACK_DISP0_8
        LCALL     ?Subroutine12 & 0xFFFF
??CrossCallReturnLabel_17:
        JNZ       $+5
        LJMP      ??CrossCallReturnLabel_56 & 0xFFFF
// 1292   {
// 1293     osalNvHdr_t hdr;
// 1294     uint16 origOff, srcOff;
// 1295     uint16 cnt, chk;
// 1296     uint8 *ptr, srcPg;
// 1297 
// 1298     origOff = srcOff = findItem( id );
        ; Setup parameters for call to function findItem
        MOV       A,#0x11
        LCALL     ?XSTACK_DISP0_8
        LCALL     ??Subroutine62_0 & 0xFFFF
??CrossCallReturnLabel_149:
        LCALL     `??findItem::?relay`; Banked call to: findItem
        MOV       A,#0x3
        LCALL     ?XSTACK_DISP0_8
        MOV       A,R2
        MOVX      @DPTR,A
        INC       DPTR
        MOV       A,R3
        MOVX      @DPTR,A
// 1299     srcPg = findPg;
        MOV       DPTR,#findPg
        MOVX      A,@DPTR
        PUSH      A
          CFI CFA_SP SP+-1
        MOV       A,#0x1
        LCALL     ?XSTACK_DISP0_8
        POP       A
          CFI CFA_SP SP+0
        MOVX      @DPTR,A
// 1300     if ( srcOff == OSAL_NV_ITEM_NULL )
        MOV       A,#0x3
        LCALL     ?XSTACK_DISP0_8
        LCALL     ?Subroutine12 & 0xFFFF
??CrossCallReturnLabel_18:
        JNZ       ??osal_nv_write_1
// 1301     {
// 1302       return NV_ITEM_UNINIT;
        MOV       R1,#0x9
        LJMP      ??osal_nv_write_2 & 0xFFFF
// 1303     }
// 1304 
// 1305     HalFlashRead(srcPg, (srcOff - OSAL_NV_HDR_SIZE), (uint8 *)(&hdr), OSAL_NV_HDR_SIZE);
??osal_nv_write_1:
        ; Setup parameters for call to function HalFlashRead
        MOV       ?V0,#0x8
        MOV       ?V1,#0x0
        MOV       R0,#?V0
        LCALL     ?PUSH_XSTACK_I_TWO
          CFI CFA_XSP16 add(XSP16, 37)
        MOV       A,#0xb
        LCALL     ?XSTACK_DISP102_8
        MOV       A,#0x5
        LCALL     ?XSTACK_DISP0_8
        MOVX      A,@DPTR
        ADD       A,#-0x8
        MOV       R2,A
        INC       DPTR
        MOVX      A,@DPTR
        ADDC      A,#-0x1
        MOV       R3,A
        MOV       A,#0x3
        LCALL     ?XSTACK_DISP0_8
        LCALL     ?Subroutine10 & 0xFFFF
??CrossCallReturnLabel_119:
        LCALL     ?DEALLOC_XSTACK8
          CFI CFA_XSP16 add(XSP16, 35)
// 1306     if ( hdr.len < (ndx + len) )
        MOV       A,#0xb
        LCALL     ?XSTACK_DISP0_8
        PUSH      DPL
          CFI CFA_SP SP+-1
        PUSH      DPH
          CFI CFA_SP SP+-2
        MOV       A,#0x7
        LCALL     ?XSTACK_DISP0_8
        LCALL     ?Subroutine22 & 0xFFFF
??CrossCallReturnLabel_43:
        MOV       A,#0x23
        LCALL     ?XSTACK_DISP0_8
        MOVX      A,@DPTR
        ADD       A,R0
        MOV       R0,A
        INC       DPTR
        MOVX      A,@DPTR
        ADDC      A,R1
        MOV       R1,A
        POP       DPH
          CFI CFA_SP SP+-1
        POP       DPL
          CFI CFA_SP SP+0
        CLR       C
        MOVX      A,@DPTR
        SUBB      A,R0
        INC       DPTR
        MOVX      A,@DPTR
        SUBB      A,R1
        JNC       ??osal_nv_write_3
// 1307     {
// 1308       return NV_OPER_FAILED;
??osal_nv_write_0:
        MOV       R1,#0xa
        LJMP      ??osal_nv_write_2 & 0xFFFF
// 1309     }
// 1310 
// 1311     srcOff += ndx;
??osal_nv_write_3:
        MOV       A,#0x3
        LCALL     ?XSTACK_DISP0_8
        LCALL     ?Subroutine22 & 0xFFFF
??CrossCallReturnLabel_44:
        MOV       A,#0x7
        LCALL     ?XSTACK_DISP0_8
        MOVX      A,@DPTR
        ADD       A,R0
        MOV       ?V2,A
        INC       DPTR
        MOVX      A,@DPTR
        ADDC      A,R1
        MOV       ?V3,A
        MOV       A,#0x5
        LCALL     ?XSTACK_DISP0_8
        MOV       A,?V2
        MOVX      @DPTR,A
        INC       DPTR
        MOV       A,?V3
        MOVX      @DPTR,A
// 1312     ptr = buf;
        MOV       A,#0x25
        LCALL     ?XSTACK_DISP0_8
        MOVX      A,@DPTR
        MOV       ?V6,A
        INC       DPTR
        MOVX      A,@DPTR
        MOV       ?V7,A
// 1313     cnt = len;
        MOV       A,#0x23
        LCALL     ?XSTACK_DISP0_8
        MOVX      A,@DPTR
        MOV       R6,A
        INC       DPTR
        MOVX      A,@DPTR
        MOV       R7,A
// 1314     chk = 0;
        MOV       ?V0,#0x0
        SJMP      ??osal_nv_write_4
// 1315     while ( cnt-- )
// 1316     {
// 1317       uint8 tmp;
// 1318       HalFlashRead(srcPg, srcOff, &tmp, 1);
??osal_nv_write_5:
        ; Setup parameters for call to function HalFlashRead
        MOV       ?V4,#0x1
        MOV       ?V5,#0x0
        MOV       R0,#?V4
        LCALL     ?PUSH_XSTACK_I_TWO
          CFI CFA_XSP16 add(XSP16, 37)
        MOV       A,#0x2
        LCALL     ?XSTACK_DISP102_8
        MOV       A,#0x7
        LCALL     ?XSTACK_DISP0_8
        LCALL     ??Subroutine62_0 & 0xFFFF
??CrossCallReturnLabel_150:
        MOV       A,#0x3
        LCALL     ?XSTACK_DISP0_8
        LCALL     ?Subroutine10 & 0xFFFF
??CrossCallReturnLabel_120:
        LCALL     ?DEALLOC_XSTACK8
          CFI CFA_XSP16 add(XSP16, 35)
// 1319       if ( tmp != *ptr )
        MOV       DPL,?XSP + 0
        MOV       DPH,?XSP + 1
        MOVX      A,@DPTR
        MOV       R0,A
        MOV       DPL,?V6
        MOV       DPH,?V7
        MOVX      A,@DPTR
        XRL       A,R0
        JZ        ??osal_nv_write_6
// 1320       {
// 1321         chk = 1;  // Mark that at least one byte is different.
        MOV       ?V0,#0x1
// 1322         // Calculate expected checksum after transferring old data and writing new data.
// 1323         hdr.chk -= tmp;
        MOV       A,#0xd
        LCALL     ?XSTACK_DISP0_8
        CLR       C
        MOVX      A,@DPTR
        SUBB      A,R0
        MOVX      @DPTR,A
        INC       DPTR
        MOVX      A,@DPTR
        SUBB      A,#0x0
        MOVX      @DPTR,A
// 1324         hdr.chk += *ptr;
        MOV       DPL,?V6
        MOV       DPH,?V7
        MOVX      A,@DPTR
        MOV       R0,A
        MOV       A,#0xd
        LCALL     ?XSTACK_DISP0_8
        MOVX      A,@DPTR
        ADD       A,R0
        MOVX      @DPTR,A
        INC       DPTR
        MOVX      A,@DPTR
        ADDC      A,#0x0
        MOVX      @DPTR,A
// 1325       }
// 1326       srcOff++;
??osal_nv_write_6:
        MOV       A,#0x5
        LCALL     ?XSTACK_DISP0_8
        MOVX      A,@DPTR
        ADD       A,#0x1
        MOVX      @DPTR,A
        INC       DPTR
        MOVX      A,@DPTR
        ADDC      A,#0x0
        MOVX      @DPTR,A
// 1327       ptr++;
        MOV       DPL,?V6
        MOV       DPH,?V7
        INC       DPTR
        MOV       ?V6,DPL
        MOV       ?V7,DPH
// 1328     }
??osal_nv_write_4:
        LCALL     ?Subroutine41 & 0xFFFF
??CrossCallReturnLabel_83:
        JNZ       ??osal_nv_write_5
// 1329 
// 1330     if ( chk != 0 )  // If the buffer to write is different in one or more bytes.
        MOV       A,?V0
        MOV       C,0xE0 /* A   */.0
        JC        $+5
        LJMP      ??CrossCallReturnLabel_56 & 0xFFFF
// 1331     {
// 1332       uint8 comPg = OSAL_NV_PAGE_NULL;
        MOV       DPL,?XSP + 0
        MOV       DPH,?XSP + 1
        CLR       A
        MOVX      @DPTR,A
// 1333       uint8 dstPg = initItem( FALSE, id, hdr.len, &comPg );
        ; Setup parameters for call to function initItem
        MOV       R0,?XSP + 0
        MOV       R1,?XSP + 1
        MOV       ?V0,R0
        MOV       ?V1,R1
        MOV       R0,#?V0
        LCALL     ?PUSH_XSTACK_I_TWO
          CFI CFA_XSP16 add(XSP16, 37)
        MOV       A,#0xd
        LCALL     ?XSTACK_DISP0_8
        LCALL     ?Subroutine25 & 0xFFFF
??CrossCallReturnLabel_53:
        MOV       A,#0x13
        LCALL     ?XSTACK_DISP0_8
        LCALL     ??Subroutine62_0 & 0xFFFF
??CrossCallReturnLabel_151:
        MOV       R1,#0x0
        LCALL     `??initItem::?relay`; Banked call to: initItem
        MOV       A,#0x2
        LCALL     ?DEALLOC_XSTACK8
          CFI CFA_XSP16 add(XSP16, 35)
        MOV       A,R1
        MOV       ?V6,A
// 1334 
// 1335       if ( dstPg != OSAL_NV_PAGE_NULL )
        JNZ       $+5
        LJMP      ??osal_nv_write_7 & 0xFFFF
// 1336       {
// 1337         uint16 tmp = OSAL_NV_DATA_SIZE( hdr.len );
        MOV       A,#0xb
        LCALL     ?XSTACK_DISP0_8
        LCALL     ?Subroutine22 & 0xFFFF
??CrossCallReturnLabel_45:
        CLR       C
        MOV       A,R0
        SUBB      A,#-0x4
        MOV       A,R1
        SUBB      A,#-0x1
        JC        ??osal_nv_write_8
        MOV       ?V0,#-0x4
        MOV       ?V1,#-0x1
        SJMP      ??osal_nv_write_9
??osal_nv_write_8:
        MOV       A,R0
        ADD       A,#0x3
        JNC       ??osal_nv_write_10
        INC       R1
??osal_nv_write_10:
        ANL       A,#0xfc
        MOV       ?V0,A
        MOV       A,R1
        MOV       ?V1,A
// 1338         uint16 dstOff = pgOff[dstPg-OSAL_NV_PAGE_BEG] - tmp;
??osal_nv_write_9:
        MOV       R0,?V6
        MOV       A,R0
        ADD       A,R0
        MOV       R0,A
        CLR       A
        RLC       A
        MOV       R1,A
        MOV       A,#(pgOff + 14) & 0xff
        ADD       A,R0
        MOV       R0,A
        MOV       A,#((pgOff - 242) >> 8) & 0xff
        ADDC      A,R1
        MOV       R1,A
        MOV       A,#0x5
        LCALL     ?XSTACK_DISP0_8
        LCALL     ?Subroutine9 & 0xFFFF
??CrossCallReturnLabel_12:
        MOV       A,#0x5
        LCALL     ?XSTACK_DISP0_8
        LCALL     ?Subroutine14 & 0xFFFF
// 1339         srcOff = origOff;
// 1340 
// 1341         /* Prevent excessive re-writes to item header caused by numerous, rapid, & successive
// 1342          * OSAL_Nv interruptions caused by resets.
// 1343          */
// 1344         if ( hdr.stat == OSAL_NV_ERASED_ID )
??CrossCallReturnLabel_22:
        MOV       A,#0xf
        LCALL     ?XSTACK_DISP0_8
        MOVX      A,@DPTR
        CPL       A
        JNZ       ??osal_nv_write_11
        INC       DPTR
        MOVX      A,@DPTR
        CPL       A
??osal_nv_write_11:
        JNZ       ??CrossCallReturnLabel_55
// 1345         {
// 1346           setItem( srcPg, srcOff, eNvXfer );
        ; Setup parameters for call to function setItem
        MOV       R4,#0x0
        MOV       A,#0x3
        LCALL     ?XSTACK_DISP0_8
        LCALL     ??Subroutine62_0 & 0xFFFF
// 1347         }
??CrossCallReturnLabel_152:
        MOV       A,#0x1
        LCALL     ?XSTACK_DISP0_8
        LCALL     ?Subroutine26 & 0xFFFF
// 1348 
// 1349         xferBuf( srcPg, srcOff, dstPg, dstOff, ndx );
??CrossCallReturnLabel_55:
        ; Setup parameters for call to function xferBuf
        MOV       A,#0x7
        LCALL     ?XSTACK_DISP0_8
        LCALL     ?PUSH_XSTACK8_X_TWO
          CFI CFA_XSP16 add(XSP16, 37)
        MOV       ?V4,R6
        MOV       ?V5,R7
        MOV       R0,#?V4
        LCALL     ?PUSH_XSTACK_I_TWO
          CFI CFA_XSP16 add(XSP16, 39)
        MOV       R4,?V6
        MOV       A,#0x7
        LCALL     ?XSTACK_DISP0_8
        LCALL     ??Subroutine62_0 & 0xFFFF
??CrossCallReturnLabel_153:
        MOV       A,#0x5
        LCALL     ?XSTACK_DISP0_8
        MOVX      A,@DPTR
        MOV       R1,A
        LCALL     `??xferBuf::?relay`; Banked call to: xferBuf
        MOV       A,#0x4
        LCALL     ?DEALLOC_XSTACK8
          CFI CFA_XSP16 add(XSP16, 35)
// 1350         srcOff += ndx;
// 1351         dstOff += ndx;
        MOV       A,#0x7
        LCALL     ?XSTACK_DISP0_8
        MOVX      A,@DPTR
        ADD       A,R6
        MOV       R6,A
        INC       DPTR
        MOVX      A,@DPTR
        ADDC      A,R7
        MOV       R7,A
// 1352 
// 1353         writeBuf( dstPg, dstOff, len, buf );
        ; Setup parameters for call to function writeBuf
        MOV       A,#0x25
        LCALL     ?XSTACK_DISP0_8
        LCALL     ?PUSH_XSTACK8_X_TWO
          CFI CFA_XSP16 add(XSP16, 37)
        MOV       A,#0x25
        LCALL     ?XSTACK_DISP0_8
        LCALL     ?Subroutine13 & 0xFFFF
??CrossCallReturnLabel_19:
        LCALL     `??writeBuf::?relay`; Banked call to: writeBuf
        MOV       A,#0x2
        LCALL     ?DEALLOC_XSTACK8
          CFI CFA_XSP16 add(XSP16, 35)
// 1354         srcOff += len;
// 1355         dstOff += len;
// 1356 
// 1357         xferBuf( srcPg, srcOff, dstPg, dstOff, (hdr.len-ndx-len) );
        ; Setup parameters for call to function xferBuf
        MOV       A,#0xb
        LCALL     ?XSTACK_DISP0_8
        PUSH      DPL
          CFI CFA_SP SP+-1
        PUSH      DPH
          CFI CFA_SP SP+-2
        MOV       A,#0x7
        LCALL     ?XSTACK_DISP0_8
        LCALL     ?Subroutine22 & 0xFFFF
??CrossCallReturnLabel_46:
        POP       DPH
          CFI CFA_SP SP+-1
        POP       DPL
          CFI CFA_SP SP+0
        MOVX      A,@DPTR
        CLR       C
        SUBB      A,R0
        MOV       R2,A
        INC       DPTR
        MOVX      A,@DPTR
        SUBB      A,R1
        MOV       R3,A
        MOV       A,#0x23
        LCALL     ?XSTACK_DISP0_8
        LCALL     ?Subroutine22 & 0xFFFF
??CrossCallReturnLabel_47:
        MOV       A,R2
        CLR       C
        SUBB      A,R0
        MOV       ?V4,A
        MOV       A,R3
        SUBB      A,R1
        MOV       ?V5,A
        MOV       R0,#?V4
        LCALL     ?PUSH_XSTACK_I_TWO
          CFI CFA_XSP16 add(XSP16, 37)
        MOV       A,#0x25
        LCALL     ?XSTACK_DISP0_8
        MOVX      A,@DPTR
        ADD       A,R6
        MOV       ?V4,A
        INC       DPTR
        MOVX      A,@DPTR
        ADDC      A,R7
        MOV       ?V5,A
        MOV       R0,#?V4
        LCALL     ?PUSH_XSTACK_I_TWO
          CFI CFA_XSP16 add(XSP16, 39)
        MOV       R4,?V6
        MOV       A,#0x27
        LCALL     ?XSTACK_DISP0_8
        MOVX      A,@DPTR
        ADD       A,?V2
        MOV       R2,A
        INC       DPTR
        MOVX      A,@DPTR
        ADDC      A,?V3
        MOV       R3,A
        MOV       A,#0x5
        LCALL     ?XSTACK_DISP0_8
        MOVX      A,@DPTR
        MOV       R1,A
        LCALL     `??xferBuf::?relay`; Banked call to: xferBuf
        MOV       A,#0x4
        LCALL     ?DEALLOC_XSTACK8
          CFI CFA_XSP16 add(XSP16, 35)
// 1358 
// 1359         // Calculate and write the new checksum.
// 1360         dstOff = pgOff[dstPg-OSAL_NV_PAGE_BEG] - tmp;
        MOV       A,#0x5
        LCALL     ?XSTACK_DISP0_8
        LCALL     ?Subroutine14 & 0xFFFF
// 1361 
// 1362         if ( hdr.chk == calcChkF( dstPg, dstOff, hdr.len ) )
??CrossCallReturnLabel_23:
        ; Setup parameters for call to function calcChkF
        MOV       A,#0xb
        LCALL     ?XSTACK_DISP0_8
        LCALL     ?Subroutine13 & 0xFFFF
??CrossCallReturnLabel_20:
        LCALL     `??calcChkF::?relay`; Banked call to: calcChkF
        MOV       A,#0xd
        LCALL     ?XSTACK_DISP0_8
        LCALL     ?Subroutine19 & 0xFFFF
??CrossCallReturnLabel_33:
        JNZ       ??osal_nv_write_12
        MOV       A,R3
        XRL       A,R5
??osal_nv_write_12:
        JNZ       ??osal_nv_write_7
// 1363         {
// 1364           if ( hdr.chk != setChk( dstPg, dstOff, hdr.chk ) )
        ; Setup parameters for call to function setChk
        MOV       A,R6
        MOV       R2,A
        MOV       A,R7
        MOV       R3,A
        LCALL     ?Subroutine40 & 0xFFFF
??CrossCallReturnLabel_80:
        MOV       A,#0xd
        LCALL     ?XSTACK_DISP0_8
        MOVX      A,@DPTR
        XRL       A,R0
        JNZ       ??osal_nv_write_13
        INC       DPTR
        MOVX      A,@DPTR
        XRL       A,R1
??osal_nv_write_13:
        JNZ       ??osal_nv_write_7
// 1365           {
// 1366             rtrn = NV_OPER_FAILED;
// 1367           }
// 1368           else
// 1369           {
// 1370             hotItemUpdate(dstPg, dstOff, hdr.id);
        ; Setup parameters for call to function hotItemUpdate
        MOV       A,#0x9
        LCALL     ?XSTACK_DISP0_8
        LCALL     ?Subroutine13 & 0xFFFF
// 1371           }
// 1372         }
// 1373         else
// 1374         {
// 1375           rtrn = NV_OPER_FAILED;
// 1376         }
// 1377       }
??CrossCallReturnLabel_21:
        LCALL     `??hotItemUpdate::?relay`; Banked call to: hotItemUpdate
        SJMP      ??osal_nv_write_14
// 1378       else
// 1379       {
// 1380         rtrn = NV_OPER_FAILED;
??osal_nv_write_7:
        MOV       A,#0x2
        LCALL     ?XSTACK_DISP0_8
        MOV       A,#0xa
        MOVX      @DPTR,A
// 1381       }
// 1382 
// 1383       if ( comPg != OSAL_NV_PAGE_NULL )
??osal_nv_write_14:
        MOV       DPL,?XSP + 0
        MOV       DPH,?XSP + 1
        MOVX      A,@DPTR
        JZ        ??osal_nv_write_15
// 1384       {
// 1385         /* Even though the page compaction succeeded, if the new item is coming from the compacted
// 1386          * page and writing the new value failed, then the compaction must be aborted.
// 1387          */
// 1388         if ( (srcPg == comPg) && (rtrn == NV_OPER_FAILED) )
        MOV       A,#0x1
        LCALL     ?XSTACK_DISP0_8
        LCALL     ?Subroutine24 & 0xFFFF
??CrossCallReturnLabel_48:
        JNZ       ??osal_nv_write_16
        MOV       A,#0x2
        LCALL     ?XSTACK_DISP0_8
        MOVX      A,@DPTR
        XRL       A,#0xa
        JNZ       ??osal_nv_write_16
// 1389         {
// 1390           erasePage( pgRes );
        ; Setup parameters for call to function erasePage
        LCALL     ?Subroutine23 & 0xFFFF
// 1391         }
??CrossCallReturnLabel_101:
        SJMP      ??CrossCallReturnLabel_56
// 1392         else
// 1393         {
// 1394           COMPACT_PAGE_CLEANUP( comPg );
??osal_nv_write_16:
        ; Setup parameters for call to function setPageUse
        LCALL     ?Subroutine27 & 0xFFFF
??CrossCallReturnLabel_59:
        ; Setup parameters for call to function erasePage
        MOV       DPL,?XSP + 0
        MOV       DPH,?XSP + 1
        LCALL     ??Subroutine53_0 & 0xFFFF
??CrossCallReturnLabel_102:
        MOV       DPL,?XSP + 0
        MOV       DPH,?XSP + 1
        MOVX      A,@DPTR
        MOV       DPTR,#pgRes
        MOVX      @DPTR,A
// 1395         }
// 1396       }
// 1397 
// 1398       /* Zero of the old item must wait until after compact page cleanup has finished - if the item
// 1399        * is zeroed before and cleanup is interrupted by a power-cycle, the new item can be lost.
// 1400        */
// 1401       if ( (srcPg != comPg) && (rtrn != NV_OPER_FAILED) )
??osal_nv_write_15:
        MOV       A,#0x1
        LCALL     ?XSTACK_DISP0_8
        LCALL     ?Subroutine24 & 0xFFFF
??CrossCallReturnLabel_49:
        JZ        ??CrossCallReturnLabel_56
        MOV       A,#0x2
        LCALL     ?XSTACK_DISP0_8
        MOVX      A,@DPTR
        XRL       A,#0xa
        JZ        ??CrossCallReturnLabel_56
// 1402       {
// 1403         setItem( srcPg, origOff, eNvZero );
        ; Setup parameters for call to function setItem
        MOV       R4,#0x1
        MOV       A,#0x3
        LCALL     ?XSTACK_DISP0_8
        LCALL     ??Subroutine62_0 & 0xFFFF
// 1404       }
// 1405     }
// 1406   }
??CrossCallReturnLabel_154:
        MOV       A,R4
        LCALL     ?XSTACK_DISP0_8
        LCALL     ?Subroutine26 & 0xFFFF
// 1407 
// 1408   return rtrn;
??CrossCallReturnLabel_56:
        MOV       A,#0x2
        LCALL     ?XSTACK_DISP0_8
        MOVX      A,@DPTR
        MOV       R1,A
??osal_nv_write_2:
        MOV       A,#0x13
        LJMP      ??Subroutine59_0 & 0xFFFF
// 1409 }
          CFI EndBlock cfiBlock280

        RSEG BANKED_CODE:HUGECODE:NOROOT(0)
?Subroutine40:
          CFI Block cfiCond281 Using cfiCommon0
          CFI Function writeItem
          CFI Conditional ??CrossCallReturnLabel_79
          CFI R6 load(1, XDATA, add(CFA_XSP16, literal(-16)))
          CFI VB load(1, XDATA, add(CFA_XSP16, literal(-15)))
          CFI V0 load(1, XDATA, add(CFA_XSP16, literal(-14)))
          CFI V1 load(1, XDATA, add(CFA_XSP16, literal(-13)))
          CFI V2 load(1, XDATA, add(CFA_XSP16, literal(-12)))
          CFI V3 load(1, XDATA, add(CFA_XSP16, literal(-11)))
          CFI V4 load(1, XDATA, add(CFA_XSP16, literal(-10)))
          CFI V5 load(1, XDATA, add(CFA_XSP16, literal(-9)))
          CFI V6 load(1, XDATA, add(CFA_XSP16, literal(-8)))
          CFI V7 load(1, XDATA, add(CFA_XSP16, literal(-7)))
          CFI R7 load(1, XDATA, add(CFA_XSP16, literal(-6)))
          CFI ?RET_LOW load(1, XDATA, add(CFA_XSP16, literal(-5)))
          CFI ?RET_HIGH load(1, XDATA, add(CFA_XSP16, literal(-4)))
          CFI ?BRET_EXT load(1, XDATA, add(CFA_XSP16, literal(-3)))
          CFI DPL0 load(1, XDATA, add(CFA_XSP16, literal(-2)))
          CFI DPH0 load(1, XDATA, add(CFA_XSP16, literal(-1)))
          CFI CFA_SP SP+-2
          CFI CFA_XSP16 add(XSP16, 28)
          CFI Block cfiCond282 Using cfiCommon0
          CFI (cfiCond282) Function osal_nv_write
          CFI (cfiCond282) Conditional ??CrossCallReturnLabel_80
          CFI (cfiCond282) R6 load(1, XDATA, add(CFA_XSP16, literal(-16)))
          CFI (cfiCond282) VB load(1, XDATA, add(CFA_XSP16, literal(-15)))
          CFI (cfiCond282) V0 load(1, XDATA, add(CFA_XSP16, literal(-14)))
          CFI (cfiCond282) V1 load(1, XDATA, add(CFA_XSP16, literal(-13)))
          CFI (cfiCond282) V2 load(1, XDATA, add(CFA_XSP16, literal(-12)))
          CFI (cfiCond282) V3 load(1, XDATA, add(CFA_XSP16, literal(-11)))
          CFI (cfiCond282) V4 load(1, XDATA, add(CFA_XSP16, literal(-10)))
          CFI (cfiCond282) V5 load(1, XDATA, add(CFA_XSP16, literal(-9)))
          CFI (cfiCond282) V6 load(1, XDATA, add(CFA_XSP16, literal(-8)))
          CFI (cfiCond282) V7 load(1, XDATA, add(CFA_XSP16, literal(-7)))
          CFI (cfiCond282) R7 load(1, XDATA, add(CFA_XSP16, literal(-6)))
          CFI (cfiCond282) ?RET_LOW load(1, XDATA, add(CFA_XSP16, literal(-5)))
          CFI (cfiCond282) ?RET_HIGH load(1, XDATA, add(CFA_XSP16, literal(-4)))
          CFI (cfiCond282) ?BRET_EXT load(1, XDATA, add(CFA_XSP16, literal(-3)))
          CFI (cfiCond282) DPL0 load(1, XDATA, add(CFA_XSP16, literal(-2)))
          CFI (cfiCond282) DPH0 load(1, XDATA, add(CFA_XSP16, literal(-1)))
          CFI (cfiCond282) CFA_SP SP+-2
          CFI (cfiCond282) CFA_XSP16 add(XSP16, 35)
          CFI Block cfiPicker283 Using cfiCommon1
          CFI (cfiPicker283) NoFunction
          CFI (cfiPicker283) Picker
        MOV       R1,?V6
        LCALL     `??setChk::?relay`; Banked call to: setChk
        MOV       ?V0,R2
        MOV       ?V1,R3
        MOV       R0,?V0
        MOV       R1,?V1
        RET
          CFI EndBlock cfiCond281
          CFI EndBlock cfiCond282
          CFI EndBlock cfiPicker283

        RSEG BANKED_CODE:HUGECODE:NOROOT(0)
?Subroutine26:
          CFI Block cfiCond284 Using cfiCommon0
          CFI Function initPage
          CFI Conditional ??CrossCallReturnLabel_54
          CFI R6 load(1, XDATA, add(CFA_XSP16, literal(-16)))
          CFI VB load(1, XDATA, add(CFA_XSP16, literal(-15)))
          CFI V0 load(1, XDATA, add(CFA_XSP16, literal(-14)))
          CFI V1 load(1, XDATA, add(CFA_XSP16, literal(-13)))
          CFI V2 load(1, XDATA, add(CFA_XSP16, literal(-12)))
          CFI V3 load(1, XDATA, add(CFA_XSP16, literal(-11)))
          CFI V4 load(1, XDATA, add(CFA_XSP16, literal(-10)))
          CFI V5 load(1, XDATA, add(CFA_XSP16, literal(-9)))
          CFI V6 load(1, XDATA, add(CFA_XSP16, literal(-8)))
          CFI V7 load(1, XDATA, add(CFA_XSP16, literal(-7)))
          CFI R7 load(1, XDATA, add(CFA_XSP16, literal(-6)))
          CFI ?RET_LOW load(1, XDATA, add(CFA_XSP16, literal(-5)))
          CFI ?RET_HIGH load(1, XDATA, add(CFA_XSP16, literal(-4)))
          CFI ?BRET_EXT load(1, XDATA, add(CFA_XSP16, literal(-3)))
          CFI DPL0 load(1, XDATA, add(CFA_XSP16, literal(-2)))
          CFI DPH0 load(1, XDATA, add(CFA_XSP16, literal(-1)))
          CFI CFA_SP SP+-2
          CFI CFA_XSP16 add(XSP16, 26)
          CFI Block cfiCond285 Using cfiCommon0
          CFI (cfiCond285) Function osal_nv_write
          CFI (cfiCond285) Conditional ??CrossCallReturnLabel_55
          CFI (cfiCond285) R6 load(1, XDATA, add(CFA_XSP16, literal(-16)))
          CFI (cfiCond285) VB load(1, XDATA, add(CFA_XSP16, literal(-15)))
          CFI (cfiCond285) V0 load(1, XDATA, add(CFA_XSP16, literal(-14)))
          CFI (cfiCond285) V1 load(1, XDATA, add(CFA_XSP16, literal(-13)))
          CFI (cfiCond285) V2 load(1, XDATA, add(CFA_XSP16, literal(-12)))
          CFI (cfiCond285) V3 load(1, XDATA, add(CFA_XSP16, literal(-11)))
          CFI (cfiCond285) V4 load(1, XDATA, add(CFA_XSP16, literal(-10)))
          CFI (cfiCond285) V5 load(1, XDATA, add(CFA_XSP16, literal(-9)))
          CFI (cfiCond285) V6 load(1, XDATA, add(CFA_XSP16, literal(-8)))
          CFI (cfiCond285) V7 load(1, XDATA, add(CFA_XSP16, literal(-7)))
          CFI (cfiCond285) R7 load(1, XDATA, add(CFA_XSP16, literal(-6)))
          CFI (cfiCond285) ?RET_LOW load(1, XDATA, add(CFA_XSP16, literal(-5)))
          CFI (cfiCond285) ?RET_HIGH load(1, XDATA, add(CFA_XSP16, literal(-4)))
          CFI (cfiCond285) ?BRET_EXT load(1, XDATA, add(CFA_XSP16, literal(-3)))
          CFI (cfiCond285) DPL0 load(1, XDATA, add(CFA_XSP16, literal(-2)))
          CFI (cfiCond285) DPH0 load(1, XDATA, add(CFA_XSP16, literal(-1)))
          CFI (cfiCond285) CFA_SP SP+-2
          CFI (cfiCond285) CFA_XSP16 add(XSP16, 35)
          CFI Block cfiCond286 Using cfiCommon0
          CFI (cfiCond286) Function osal_nv_write
          CFI (cfiCond286) Conditional ??CrossCallReturnLabel_56
          CFI (cfiCond286) R6 load(1, XDATA, add(CFA_XSP16, literal(-16)))
          CFI (cfiCond286) VB load(1, XDATA, add(CFA_XSP16, literal(-15)))
          CFI (cfiCond286) V0 load(1, XDATA, add(CFA_XSP16, literal(-14)))
          CFI (cfiCond286) V1 load(1, XDATA, add(CFA_XSP16, literal(-13)))
          CFI (cfiCond286) V2 load(1, XDATA, add(CFA_XSP16, literal(-12)))
          CFI (cfiCond286) V3 load(1, XDATA, add(CFA_XSP16, literal(-11)))
          CFI (cfiCond286) V4 load(1, XDATA, add(CFA_XSP16, literal(-10)))
          CFI (cfiCond286) V5 load(1, XDATA, add(CFA_XSP16, literal(-9)))
          CFI (cfiCond286) V6 load(1, XDATA, add(CFA_XSP16, literal(-8)))
          CFI (cfiCond286) V7 load(1, XDATA, add(CFA_XSP16, literal(-7)))
          CFI (cfiCond286) R7 load(1, XDATA, add(CFA_XSP16, literal(-6)))
          CFI (cfiCond286) ?RET_LOW load(1, XDATA, add(CFA_XSP16, literal(-5)))
          CFI (cfiCond286) ?RET_HIGH load(1, XDATA, add(CFA_XSP16, literal(-4)))
          CFI (cfiCond286) ?BRET_EXT load(1, XDATA, add(CFA_XSP16, literal(-3)))
          CFI (cfiCond286) DPL0 load(1, XDATA, add(CFA_XSP16, literal(-2)))
          CFI (cfiCond286) DPH0 load(1, XDATA, add(CFA_XSP16, literal(-1)))
          CFI (cfiCond286) CFA_SP SP+-2
          CFI (cfiCond286) CFA_XSP16 add(XSP16, 35)
          CFI Block cfiPicker287 Using cfiCommon1
          CFI (cfiPicker287) NoFunction
          CFI (cfiPicker287) Picker
        MOVX      A,@DPTR
        MOV       R1,A
        LCALL     `??setItem::?relay`; Banked call to: setItem
        RET
          CFI EndBlock cfiCond284
          CFI EndBlock cfiCond285
          CFI EndBlock cfiCond286
          CFI EndBlock cfiPicker287

        RSEG BANKED_CODE:HUGECODE:NOROOT(0)
?Subroutine24:
          CFI Block cfiCond288 Using cfiCommon0
          CFI Function osal_nv_write
          CFI Conditional ??CrossCallReturnLabel_48
          CFI R6 load(1, XDATA, add(CFA_XSP16, literal(-16)))
          CFI VB load(1, XDATA, add(CFA_XSP16, literal(-15)))
          CFI V0 load(1, XDATA, add(CFA_XSP16, literal(-14)))
          CFI V1 load(1, XDATA, add(CFA_XSP16, literal(-13)))
          CFI V2 load(1, XDATA, add(CFA_XSP16, literal(-12)))
          CFI V3 load(1, XDATA, add(CFA_XSP16, literal(-11)))
          CFI V4 load(1, XDATA, add(CFA_XSP16, literal(-10)))
          CFI V5 load(1, XDATA, add(CFA_XSP16, literal(-9)))
          CFI V6 load(1, XDATA, add(CFA_XSP16, literal(-8)))
          CFI V7 load(1, XDATA, add(CFA_XSP16, literal(-7)))
          CFI R7 load(1, XDATA, add(CFA_XSP16, literal(-6)))
          CFI ?RET_LOW load(1, XDATA, add(CFA_XSP16, literal(-5)))
          CFI ?RET_HIGH load(1, XDATA, add(CFA_XSP16, literal(-4)))
          CFI ?BRET_EXT load(1, XDATA, add(CFA_XSP16, literal(-3)))
          CFI DPL0 load(1, XDATA, add(CFA_XSP16, literal(-2)))
          CFI DPH0 load(1, XDATA, add(CFA_XSP16, literal(-1)))
          CFI CFA_SP SP+-2
          CFI CFA_XSP16 add(XSP16, 35)
          CFI Block cfiCond289 Using cfiCommon0
          CFI (cfiCond289) Function osal_nv_write
          CFI (cfiCond289) Conditional ??CrossCallReturnLabel_49
          CFI (cfiCond289) R6 load(1, XDATA, add(CFA_XSP16, literal(-16)))
          CFI (cfiCond289) VB load(1, XDATA, add(CFA_XSP16, literal(-15)))
          CFI (cfiCond289) V0 load(1, XDATA, add(CFA_XSP16, literal(-14)))
          CFI (cfiCond289) V1 load(1, XDATA, add(CFA_XSP16, literal(-13)))
          CFI (cfiCond289) V2 load(1, XDATA, add(CFA_XSP16, literal(-12)))
          CFI (cfiCond289) V3 load(1, XDATA, add(CFA_XSP16, literal(-11)))
          CFI (cfiCond289) V4 load(1, XDATA, add(CFA_XSP16, literal(-10)))
          CFI (cfiCond289) V5 load(1, XDATA, add(CFA_XSP16, literal(-9)))
          CFI (cfiCond289) V6 load(1, XDATA, add(CFA_XSP16, literal(-8)))
          CFI (cfiCond289) V7 load(1, XDATA, add(CFA_XSP16, literal(-7)))
          CFI (cfiCond289) R7 load(1, XDATA, add(CFA_XSP16, literal(-6)))
          CFI (cfiCond289) ?RET_LOW load(1, XDATA, add(CFA_XSP16, literal(-5)))
          CFI (cfiCond289) ?RET_HIGH load(1, XDATA, add(CFA_XSP16, literal(-4)))
          CFI (cfiCond289) ?BRET_EXT load(1, XDATA, add(CFA_XSP16, literal(-3)))
          CFI (cfiCond289) DPL0 load(1, XDATA, add(CFA_XSP16, literal(-2)))
          CFI (cfiCond289) DPH0 load(1, XDATA, add(CFA_XSP16, literal(-1)))
          CFI (cfiCond289) CFA_SP SP+-2
          CFI (cfiCond289) CFA_XSP16 add(XSP16, 35)
          CFI Block cfiPicker290 Using cfiCommon1
          CFI (cfiPicker290) NoFunction
          CFI (cfiPicker290) Picker
        MOVX      A,@DPTR
        MOV       R0,A
        MOV       DPL,?XSP + 0
        MOV       DPH,?XSP + 1
        MOVX      A,@DPTR
        XRL       A,R0
        RET
          CFI EndBlock cfiCond288
          CFI EndBlock cfiCond289
          CFI EndBlock cfiPicker290

        RSEG BANKED_CODE:HUGECODE:NOROOT(0)
?Subroutine14:
          CFI Block cfiCond291 Using cfiCommon0
          CFI Function osal_nv_write
          CFI Conditional ??CrossCallReturnLabel_22
          CFI R6 load(1, XDATA, add(CFA_XSP16, literal(-16)))
          CFI VB load(1, XDATA, add(CFA_XSP16, literal(-15)))
          CFI V0 load(1, XDATA, add(CFA_XSP16, literal(-14)))
          CFI V1 load(1, XDATA, add(CFA_XSP16, literal(-13)))
          CFI V2 load(1, XDATA, add(CFA_XSP16, literal(-12)))
          CFI V3 load(1, XDATA, add(CFA_XSP16, literal(-11)))
          CFI V4 load(1, XDATA, add(CFA_XSP16, literal(-10)))
          CFI V5 load(1, XDATA, add(CFA_XSP16, literal(-9)))
          CFI V6 load(1, XDATA, add(CFA_XSP16, literal(-8)))
          CFI V7 load(1, XDATA, add(CFA_XSP16, literal(-7)))
          CFI R7 load(1, XDATA, add(CFA_XSP16, literal(-6)))
          CFI ?RET_LOW load(1, XDATA, add(CFA_XSP16, literal(-5)))
          CFI ?RET_HIGH load(1, XDATA, add(CFA_XSP16, literal(-4)))
          CFI ?BRET_EXT load(1, XDATA, add(CFA_XSP16, literal(-3)))
          CFI DPL0 load(1, XDATA, add(CFA_XSP16, literal(-2)))
          CFI DPH0 load(1, XDATA, add(CFA_XSP16, literal(-1)))
          CFI CFA_SP SP+-2
          CFI CFA_XSP16 add(XSP16, 35)
          CFI Block cfiCond292 Using cfiCommon0
          CFI (cfiCond292) Function osal_nv_write
          CFI (cfiCond292) Conditional ??CrossCallReturnLabel_23
          CFI (cfiCond292) R6 load(1, XDATA, add(CFA_XSP16, literal(-16)))
          CFI (cfiCond292) VB load(1, XDATA, add(CFA_XSP16, literal(-15)))
          CFI (cfiCond292) V0 load(1, XDATA, add(CFA_XSP16, literal(-14)))
          CFI (cfiCond292) V1 load(1, XDATA, add(CFA_XSP16, literal(-13)))
          CFI (cfiCond292) V2 load(1, XDATA, add(CFA_XSP16, literal(-12)))
          CFI (cfiCond292) V3 load(1, XDATA, add(CFA_XSP16, literal(-11)))
          CFI (cfiCond292) V4 load(1, XDATA, add(CFA_XSP16, literal(-10)))
          CFI (cfiCond292) V5 load(1, XDATA, add(CFA_XSP16, literal(-9)))
          CFI (cfiCond292) V6 load(1, XDATA, add(CFA_XSP16, literal(-8)))
          CFI (cfiCond292) V7 load(1, XDATA, add(CFA_XSP16, literal(-7)))
          CFI (cfiCond292) R7 load(1, XDATA, add(CFA_XSP16, literal(-6)))
          CFI (cfiCond292) ?RET_LOW load(1, XDATA, add(CFA_XSP16, literal(-5)))
          CFI (cfiCond292) ?RET_HIGH load(1, XDATA, add(CFA_XSP16, literal(-4)))
          CFI (cfiCond292) ?BRET_EXT load(1, XDATA, add(CFA_XSP16, literal(-3)))
          CFI (cfiCond292) DPL0 load(1, XDATA, add(CFA_XSP16, literal(-2)))
          CFI (cfiCond292) DPH0 load(1, XDATA, add(CFA_XSP16, literal(-1)))
          CFI (cfiCond292) CFA_SP SP+-2
          CFI (cfiCond292) CFA_XSP16 add(XSP16, 35)
          CFI Block cfiPicker293 Using cfiCommon1
          CFI (cfiPicker293) NoFunction
          CFI (cfiPicker293) Picker
        LCALL     ?Subroutine45 & 0xFFFF
??CrossCallReturnLabel_139:
        CLR       C
        SUBB      A,?V0
        MOV       R6,A
        INC       DPTR
        MOVX      A,@DPTR
        SUBB      A,?V1
        MOV       R7,A
        RET
          CFI EndBlock cfiCond291
          CFI EndBlock cfiCond292
          CFI EndBlock cfiPicker293

        RSEG BANKED_CODE:HUGECODE:NOROOT(0)
?Subroutine13:
          CFI Block cfiCond294 Using cfiCommon0
          CFI Function osal_nv_write
          CFI Conditional ??CrossCallReturnLabel_19
          CFI R6 load(1, XDATA, add(CFA_XSP16, literal(-16)))
          CFI VB load(1, XDATA, add(CFA_XSP16, literal(-15)))
          CFI V0 load(1, XDATA, add(CFA_XSP16, literal(-14)))
          CFI V1 load(1, XDATA, add(CFA_XSP16, literal(-13)))
          CFI V2 load(1, XDATA, add(CFA_XSP16, literal(-12)))
          CFI V3 load(1, XDATA, add(CFA_XSP16, literal(-11)))
          CFI V4 load(1, XDATA, add(CFA_XSP16, literal(-10)))
          CFI V5 load(1, XDATA, add(CFA_XSP16, literal(-9)))
          CFI V6 load(1, XDATA, add(CFA_XSP16, literal(-8)))
          CFI V7 load(1, XDATA, add(CFA_XSP16, literal(-7)))
          CFI R7 load(1, XDATA, add(CFA_XSP16, literal(-6)))
          CFI ?RET_LOW load(1, XDATA, add(CFA_XSP16, literal(-5)))
          CFI ?RET_HIGH load(1, XDATA, add(CFA_XSP16, literal(-4)))
          CFI ?BRET_EXT load(1, XDATA, add(CFA_XSP16, literal(-3)))
          CFI DPL0 load(1, XDATA, add(CFA_XSP16, literal(-2)))
          CFI DPH0 load(1, XDATA, add(CFA_XSP16, literal(-1)))
          CFI CFA_SP SP+-2
          CFI CFA_XSP16 add(XSP16, 37)
          CFI Block cfiCond295 Using cfiCommon0
          CFI (cfiCond295) Function osal_nv_write
          CFI (cfiCond295) Conditional ??CrossCallReturnLabel_20
          CFI (cfiCond295) R6 load(1, XDATA, add(CFA_XSP16, literal(-16)))
          CFI (cfiCond295) VB load(1, XDATA, add(CFA_XSP16, literal(-15)))
          CFI (cfiCond295) V0 load(1, XDATA, add(CFA_XSP16, literal(-14)))
          CFI (cfiCond295) V1 load(1, XDATA, add(CFA_XSP16, literal(-13)))
          CFI (cfiCond295) V2 load(1, XDATA, add(CFA_XSP16, literal(-12)))
          CFI (cfiCond295) V3 load(1, XDATA, add(CFA_XSP16, literal(-11)))
          CFI (cfiCond295) V4 load(1, XDATA, add(CFA_XSP16, literal(-10)))
          CFI (cfiCond295) V5 load(1, XDATA, add(CFA_XSP16, literal(-9)))
          CFI (cfiCond295) V6 load(1, XDATA, add(CFA_XSP16, literal(-8)))
          CFI (cfiCond295) V7 load(1, XDATA, add(CFA_XSP16, literal(-7)))
          CFI (cfiCond295) R7 load(1, XDATA, add(CFA_XSP16, literal(-6)))
          CFI (cfiCond295) ?RET_LOW load(1, XDATA, add(CFA_XSP16, literal(-5)))
          CFI (cfiCond295) ?RET_HIGH load(1, XDATA, add(CFA_XSP16, literal(-4)))
          CFI (cfiCond295) ?BRET_EXT load(1, XDATA, add(CFA_XSP16, literal(-3)))
          CFI (cfiCond295) DPL0 load(1, XDATA, add(CFA_XSP16, literal(-2)))
          CFI (cfiCond295) DPH0 load(1, XDATA, add(CFA_XSP16, literal(-1)))
          CFI (cfiCond295) CFA_SP SP+-2
          CFI (cfiCond295) CFA_XSP16 add(XSP16, 35)
          CFI Block cfiCond296 Using cfiCommon0
          CFI (cfiCond296) Function osal_nv_write
          CFI (cfiCond296) Conditional ??CrossCallReturnLabel_21
          CFI (cfiCond296) R6 load(1, XDATA, add(CFA_XSP16, literal(-16)))
          CFI (cfiCond296) VB load(1, XDATA, add(CFA_XSP16, literal(-15)))
          CFI (cfiCond296) V0 load(1, XDATA, add(CFA_XSP16, literal(-14)))
          CFI (cfiCond296) V1 load(1, XDATA, add(CFA_XSP16, literal(-13)))
          CFI (cfiCond296) V2 load(1, XDATA, add(CFA_XSP16, literal(-12)))
          CFI (cfiCond296) V3 load(1, XDATA, add(CFA_XSP16, literal(-11)))
          CFI (cfiCond296) V4 load(1, XDATA, add(CFA_XSP16, literal(-10)))
          CFI (cfiCond296) V5 load(1, XDATA, add(CFA_XSP16, literal(-9)))
          CFI (cfiCond296) V6 load(1, XDATA, add(CFA_XSP16, literal(-8)))
          CFI (cfiCond296) V7 load(1, XDATA, add(CFA_XSP16, literal(-7)))
          CFI (cfiCond296) R7 load(1, XDATA, add(CFA_XSP16, literal(-6)))
          CFI (cfiCond296) ?RET_LOW load(1, XDATA, add(CFA_XSP16, literal(-5)))
          CFI (cfiCond296) ?RET_HIGH load(1, XDATA, add(CFA_XSP16, literal(-4)))
          CFI (cfiCond296) ?BRET_EXT load(1, XDATA, add(CFA_XSP16, literal(-3)))
          CFI (cfiCond296) DPL0 load(1, XDATA, add(CFA_XSP16, literal(-2)))
          CFI (cfiCond296) DPH0 load(1, XDATA, add(CFA_XSP16, literal(-1)))
          CFI (cfiCond296) CFA_SP SP+-2
          CFI (cfiCond296) CFA_XSP16 add(XSP16, 35)
          CFI Block cfiPicker297 Using cfiCommon1
          CFI (cfiPicker297) NoFunction
          CFI (cfiPicker297) Picker
        LCALL     ?Subroutine44 & 0xFFFF
??CrossCallReturnLabel_88:
        MOV       A,R6
        MOV       R2,A
        MOV       A,R7
        MOV       R3,A
        MOV       R1,?V6
        RET
          CFI EndBlock cfiCond294
          CFI EndBlock cfiCond295
          CFI EndBlock cfiCond296
          CFI EndBlock cfiPicker297
// 1410 
// 1411 /*********************************************************************
// 1412  * @fn      osal_nv_read
// 1413  *
// 1414  * @brief   Read data from NV. This function can be used to read an entire item from NV or
// 1415  *          an element of an item by indexing into the item with an offset.
// 1416  *          Read data is copied into *buf.
// 1417  *
// 1418  * @param   id  - Valid NV item Id.
// 1419  * @param   ndx - Index offset into item
// 1420  * @param   len - Length of data to read.
// 1421  * @param  *buf - Data is read into this buffer.
// 1422  *
// 1423  * @return  SUCCESS if NV data was copied to the parameter 'buf'.
// 1424  *          Otherwise, NV_OPER_FAILED for failure.
// 1425  */

        RSEG BANKED_CODE:HUGECODE:NOROOT(0)
// 1426 uint8 osal_nv_read( uint16 id, uint16 ndx, uint16 len, void *buf )
osal_nv_read:
          CFI Block cfiBlock298 Using cfiCommon0
          CFI Function osal_nv_read
        CODE
// 1427 {
        FUNCALL osal_nv_read, hotItem
        LOCFRAME ISTACK, 0, STACK
        LOCFRAME PSTACK, 0, STACK
        LOCFRAME XSTACK, 16, STACK
        LOCFRAME IOVERLAY, 0, STATIC
        LOCFRAME DOVERLAY, 0, STATIC
        ARGFRAME ISTACK, 0, STACK
        ARGFRAME PSTACK, 0, STACK
        ARGFRAME XSTACK, 16, STACK
        ARGFRAME IOVERLAY, 0, STATIC
        ARGFRAME DOVERLAY, 0, STATIC
        FUNCALL osal_nv_read, HalFlashRead
        LOCFRAME ISTACK, 0, STACK
        LOCFRAME PSTACK, 0, STACK
        LOCFRAME XSTACK, 18, STACK
        LOCFRAME IOVERLAY, 0, STATIC
        LOCFRAME DOVERLAY, 0, STATIC
        ARGFRAME ISTACK, 0, STACK
        ARGFRAME PSTACK, 0, STACK
        ARGFRAME XSTACK, 18, STACK
        ARGFRAME IOVERLAY, 0, STATIC
        ARGFRAME DOVERLAY, 0, STATIC
        FUNCALL osal_nv_read, findItem
        LOCFRAME ISTACK, 0, STACK
        LOCFRAME PSTACK, 0, STACK
        LOCFRAME XSTACK, 16, STACK
        LOCFRAME IOVERLAY, 0, STATIC
        LOCFRAME DOVERLAY, 0, STATIC
        ARGFRAME ISTACK, 0, STACK
        ARGFRAME PSTACK, 0, STACK
        ARGFRAME XSTACK, 16, STACK
        ARGFRAME IOVERLAY, 0, STATIC
        ARGFRAME DOVERLAY, 0, STATIC
        FUNCALL osal_nv_read, HalFlashRead
        LOCFRAME ISTACK, 0, STACK
        LOCFRAME PSTACK, 0, STACK
        LOCFRAME XSTACK, 18, STACK
        LOCFRAME IOVERLAY, 0, STATIC
        LOCFRAME DOVERLAY, 0, STATIC
        ARGFRAME ISTACK, 0, STACK
        ARGFRAME PSTACK, 0, STACK
        ARGFRAME XSTACK, 18, STACK
        ARGFRAME IOVERLAY, 0, STATIC
        ARGFRAME DOVERLAY, 0, STATIC
        REQUIRE ?V0
        REQUIRE ?V1
        REQUIRE ?V2
        REQUIRE ?V3
        REQUIRE ?V4
        REQUIRE ?V5
        REQUIRE ?V6
        REQUIRE ?V7
        MOV       A,#-0x10
        LCALL     ?BANKED_ENTER_XDATA
          CFI DPH0 load(1, XDATA, add(CFA_XSP16, literal(-1)))
          CFI DPL0 load(1, XDATA, add(CFA_XSP16, literal(-2)))
          CFI ?BRET_EXT load(1, XDATA, add(CFA_XSP16, literal(-3)))
          CFI ?RET_HIGH load(1, XDATA, add(CFA_XSP16, literal(-4)))
          CFI ?RET_LOW load(1, XDATA, add(CFA_XSP16, literal(-5)))
          CFI R7 load(1, XDATA, add(CFA_XSP16, literal(-6)))
          CFI V7 load(1, XDATA, add(CFA_XSP16, literal(-7)))
          CFI V6 load(1, XDATA, add(CFA_XSP16, literal(-8)))
          CFI V5 load(1, XDATA, add(CFA_XSP16, literal(-9)))
          CFI V4 load(1, XDATA, add(CFA_XSP16, literal(-10)))
          CFI V3 load(1, XDATA, add(CFA_XSP16, literal(-11)))
          CFI V2 load(1, XDATA, add(CFA_XSP16, literal(-12)))
          CFI V1 load(1, XDATA, add(CFA_XSP16, literal(-13)))
          CFI V0 load(1, XDATA, add(CFA_XSP16, literal(-14)))
          CFI VB load(1, XDATA, add(CFA_XSP16, literal(-15)))
          CFI R6 load(1, XDATA, add(CFA_XSP16, literal(-16)))
          CFI CFA_SP SP+0
          CFI CFA_XSP16 add(XSP16, 16)
        ; Saved register size: 16
        ; Auto size: 0
        MOV       ?V0,R2
        MOV       ?V1,R3
        MOV       ?V4,R4
        MOV       ?V5,R5
// 1428   uint16 offset;
// 1429   uint8 hotIdx;
// 1430 
// 1431   if ((hotIdx = hotItem(id)) < OSAL_NV_MAX_HOT)
        ; Setup parameters for call to function hotItem
        LCALL     `??hotItem::?relay`; Banked call to: hotItem
        MOV       A,R1
        MOV       R0,A
        MOV       A,#0x10
        LCALL     ?XSTACK_DISP0_8
        MOVX      A,@DPTR
        MOV       R6,A
        INC       DPTR
        MOVX      A,@DPTR
        MOV       R7,A
        MOV       A,#0x12
        LCALL     ?XSTACK_DISP0_8
        MOVX      A,@DPTR
        MOV       ?V2,A
        INC       DPTR
        MOVX      A,@DPTR
        MOV       ?V3,A
        MOV       A,R1
        CLR       C
        SUBB      A,#0x3
        JNC       ??osal_nv_read_0
// 1432   {
// 1433     HalFlashRead(hotPg[hotIdx], hotOff[hotIdx]+ndx, buf, len);
        MOV       A,R1
        MOV       ?V0,A
        ; Setup parameters for call to function HalFlashRead
        MOV       ?V6,R6
        MOV       ?V7,R7
        MOV       R0,#?V6
        LCALL     ?PUSH_XSTACK_I_TWO
          CFI CFA_XSP16 add(XSP16, 18)
        MOV       R4,?V2
        MOV       R5,?V3
        LCALL     ?Subroutine46 & 0xFFFF
// 1434     return SUCCESS;
// 1435   }
??CrossCallReturnLabel_93:
        MOVX      A,@DPTR
        ADD       A,?V4
        MOV       R2,A
        INC       DPTR
        MOVX      A,@DPTR
        ADDC      A,?V5
        MOV       R3,A
        MOV       A,#hotPg & 0xff
        ADD       A,?V0
        MOV       DPL,A
        CLR       A
        ADDC      A,#(hotPg >> 8) & 0xff
        MOV       DPH,A
        SJMP      ??osal_nv_read_1
          CFI CFA_XSP16 add(XSP16, 16)
// 1436 
// 1437   if ((offset = findItem(id)) == OSAL_NV_ITEM_NULL)
??osal_nv_read_0:
        ; Setup parameters for call to function findItem
        MOV       R2,?V0
        MOV       R3,?V1
        LCALL     `??findItem::?relay`; Banked call to: findItem
        MOV       A,R2
        ORL       A,R3
        JNZ       ??osal_nv_read_2
// 1438   {
// 1439     return NV_OPER_FAILED;
        MOV       R1,#0xa
        SJMP      ??osal_nv_read_3
// 1440   }
// 1441   else
// 1442   {
// 1443     HalFlashRead(findPg, offset+ndx, buf, len);
??osal_nv_read_2:
        ; Setup parameters for call to function HalFlashRead
        MOV       ?V0,R6
        MOV       ?V1,R7
        MOV       R0,#?V0
        LCALL     ?PUSH_XSTACK_I_TWO
          CFI CFA_XSP16 add(XSP16, 18)
        MOV       R4,?V2
        MOV       R5,?V3
        MOV       A,R2
        ADD       A,?V4
        MOV       R2,A
        MOV       A,R3
        ADDC      A,?V5
        MOV       R3,A
        MOV       DPTR,#findPg
??osal_nv_read_1:
        LCALL     ?Subroutine10 & 0xFFFF
??CrossCallReturnLabel_121:
        LCALL     ?DEALLOC_XSTACK8
          CFI CFA_XSP16 add(XSP16, 16)
// 1444     return SUCCESS;
        MOV       R1,#0x0
// 1445   }
??osal_nv_read_3:
        LJMP      ??Subroutine60_0 & 0xFFFF
// 1446 }
          CFI EndBlock cfiBlock298

        RSEG BANK_RELAYS:CODE:REORDER:NOROOT(0)
`??initNV::?relay`:
        CODE
        LCALL   ?BDISPATCH
        DATA24
        DC24    initNV

        RSEG BANK_RELAYS:CODE:REORDER:NOROOT(0)
`??setPageUse::?relay`:
        CODE
        LCALL   ?BDISPATCH
        DATA24
        DC24    setPageUse

        RSEG BANK_RELAYS:CODE:REORDER:NOROOT(0)
`??initPage::?relay`:
        CODE
        LCALL   ?BDISPATCH
        DATA24
        DC24    initPage

        RSEG BANK_RELAYS:CODE:REORDER:NOROOT(0)
`??erasePage::?relay`:
        CODE
        LCALL   ?BDISPATCH
        DATA24
        DC24    erasePage

        RSEG BANK_RELAYS:CODE:REORDER:NOROOT(0)
`??compactPage::?relay`:
        CODE
        LCALL   ?BDISPATCH
        DATA24
        DC24    compactPage

        RSEG BANK_RELAYS:CODE:REORDER:NOROOT(0)
`??findItem::?relay`:
        CODE
        LCALL   ?BDISPATCH
        DATA24
        DC24    findItem

        RSEG BANK_RELAYS:CODE:REORDER:NOROOT(0)
`??initItem::?relay`:
        CODE
        LCALL   ?BDISPATCH
        DATA24
        DC24    initItem

        RSEG BANK_RELAYS:CODE:REORDER:NOROOT(0)
`??setItem::?relay`:
        CODE
        LCALL   ?BDISPATCH
        DATA24
        DC24    setItem

        RSEG BANK_RELAYS:CODE:REORDER:NOROOT(0)
`??setChk::?relay`:
        CODE
        LCALL   ?BDISPATCH
        DATA24
        DC24    setChk

        RSEG BANK_RELAYS:CODE:REORDER:NOROOT(0)
`??calcChkF::?relay`:
        CODE
        LCALL   ?BDISPATCH
        DATA24
        DC24    calcChkF

        RSEG BANK_RELAYS:CODE:REORDER:NOROOT(0)
`??writeWord::?relay`:
        CODE
        LCALL   ?BDISPATCH
        DATA24
        DC24    writeWord

        RSEG BANK_RELAYS:CODE:REORDER:NOROOT(0)
`??writeWordH::?relay`:
        CODE
        LCALL   ?BDISPATCH
        DATA24
        DC24    writeWordH

        RSEG BANK_RELAYS:CODE:REORDER:NOROOT(0)
`??writeBuf::?relay`:
        CODE
        LCALL   ?BDISPATCH
        DATA24
        DC24    writeBuf

        RSEG BANK_RELAYS:CODE:REORDER:NOROOT(0)
`??xferBuf::?relay`:
        CODE
        LCALL   ?BDISPATCH
        DATA24
        DC24    xferBuf

        RSEG BANK_RELAYS:CODE:REORDER:NOROOT(0)
`??writeItem::?relay`:
        CODE
        LCALL   ?BDISPATCH
        DATA24
        DC24    writeItem

        RSEG BANK_RELAYS:CODE:REORDER:NOROOT(0)
`??hotItem::?relay`:
        CODE
        LCALL   ?BDISPATCH
        DATA24
        DC24    hotItem

        RSEG BANK_RELAYS:CODE:REORDER:NOROOT(0)
`??hotItemUpdate::?relay`:
        CODE
        LCALL   ?BDISPATCH
        DATA24
        DC24    hotItemUpdate

        RSEG BANK_RELAYS:CODE:REORDER:NOROOT(0)
`??osal_nv_init::?relay`:
        CODE
        LCALL   ?BDISPATCH
        DATA24
        DC24    osal_nv_init

        RSEG BANK_RELAYS:CODE:REORDER:NOROOT(0)
`??osal_nv_item_init::?relay`:
        CODE
        LCALL   ?BDISPATCH
        DATA24
        DC24    osal_nv_item_init

        RSEG BANK_RELAYS:CODE:REORDER:NOROOT(0)
`??osal_nv_item_len::?relay`:
        CODE
        LCALL   ?BDISPATCH
        DATA24
        DC24    osal_nv_item_len

        RSEG BANK_RELAYS:CODE:REORDER:NOROOT(0)
`??osal_nv_write::?relay`:
        CODE
        LCALL   ?BDISPATCH
        DATA24
        DC24    osal_nv_write

        RSEG BANK_RELAYS:CODE:REORDER:NOROOT(0)
`??osal_nv_read::?relay`:
        CODE
        LCALL   ?BDISPATCH
        DATA24
        DC24    osal_nv_read

        END
// 1447 
// 1448 /*********************************************************************
// 1449 *********************************************************************/
// 
//  5 231 bytes in segment BANKED_CODE
//    132 bytes in segment BANK_RELAYS
//      6 bytes in segment XDATA_ROM_C
//     35 bytes in segment XDATA_Z
// 12 288 bytes in segment ZIGNV_ADDRESS_SPACE
// 
//    132 bytes of CODE     memory
//      6 bytes of CONST    memory
//  5 231 bytes of HUGECODE memory
// 12 323 bytes of XDATA    memory
//
//Errors: none
//Warnings: none
